{
   <insert_a_suppression_name_here>
   Memcheck:Cond
   fun:_ZN10TClassEdit8GetSplitEPKcRSt6vectorISsSaISsEERiNS_8EModTypeE
   fun:_ZN10TClassEdit10TSplitTypeC1EPKcNS_8EModTypeE
   fun:_ZN11TClassTable3AddEPKcsRKSt9type_infoPFvvEi
   fun:_ZN4ROOT17TGenericClassInfoC2EPKciS2_iRKSt9type_infoPKNS_13TInitBehaviorEPFvvEP16TVirtualIsAProxyii
   fun:_ZN4ROOTL25GenerateInitInstanceLocalEPK12TApplication
   fun:_ZN4ROOT20GenerateInitInstanceEPK12TApplication
   fun:_GLOBAL__I_a
   fun:_ZN16ImageLoaderMachO18doModInitFunctionsERKN11ImageLoader11LinkContextE
   fun:_ZN16ImageLoaderMachO16doInitializationERKN11ImageLoader11LinkContextE
   fun:_ZN11ImageLoader23recursiveInitializationERKNS_11LinkContextEjRNS_21InitializerTimingListE
   fun:_ZN11ImageLoader23recursiveInitializationERKNS_11LinkContextEjRNS_21InitializerTimingListE
   fun:_ZN11ImageLoader15runInitializersERKNS_11LinkContextERNS_21InitializerTimingListE
}
{
   <insert_a_suppression_name_here>
   Memcheck:Cond
   fun:_ZN10TClassEdit10TSplitType9ShortTypeERSsi
   fun:_ZN11TClassTable3AddEPKcsRKSt9type_infoPFvvEi
   fun:_ZN4ROOT17TGenericClassInfoC2EPKciS2_iRKSt9type_infoPKNS_13TInitBehaviorEPFvvEP16TVirtualIsAProxyii
   fun:_ZN4ROOTL25GenerateInitInstanceLocalEPK12TApplication
   fun:_ZN4ROOT20GenerateInitInstanceEPK12TApplication
   fun:_GLOBAL__I_a
   fun:_ZN16ImageLoaderMachO18doModInitFunctionsERKN11ImageLoader11LinkContextE
   fun:_ZN16ImageLoaderMachO16doInitializationERKN11ImageLoader11LinkContextE
   fun:_ZN11ImageLoader23recursiveInitializationERKNS_11LinkContextEjRNS_21InitializerTimingListE
   fun:_ZN11ImageLoader23recursiveInitializationERKNS_11LinkContextEjRNS_21InitializerTimingListE
   fun:_ZN11ImageLoader15runInitializersERKNS_11LinkContextERNS_21InitializerTimingListE
   fun:_ZN4dyld24initializeMainExecutableEv
}
{
   <insert_a_suppression_name_here>
   Memcheck:Cond
   fun:_ZN10TClassEdit10TSplitType9ShortTypeERSsi
   fun:_ZN11TClassTable3AddEPKcsRKSt9type_infoPFvvEi
   fun:_ZN4ROOT17TGenericClassInfoC2EPKciS2_iRKSt9type_infoPKNS_13TInitBehaviorEPFvvEP16TVirtualIsAProxyii
   fun:_ZN4ROOTL25GenerateInitInstanceLocalEPK15TApplicationImp
   fun:_ZN4ROOT20GenerateInitInstanceEPK15TApplicationImp
   fun:_GLOBAL__I_a
   fun:_ZN16ImageLoaderMachO18doModInitFunctionsERKN11ImageLoader11LinkContextE
   fun:_ZN16ImageLoaderMachO16doInitializationERKN11ImageLoader11LinkContextE
   fun:_ZN11ImageLoader23recursiveInitializationERKNS_11LinkContextEjRNS_21InitializerTimingListE
   fun:_ZN11ImageLoader23recursiveInitializationERKNS_11LinkContextEjRNS_21InitializerTimingListE
   fun:_ZN11ImageLoader15runInitializersERKNS_11LinkContextERNS_21InitializerTimingListE
   fun:_ZN4dyld24initializeMainExecutableEv
}
{
   <insert_a_suppression_name_here>
   Memcheck:Cond
   fun:_ZN10TClassEdit10TSplitType9ShortTypeERSsi
	...
   fun:_ZN4dyld24initializeMainExecutableEv
}
{
   <insert_a_suppression_name_here>
   Memcheck:Cond
   fun:_ZN10TClassEdit10TSplitType9ShortTypeERSsi
   fun:_ZN11TClassTable3AddEPKcsRKSt9type_infoPFvvEi
   fun:_ZN4ROOT17TGenericClassInfoC2EPKciS2_iRKSt9type_infoPKNS_13TInitBehaviorEPFvvEP16TVirtualIsAProxyii
   fun:_ZN4ROOTL25GenerateInitInstanceLocalEPK8TAttBBox
   fun:_ZN4ROOT20GenerateInitInstanceEPK8TAttBBox
   fun:_GLOBAL__I_a
   fun:_ZN16ImageLoaderMachO18doModInitFunctionsERKN11ImageLoader11LinkContextE
   fun:_ZN16ImageLoaderMachO16doInitializationERKN11ImageLoader11LinkContextE
   fun:_ZN11ImageLoader23recursiveInitializationERKNS_11LinkContextEjRNS_21InitializerTimingListE
   fun:_ZN11ImageLoader23recursiveInitializationERKNS_11LinkContextEjRNS_21InitializerTimingListE
   fun:_ZN11ImageLoader15runInitializersERKNS_11LinkContextERNS_21InitializerTimingListE
   fun:_ZN4dyld24initializeMainExecutableEv
}
{
   <insert_a_suppression_name_here>
   Memcheck:Cond
   fun:_ZN10TClassEdit10TSplitType9ShortTypeERSsi
   fun:_ZN11TClassTable3AddEPKcsRKSt9type_infoPFvvEi
   fun:_ZN4ROOT17TGenericClassInfoC2EPKciS2_iRKSt9type_infoPKNS_13TInitBehaviorEPFvvEP16TVirtualIsAProxyii
   fun:_ZN4ROOTL25GenerateInitInstanceLocalEPK8TAttFill
   fun:_ZN4ROOT20GenerateInitInstanceEPK8TAttFill
   fun:_GLOBAL__I_a
   fun:_ZN16ImageLoaderMachO18doModInitFunctionsERKN11ImageLoader11LinkContextE
   fun:_ZN16ImageLoaderMachO16doInitializationERKN11ImageLoader11LinkContextE
   fun:_ZN11ImageLoader23recursiveInitializationERKNS_11LinkContextEjRNS_21InitializerTimingListE
   fun:_ZN11ImageLoader23recursiveInitializationERKNS_11LinkContextEjRNS_21InitializerTimingListE
   fun:_ZN11ImageLoader15runInitializersERKNS_11LinkContextERNS_21InitializerTimingListE
   fun:_ZN4dyld24initializeMainExecutableEv
}
{
   <insert_a_suppression_name_here>
   Memcheck:Cond
   fun:_ZN10TClassEdit10TSplitType9ShortTypeERSsi
   fun:_ZN11TClassTable3AddEPKcsRKSt9type_infoPFvvEi
   fun:_ZN4ROOT17TGenericClassInfoC2EPKciS2_iRKSt9type_infoPKNS_13TInitBehaviorEPFvvEP16TVirtualIsAProxyii
   fun:_ZN4ROOTL25GenerateInitInstanceLocalEPK8TAttLine
   fun:_ZN4ROOT20GenerateInitInstanceEPK8TAttLine
   fun:_GLOBAL__I_a
   fun:_ZN16ImageLoaderMachO18doModInitFunctionsERKN11ImageLoader11LinkContextE
   fun:_ZN16ImageLoaderMachO16doInitializationERKN11ImageLoader11LinkContextE
   fun:_ZN11ImageLoader23recursiveInitializationERKNS_11LinkContextEjRNS_21InitializerTimingListE
   fun:_ZN11ImageLoader23recursiveInitializationERKNS_11LinkContextEjRNS_21InitializerTimingListE
   fun:_ZN11ImageLoader15runInitializersERKNS_11LinkContextERNS_21InitializerTimingListE
   fun:_ZN4dyld24initializeMainExecutableEv
}
{
   <insert_a_suppression_name_here>
   Memcheck:Cond
   fun:_ZN10TClassEdit10TSplitType9ShortTypeERSsi
   fun:_ZN11TClassTable3AddEPKcsRKSt9type_infoPFvvEi
   fun:_ZN4ROOT17TGenericClassInfoC2EPKciS2_iRKSt9type_infoPKNS_13TInitBehaviorEPFvvEP16TVirtualIsAProxyii
   fun:_ZN4ROOTL25GenerateInitInstanceLocalEPK10TAttMarker
   fun:_ZN4ROOT20GenerateInitInstanceEPK10TAttMarker
   fun:_GLOBAL__I_a
   fun:_ZN16ImageLoaderMachO18doModInitFunctionsERKN11ImageLoader11LinkContextE
   fun:_ZN16ImageLoaderMachO16doInitializationERKN11ImageLoader11LinkContextE
   fun:_ZN11ImageLoader23recursiveInitializationERKNS_11LinkContextEjRNS_21InitializerTimingListE
   fun:_ZN11ImageLoader23recursiveInitializationERKNS_11LinkContextEjRNS_21InitializerTimingListE
   fun:_ZN11ImageLoader15runInitializersERKNS_11LinkContextERNS_21InitializerTimingListE
   fun:_ZN4dyld24initializeMainExecutableEv
}
{
   <insert_a_suppression_name_here>
   Memcheck:Cond
   fun:_ZN10TClassEdit10TSplitType9ShortTypeERSsi
   fun:_ZN11TClassTable3AddEPKcsRKSt9type_infoPFvvEi
   fun:_ZN4ROOT17TGenericClassInfoC2EPKciS2_iRKSt9type_infoPKNS_13TInitBehaviorEPFvvEP16TVirtualIsAProxyii
   fun:_ZN4ROOTL25GenerateInitInstanceLocalEPK8TAttText
   fun:_ZN4ROOT20GenerateInitInstanceEPK8TAttText
   fun:_GLOBAL__I_a
   fun:_ZN16ImageLoaderMachO18doModInitFunctionsERKN11ImageLoader11LinkContextE
   fun:_ZN16ImageLoaderMachO16doInitializationERKN11ImageLoader11LinkContextE
   fun:_ZN11ImageLoader23recursiveInitializationERKNS_11LinkContextEjRNS_21InitializerTimingListE
   fun:_ZN11ImageLoader23recursiveInitializationERKNS_11LinkContextEjRNS_21InitializerTimingListE
   fun:_ZN11ImageLoader15runInitializersERKNS_11LinkContextERNS_21InitializerTimingListE
   fun:_ZN4dyld24initializeMainExecutableEv
}
{
   <insert_a_suppression_name_here>
   Memcheck:Cond
   fun:_ZN10TClassEdit10TSplitType9ShortTypeERSsi
   fun:_ZN11TClassTable3AddEPKcsRKSt9type_infoPFvvEi
   fun:_ZN4ROOT17TGenericClassInfoC2EPKciS2_iRKSt9type_infoPKNS_13TInitBehaviorEPFvvEP16TVirtualIsAProxyii
   fun:_ZN4ROOTL25GenerateInitInstanceLocalEPK10TBenchmark
   fun:_ZN4ROOT20GenerateInitInstanceEPK10TBenchmark
   fun:_GLOBAL__I_a
   fun:_ZN16ImageLoaderMachO18doModInitFunctionsERKN11ImageLoader11LinkContextE
   fun:_ZN16ImageLoaderMachO16doInitializationERKN11ImageLoader11LinkContextE
   fun:_ZN11ImageLoader23recursiveInitializationERKNS_11LinkContextEjRNS_21InitializerTimingListE
   fun:_ZN11ImageLoader23recursiveInitializationERKNS_11LinkContextEjRNS_21InitializerTimingListE
   fun:_ZN11ImageLoader15runInitializersERKNS_11LinkContextERNS_21InitializerTimingListE
   fun:_ZN4dyld24initializeMainExecutableEv
}
{
   <insert_a_suppression_name_here>
   Memcheck:Cond
   fun:_ZN10TClassEdit10TSplitType9ShortTypeERSsi
   fun:_ZN11TClassTable3AddEPKcsRKSt9type_infoPFvvEi
   fun:_ZN4ROOT17TGenericClassInfoC2EPKciS2_iRKSt9type_infoPKNS_13TInitBehaviorEPFvvEP16TVirtualIsAProxyii
   fun:_ZN4ROOTL25GenerateInitInstanceLocalEPK8TBrowser
   fun:_ZN4ROOT20GenerateInitInstanceEPK8TBrowser
   fun:_GLOBAL__I_a
   fun:_ZN16ImageLoaderMachO18doModInitFunctionsERKN11ImageLoader11LinkContextE
   fun:_ZN16ImageLoaderMachO16doInitializationERKN11ImageLoader11LinkContextE
   fun:_ZN11ImageLoader23recursiveInitializationERKNS_11LinkContextEjRNS_21InitializerTimingListE
   fun:_ZN11ImageLoader23recursiveInitializationERKNS_11LinkContextEjRNS_21InitializerTimingListE
   fun:_ZN11ImageLoader15runInitializersERKNS_11LinkContextERNS_21InitializerTimingListE
   fun:_ZN4dyld24initializeMainExecutableEv
}
{
   <insert_a_suppression_name_here>
   Memcheck:Cond
   fun:_ZN10TClassEdit10TSplitType9ShortTypeERSsi
   fun:_ZN11TClassTable3AddEPKcsRKSt9type_infoPFvvEi
   fun:_ZN4ROOT17TGenericClassInfoC2EPKciS2_iRKSt9type_infoPKNS_13TInitBehaviorEPFvvEP16TVirtualIsAProxyii
   fun:_ZN4ROOTL25GenerateInitInstanceLocalEPK11TBrowserImp
   fun:_ZN4ROOT20GenerateInitInstanceEPK11TBrowserImp
   fun:_GLOBAL__I_a
   fun:_ZN16ImageLoaderMachO18doModInitFunctionsERKN11ImageLoader11LinkContextE
   fun:_ZN16ImageLoaderMachO16doInitializationERKN11ImageLoader11LinkContextE
   fun:_ZN11ImageLoader23recursiveInitializationERKNS_11LinkContextEjRNS_21InitializerTimingListE
   fun:_ZN11ImageLoader23recursiveInitializationERKNS_11LinkContextEjRNS_21InitializerTimingListE
   fun:_ZN11ImageLoader15runInitializersERKNS_11LinkContextERNS_21InitializerTimingListE
   fun:_ZN4dyld24initializeMainExecutableEv
}
{
   <insert_a_suppression_name_here>
   Memcheck:Cond
   fun:_ZN10TClassEdit10TSplitType9ShortTypeERSsi
   fun:_ZN11TClassTable3AddEPKcsRKSt9type_infoPFvvEi
   fun:_ZN4ROOT17TGenericClassInfoC2EPKciS2_iRKSt9type_infoPKNS_13TInitBehaviorEPFvvEP16TVirtualIsAProxyii
   fun:_ZN4ROOTL25GenerateInitInstanceLocalEPK9TBuffer3D
   fun:_ZN4ROOT20GenerateInitInstanceEPK9TBuffer3D
   fun:_GLOBAL__I_a
   fun:_ZN16ImageLoaderMachO18doModInitFunctionsERKN11ImageLoader11LinkContextE
   fun:_ZN16ImageLoaderMachO16doInitializationERKN11ImageLoader11LinkContextE
   fun:_ZN11ImageLoader23recursiveInitializationERKNS_11LinkContextEjRNS_21InitializerTimingListE
   fun:_ZN11ImageLoader23recursiveInitializationERKNS_11LinkContextEjRNS_21InitializerTimingListE
   fun:_ZN11ImageLoader15runInitializersERKNS_11LinkContextERNS_21InitializerTimingListE
   fun:_ZN4dyld24initializeMainExecutableEv
}
{
   <insert_a_suppression_name_here>
   Memcheck:Cond
   fun:_ZN10TClassEdit10TSplitType9ShortTypeERSsi
   fun:_ZN11TClassTable3AddEPKcsRKSt9type_infoPFvvEi
   fun:_ZN4ROOT17TGenericClassInfoC2EPKciS2_iRKSt9type_infoPKNS_13TInitBehaviorEPFvvEP16TVirtualIsAProxyii
   fun:_ZN4ROOTL25GenerateInitInstanceLocalEPK10TCanvasImp
   fun:_ZN4ROOT20GenerateInitInstanceEPK10TCanvasImp
   fun:_GLOBAL__I_a
   fun:_ZN16ImageLoaderMachO18doModInitFunctionsERKN11ImageLoader11LinkContextE
   fun:_ZN16ImageLoaderMachO16doInitializationERKN11ImageLoader11LinkContextE
   fun:_ZN11ImageLoader23recursiveInitializationERKNS_11LinkContextEjRNS_21InitializerTimingListE
   fun:_ZN11ImageLoader23recursiveInitializationERKNS_11LinkContextEjRNS_21InitializerTimingListE
   fun:_ZN11ImageLoader15runInitializersERKNS_11LinkContextERNS_21InitializerTimingListE
   fun:_ZN4dyld24initializeMainExecutableEv
}
{
   <insert_a_suppression_name_here>
   Memcheck:Cond
   fun:_ZN10TClassEdit10TSplitType9ShortTypeERSsi
   fun:_ZN11TClassTable3AddEPKcsRKSt9type_infoPFvvEi
   fun:_ZN4ROOT17TGenericClassInfoC2EPKciS2_iRKSt9type_infoPKNS_13TInitBehaviorEPFvvEP16TVirtualIsAProxyii
   fun:_ZN4ROOTL25GenerateInitInstanceLocalEPK14TColorGradient
   fun:_ZN4ROOT20GenerateInitInstanceEPK14TColorGradient
   fun:_GLOBAL__I_a
   fun:_ZN16ImageLoaderMachO18doModInitFunctionsERKN11ImageLoader11LinkContextE
   fun:_ZN16ImageLoaderMachO16doInitializationERKN11ImageLoader11LinkContextE
   fun:_ZN11ImageLoader23recursiveInitializationERKNS_11LinkContextEjRNS_21InitializerTimingListE
   fun:_ZN11ImageLoader23recursiveInitializationERKNS_11LinkContextEjRNS_21InitializerTimingListE
   fun:_ZN11ImageLoader15runInitializersERKNS_11LinkContextERNS_21InitializerTimingListE
   fun:_ZN4dyld24initializeMainExecutableEv
}
{
   <insert_a_suppression_name_here>
   Memcheck:Cond
   fun:_ZN10TClassEdit10TSplitType9ShortTypeERSsi
   fun:_ZN11TClassTable3AddEPKcsRKSt9type_infoPFvvEi
   fun:_ZN4ROOT17TGenericClassInfoC2EPKciS2_iRKSt9type_infoPKNS_13TInitBehaviorEPFvvEP16TVirtualIsAProxyii
   fun:_ZN4ROOTL25GenerateInitInstanceLocalEPK12TContextMenu
   fun:_ZN4ROOT20GenerateInitInstanceEPK12TContextMenu
   fun:_GLOBAL__I_a
   fun:_ZN16ImageLoaderMachO18doModInitFunctionsERKN11ImageLoader11LinkContextE
   fun:_ZN16ImageLoaderMachO16doInitializationERKN11ImageLoader11LinkContextE
   fun:_ZN11ImageLoader23recursiveInitializationERKNS_11LinkContextEjRNS_21InitializerTimingListE
   fun:_ZN11ImageLoader23recursiveInitializationERKNS_11LinkContextEjRNS_21InitializerTimingListE
   fun:_ZN11ImageLoader15runInitializersERKNS_11LinkContextERNS_21InitializerTimingListE
   fun:_ZN4dyld24initializeMainExecutableEv
}
{
   <insert_a_suppression_name_here>
   Memcheck:Cond
   fun:_ZN10TClassEdit10TSplitType9ShortTypeERSsi
   fun:_ZN11TClassTable3AddEPKcsRKSt9type_infoPFvvEi
   fun:_ZN4ROOT17TGenericClassInfoC2EPKciS2_iRKSt9type_infoPKNS_13TInitBehaviorEPFvvEP16TVirtualIsAProxyii
   fun:_ZN4ROOTL25GenerateInitInstanceLocalEPK15TContextMenuImp
   fun:_ZN4ROOT20GenerateInitInstanceEPK15TContextMenuImp
   fun:_GLOBAL__I_a
   fun:_ZN16ImageLoaderMachO18doModInitFunctionsERKN11ImageLoader11LinkContextE
   fun:_ZN16ImageLoaderMachO16doInitializationERKN11ImageLoader11LinkContextE
   fun:_ZN11ImageLoader23recursiveInitializationERKNS_11LinkContextEjRNS_21InitializerTimingListE
   fun:_ZN11ImageLoader23recursiveInitializationERKNS_11LinkContextEjRNS_21InitializerTimingListE
   fun:_ZN11ImageLoader15runInitializersERKNS_11LinkContextERNS_21InitializerTimingListE
   fun:_ZN4dyld24initializeMainExecutableEv
}
{
   <insert_a_suppression_name_here>
   Memcheck:Cond
   fun:_ZN10TClassEdit10TSplitType9ShortTypeERSsi
   fun:_ZN11TClassTable3AddEPKcsRKSt9type_infoPFvvEi
   fun:_ZN4ROOT17TGenericClassInfoC2EPKciS2_iRKSt9type_infoPKNS_13TInitBehaviorEPFvvEP16TVirtualIsAProxyii
   fun:_ZN4ROOTL25GenerateInitInstanceLocalEPK14TControlBarImp
   fun:_ZN4ROOT20GenerateInitInstanceEPK14TControlBarImp
   fun:_GLOBAL__I_a
   fun:_ZN16ImageLoaderMachO18doModInitFunctionsERKN11ImageLoader11LinkContextE
   fun:_ZN16ImageLoaderMachO16doInitializationERKN11ImageLoader11LinkContextE
   fun:_ZN11ImageLoader23recursiveInitializationERKNS_11LinkContextEjRNS_21InitializerTimingListE
   fun:_ZN11ImageLoader23recursiveInitializationERKNS_11LinkContextEjRNS_21InitializerTimingListE
   fun:_ZN11ImageLoader15runInitializersERKNS_11LinkContextERNS_21InitializerTimingListE
   fun:_ZN4dyld24initializeMainExecutableEv
}
{
   <insert_a_suppression_name_here>
   Memcheck:Cond
   fun:_ZN10TClassEdit10TSplitType9ShortTypeERSsi
   fun:_ZN11TClassTable3AddEPKcsRKSt9type_infoPFvvEi
   fun:_ZN4ROOT17TGenericClassInfoC2EPKciS2_iRKSt9type_infoPKNS_13TInitBehaviorEPFvvEP16TVirtualIsAProxyii
   fun:_ZN4ROOTL25GenerateInitInstanceLocalEPK10TDirectory
   fun:_ZN4ROOT20GenerateInitInstanceEPK10TDirectory
   fun:_GLOBAL__I_a
   fun:_ZN16ImageLoaderMachO18doModInitFunctionsERKN11ImageLoader11LinkContextE
   fun:_ZN16ImageLoaderMachO16doInitializationERKN11ImageLoader11LinkContextE
   fun:_ZN11ImageLoader23recursiveInitializationERKNS_11LinkContextEjRNS_21InitializerTimingListE
   fun:_ZN11ImageLoader23recursiveInitializationERKNS_11LinkContextEjRNS_21InitializerTimingListE
   fun:_ZN11ImageLoader15runInitializersERKNS_11LinkContextERNS_21InitializerTimingListE
   fun:_ZN4dyld24initializeMainExecutableEv
}
{
   <insert_a_suppression_name_here>
   Memcheck:Cond
   fun:_ZN10TClassEdit10TSplitType9ShortTypeERSsi
   fun:_ZN11TClassTable3AddEPKcsRKSt9type_infoPFvvEi
   fun:_ZN4ROOT17TGenericClassInfoC2EPKciS2_iRKSt9type_infoPKNS_13TInitBehaviorEPFvvEP16TVirtualIsAProxyii
   fun:_ZN4ROOTL25GenerateInitInstanceLocalEPK15TFileCollection
   fun:_ZN4ROOT20GenerateInitInstanceEPK15TFileCollection
   fun:_GLOBAL__I_a
   fun:_ZN16ImageLoaderMachO18doModInitFunctionsERKN11ImageLoader11LinkContextE
   fun:_ZN16ImageLoaderMachO16doInitializationERKN11ImageLoader11LinkContextE
   fun:_ZN11ImageLoader23recursiveInitializationERKNS_11LinkContextEjRNS_21InitializerTimingListE
   fun:_ZN11ImageLoader23recursiveInitializationERKNS_11LinkContextEjRNS_21InitializerTimingListE
   fun:_ZN11ImageLoader15runInitializersERKNS_11LinkContextERNS_21InitializerTimingListE
   fun:_ZN4dyld24initializeMainExecutableEv
}
{
   <insert_a_suppression_name_here>
   Memcheck:Cond
   fun:_ZN10TClassEdit10TSplitType9ShortTypeERSsi
   fun:_ZN11TClassTable3AddEPKcsRKSt9type_infoPFvvEi
   fun:_ZN4ROOT17TGenericClassInfoC2EPKciS2_iRKSt9type_infoPKNS_13TInitBehaviorEPFvvEP16TVirtualIsAProxyii
   fun:_ZN4ROOTL25GenerateInitInstanceLocalEPK9TFileInfo
   fun:_ZN4ROOT20GenerateInitInstanceEPK9TFileInfo
   fun:_GLOBAL__I_a
   fun:_ZN16ImageLoaderMachO18doModInitFunctionsERKN11ImageLoader11LinkContextE
   fun:_ZN16ImageLoaderMachO16doInitializationERKN11ImageLoader11LinkContextE
   fun:_ZN11ImageLoader23recursiveInitializationERKNS_11LinkContextEjRNS_21InitializerTimingListE
   fun:_ZN11ImageLoader23recursiveInitializationERKNS_11LinkContextEjRNS_21InitializerTimingListE
   fun:_ZN11ImageLoader15runInitializersERKNS_11LinkContextERNS_21InitializerTimingListE
   fun:_ZN4dyld24initializeMainExecutableEv
}
{
   <insert_a_suppression_name_here>
   Memcheck:Cond
   fun:_ZN10TClassEdit10TSplitType9ShortTypeERSsi
   fun:_ZN11TClassTable3AddEPKcsRKSt9type_infoPFvvEi
   fun:_ZN4ROOT17TGenericClassInfoC2EPKciS2_iRKSt9type_infoPKNS_13TInitBehaviorEPFvvEP16TVirtualIsAProxyii
   fun:_ZN4ROOTL25GenerateInitInstanceLocalEPK13TFileInfoMeta
   fun:_ZN4ROOT20GenerateInitInstanceEPK13TFileInfoMeta
   fun:_GLOBAL__I_a
   fun:_ZN16ImageLoaderMachO18doModInitFunctionsERKN11ImageLoader11LinkContextE
   fun:_ZN16ImageLoaderMachO16doInitializationERKN11ImageLoader11LinkContextE
   fun:_ZN11ImageLoader23recursiveInitializationERKNS_11LinkContextEjRNS_21InitializerTimingListE
   fun:_ZN11ImageLoader23recursiveInitializationERKNS_11LinkContextEjRNS_21InitializerTimingListE
   fun:_ZN11ImageLoader15runInitializersERKNS_11LinkContextERNS_21InitializerTimingListE
   fun:_ZN4dyld24initializeMainExecutableEv
}
{
   <insert_a_suppression_name_here>
   Memcheck:Cond
   fun:_ZN10TClassEdit10TSplitType9ShortTypeERSsi
   fun:_ZN11TClassTable3AddEPKcsRKSt9type_infoPFvvEi
   fun:_ZN4ROOT17TGenericClassInfoC2EPKciS2_iRKSt9type_infoPKNS_13TInitBehaviorEPFvvEP16TVirtualIsAProxyii
   fun:_ZN4ROOTL25GenerateInitInstanceLocalEPK11TGuiFactory
   fun:_ZN4ROOT20GenerateInitInstanceEPK11TGuiFactory
   fun:_GLOBAL__I_a
   fun:_ZN16ImageLoaderMachO18doModInitFunctionsERKN11ImageLoader11LinkContextE
   fun:_ZN16ImageLoaderMachO16doInitializationERKN11ImageLoader11LinkContextE
   fun:_ZN11ImageLoader23recursiveInitializationERKNS_11LinkContextEjRNS_21InitializerTimingListE
   fun:_ZN11ImageLoader23recursiveInitializationERKNS_11LinkContextEjRNS_21InitializerTimingListE
   fun:_ZN11ImageLoader15runInitializersERKNS_11LinkContextERNS_21InitializerTimingListE
   fun:_ZN4dyld24initializeMainExecutableEv
}
{
   <insert_a_suppression_name_here>
   Memcheck:Cond
   fun:_ZN10TClassEdit10TSplitType9ShortTypeERSsi
   fun:_ZN11TClassTable3AddEPKcsRKSt9type_infoPFvvEi
   fun:_ZN4ROOT17TGenericClassInfoC2EPKciS2_iRKSt9type_infoPKNS_13TInitBehaviorEPFvvEP16TVirtualIsAProxyii
   fun:_ZN4ROOTL25GenerateInitInstanceLocalEPK12TInetAddress
   fun:_ZN4ROOT20GenerateInitInstanceEPK12TInetAddress
   fun:_GLOBAL__I_a
   fun:_ZN16ImageLoaderMachO18doModInitFunctionsERKN11ImageLoader11LinkContextE
   fun:_ZN16ImageLoaderMachO16doInitializationERKN11ImageLoader11LinkContextE
   fun:_ZN11ImageLoader23recursiveInitializationERKNS_11LinkContextEjRNS_21InitializerTimingListE
   fun:_ZN11ImageLoader23recursiveInitializationERKNS_11LinkContextEjRNS_21InitializerTimingListE
   fun:_ZN11ImageLoader15runInitializersERKNS_11LinkContextERNS_21InitializerTimingListE
   fun:_ZN4dyld24initializeMainExecutableEv
}
{
   <insert_a_suppression_name_here>
   Memcheck:Cond
   fun:_ZN10TClassEdit10TSplitType9ShortTypeERSsi
   fun:_ZN11TClassTable3AddEPKcsRKSt9type_infoPFvvEi
   fun:_ZN4ROOT17TGenericClassInfoC2EPKciS2_iRKSt9type_infoPKNS_13TInitBehaviorEPFvvEP16TVirtualIsAProxyii
   fun:_ZN4ROOTL25GenerateInitInstanceLocalEPK13TInspectorImp
   fun:_ZN4ROOT20GenerateInitInstanceEPK13TInspectorImp
   fun:_GLOBAL__I_a
   fun:_ZN16ImageLoaderMachO18doModInitFunctionsERKN11ImageLoader11LinkContextE
   fun:_ZN16ImageLoaderMachO16doInitializationERKN11ImageLoader11LinkContextE
   fun:_ZN11ImageLoader23recursiveInitializationERKNS_11LinkContextEjRNS_21InitializerTimingListE
   fun:_ZN11ImageLoader23recursiveInitializationERKNS_11LinkContextEjRNS_21InitializerTimingListE
   fun:_ZN11ImageLoader15runInitializersERKNS_11LinkContextERNS_21InitializerTimingListE
   fun:_ZN4dyld24initializeMainExecutableEv
}
{
   <insert_a_suppression_name_here>
   Memcheck:Cond
   fun:_ZN10TClassEdit10TSplitType9ShortTypeERSsi
   fun:_ZN11TClassTable3AddEPKcsRKSt9type_infoPFvvEi
   fun:_ZN4ROOT17TGenericClassInfoC2EPKciS2_iRKSt9type_infoPKNS_13TInitBehaviorEPFvvEP16TVirtualIsAProxyii
   fun:_ZN4ROOTL25GenerateInitInstanceLocalEPK16TMemberInspector
   fun:_ZN4ROOT20GenerateInitInstanceEPK16TMemberInspector
   fun:_GLOBAL__I_a
   fun:_ZN16ImageLoaderMachO18doModInitFunctionsERKN11ImageLoader11LinkContextE
   fun:_ZN16ImageLoaderMachO16doInitializationERKN11ImageLoader11LinkContextE
   fun:_ZN11ImageLoader23recursiveInitializationERKNS_11LinkContextEjRNS_21InitializerTimingListE
   fun:_ZN11ImageLoader23recursiveInitializationERKNS_11LinkContextEjRNS_21InitializerTimingListE
   fun:_ZN11ImageLoader15runInitializersERKNS_11LinkContextERNS_21InitializerTimingListE
   fun:_ZN4dyld24initializeMainExecutableEv
}
{
   <insert_a_suppression_name_here>
   Memcheck:Cond
   fun:_ZN10TClassEdit10TSplitType9ShortTypeERSsi
   fun:_ZN11TClassTable3AddEPKcsRKSt9type_infoPFvvEi
   fun:_ZN4ROOT17TGenericClassInfoC2EPKciS2_iRKSt9type_infoPKNS_13TInitBehaviorEPFvvEP16TVirtualIsAProxyii
   fun:_ZN4ROOTL25GenerateInitInstanceLocalEPK15TMessageHandler
   fun:_ZN4ROOT20GenerateInitInstanceEPK15TMessageHandler
   fun:_GLOBAL__I_a
   fun:_ZN16ImageLoaderMachO18doModInitFunctionsERKN11ImageLoader11LinkContextE
   fun:_ZN16ImageLoaderMachO16doInitializationERKN11ImageLoader11LinkContextE
   fun:_ZN11ImageLoader23recursiveInitializationERKNS_11LinkContextEjRNS_21InitializerTimingListE
   fun:_ZN11ImageLoader23recursiveInitializationERKNS_11LinkContextEjRNS_21InitializerTimingListE
   fun:_ZN11ImageLoader15runInitializersERKNS_11LinkContextERNS_21InitializerTimingListE
   fun:_ZN4dyld24initializeMainExecutableEv
}
{
   <insert_a_suppression_name_here>
   Memcheck:Cond
   fun:_ZN10TClassEdit10TSplitType9ShortTypeERSsi
   fun:_ZN11TClassTable3AddEPKcsRKSt9type_infoPFvvEi
   fun:_ZN4ROOT17TGenericClassInfoC2EPKciS2_iRKSt9type_infoPKNS_13TInitBehaviorEPFvvEP16TVirtualIsAProxyii
   fun:_ZN4ROOTL25GenerateInitInstanceLocalEPK10TObjString
   fun:_ZN4ROOT20GenerateInitInstanceEPK10TObjString
   fun:_GLOBAL__I_a
   fun:_ZN16ImageLoaderMachO18doModInitFunctionsERKN11ImageLoader11LinkContextE
   fun:_ZN16ImageLoaderMachO16doInitializationERKN11ImageLoader11LinkContextE
   fun:_ZN11ImageLoader23recursiveInitializationERKNS_11LinkContextEjRNS_21InitializerTimingListE
   fun:_ZN11ImageLoader23recursiveInitializationERKNS_11LinkContextEjRNS_21InitializerTimingListE
   fun:_ZN11ImageLoader15runInitializersERKNS_11LinkContextERNS_21InitializerTimingListE
   fun:_ZN4dyld24initializeMainExecutableEv
}
{
   <insert_a_suppression_name_here>
   Memcheck:Cond
   fun:_ZN10TClassEdit10TSplitType9ShortTypeERSsi
   fun:_ZN11TClassTable3AddEPKcsRKSt9type_infoPFvvEi
   fun:_ZN4ROOT17TGenericClassInfoC2EPKciS2_iRKSt9type_infoPKNS_13TInitBehaviorEPFvvEP16TVirtualIsAProxyii
   fun:_ZN4ROOTL25GenerateInitInstanceLocalEPK10TObjectSpy
   fun:_ZN4ROOT20GenerateInitInstanceEPK10TObjectSpy
   fun:_GLOBAL__I_a
   fun:_ZN16ImageLoaderMachO18doModInitFunctionsERKN11ImageLoader11LinkContextE
   fun:_ZN16ImageLoaderMachO16doInitializationERKN11ImageLoader11LinkContextE
   fun:_ZN11ImageLoader23recursiveInitializationERKNS_11LinkContextEjRNS_21InitializerTimingListE
   fun:_ZN11ImageLoader23recursiveInitializationERKNS_11LinkContextEjRNS_21InitializerTimingListE
   fun:_ZN11ImageLoader15runInitializersERKNS_11LinkContextERNS_21InitializerTimingListE
   fun:_ZN4dyld24initializeMainExecutableEv
}
{
   <insert_a_suppression_name_here>
   Memcheck:Cond
   fun:_ZN10TClassEdit10TSplitType9ShortTypeERSsi
   fun:_ZN11TClassTable3AddEPKcsRKSt9type_infoPFvvEi
   fun:_ZN4ROOT17TGenericClassInfoC2EPKciS2_iRKSt9type_infoPKNS_13TInitBehaviorEPFvvEP16TVirtualIsAProxyii
   fun:_ZN4ROOTL25GenerateInitInstanceLocalEPK13TObjectRefSpy
   fun:_ZN4ROOT20GenerateInitInstanceEPK13TObjectRefSpy
   fun:_GLOBAL__I_a
   fun:_ZN16ImageLoaderMachO18doModInitFunctionsERKN11ImageLoader11LinkContextE
   fun:_ZN16ImageLoaderMachO16doInitializationERKN11ImageLoader11LinkContextE
   fun:_ZN11ImageLoader23recursiveInitializationERKNS_11LinkContextEjRNS_21InitializerTimingListE
   fun:_ZN11ImageLoader23recursiveInitializationERKNS_11LinkContextEjRNS_21InitializerTimingListE
   fun:_ZN11ImageLoader15runInitializersERKNS_11LinkContextERNS_21InitializerTimingListE
   fun:_ZN4dyld24initializeMainExecutableEv
}
{
   <insert_a_suppression_name_here>
   Memcheck:Cond
   fun:_ZN10TClassEdit10TSplitType9ShortTypeERSsi
   fun:_ZN11TClassTable3AddEPKcsRKSt9type_infoPFvvEi
   fun:_ZN4ROOT17TGenericClassInfoC2EPKciS2_iRKSt9type_infoPKNS_13TInitBehaviorEPFvvEP16TVirtualIsAProxyii
   fun:_ZN4ROOTL25GenerateInitInstanceLocalEPK8TPRegexp
   fun:_ZN4ROOT20GenerateInitInstanceEPK8TPRegexp
   fun:_GLOBAL__I_a
   fun:_ZN16ImageLoaderMachO18doModInitFunctionsERKN11ImageLoader11LinkContextE
   fun:_ZN16ImageLoaderMachO16doInitializationERKN11ImageLoader11LinkContextE
   fun:_ZN11ImageLoader23recursiveInitializationERKNS_11LinkContextEjRNS_21InitializerTimingListE
   fun:_ZN11ImageLoader23recursiveInitializationERKNS_11LinkContextEjRNS_21InitializerTimingListE
   fun:_ZN11ImageLoader15runInitializersERKNS_11LinkContextERNS_21InitializerTimingListE
   fun:_ZN4dyld24initializeMainExecutableEv
}
{
   <insert_a_suppression_name_here>
   Memcheck:Cond
   fun:_ZN10TClassEdit10TSplitType9ShortTypeERSsi
   fun:_ZN11TClassTable3AddEPKcsRKSt9type_infoPFvvEi
   fun:_ZN4ROOT17TGenericClassInfoC2EPKciS2_iRKSt9type_infoPKNS_13TInitBehaviorEPFvvEP16TVirtualIsAProxyii
   fun:_ZN4ROOTL25GenerateInitInstanceLocalEPK10TPMERegexp
   fun:_ZN4ROOT20GenerateInitInstanceEPK10TPMERegexp
   fun:_GLOBAL__I_a
   fun:_ZN16ImageLoaderMachO18doModInitFunctionsERKN11ImageLoader11LinkContextE
   fun:_ZN16ImageLoaderMachO16doInitializationERKN11ImageLoader11LinkContextE
   fun:_ZN11ImageLoader23recursiveInitializationERKNS_11LinkContextEjRNS_21InitializerTimingListE
   fun:_ZN11ImageLoader23recursiveInitializationERKNS_11LinkContextEjRNS_21InitializerTimingListE
   fun:_ZN11ImageLoader15runInitializersERKNS_11LinkContextERNS_21InitializerTimingListE
   fun:_ZN4dyld24initializeMainExecutableEv
}
{
   <insert_a_suppression_name_here>
   Memcheck:Cond
   fun:_ZN10TClassEdit10TSplitType9ShortTypeERSsi
   fun:_ZN11TClassTable3AddEPKcsRKSt9type_infoPFvvEi
   fun:_ZN4ROOT17TGenericClassInfoC2EPKciS2_iRKSt9type_infoPKNS_13TInitBehaviorEPFvvEP16TVirtualIsAProxyii
   fun:_ZN4ROOTL25GenerateInitInstanceLocalEPK12TStringToken
   fun:_ZN4ROOT20GenerateInitInstanceEPK12TStringToken
   fun:_GLOBAL__I_a
   fun:_ZN16ImageLoaderMachO18doModInitFunctionsERKN11ImageLoader11LinkContextE
   fun:_ZN16ImageLoaderMachO16doInitializationERKN11ImageLoader11LinkContextE
   fun:_ZN11ImageLoader23recursiveInitializationERKNS_11LinkContextEjRNS_21InitializerTimingListE
   fun:_ZN11ImageLoader23recursiveInitializationERKNS_11LinkContextEjRNS_21InitializerTimingListE
   fun:_ZN11ImageLoader15runInitializersERKNS_11LinkContextERNS_21InitializerTimingListE
   fun:_ZN4dyld24initializeMainExecutableEv
}
{
   <insert_a_suppression_name_here>
   Memcheck:Cond
   fun:_ZN10TClassEdit10TSplitType9ShortTypeERSsi
   fun:_ZN11TClassTable3AddEPKcsRKSt9type_infoPFvvEi
   fun:_ZN4ROOT17TGenericClassInfoC2EPKciS2_iRKSt9type_infoPKNS_13TInitBehaviorEPFvvEP16TVirtualIsAProxyii
   fun:_ZN4ROOTL25GenerateInitInstanceLocalEPK14TPluginHandler
   fun:_ZN4ROOT20GenerateInitInstanceEPK14TPluginHandler
   fun:_GLOBAL__I_a
   fun:_ZN16ImageLoaderMachO18doModInitFunctionsERKN11ImageLoader11LinkContextE
   fun:_ZN16ImageLoaderMachO16doInitializationERKN11ImageLoader11LinkContextE
   fun:_ZN11ImageLoader23recursiveInitializationERKNS_11LinkContextEjRNS_21InitializerTimingListE
   fun:_ZN11ImageLoader23recursiveInitializationERKNS_11LinkContextEjRNS_21InitializerTimingListE
   fun:_ZN11ImageLoader15runInitializersERKNS_11LinkContextERNS_21InitializerTimingListE
   fun:_ZN4dyld24initializeMainExecutableEv
}
{
   <insert_a_suppression_name_here>
   Memcheck:Cond
   fun:_ZN10TClassEdit10TSplitType9ShortTypeERSsi
   fun:_ZN11TClassTable3AddEPKcsRKSt9type_infoPFvvEi
   fun:_ZN4ROOT17TGenericClassInfoC2EPKciS2_iRKSt9type_infoPKNS_13TInitBehaviorEPFvvEP16TVirtualIsAProxyii
   fun:_ZN4ROOTL25GenerateInitInstanceLocalEPK14TPluginManager
   fun:_ZN4ROOT20GenerateInitInstanceEPK14TPluginManager
   fun:_GLOBAL__I_a
   fun:_ZN16ImageLoaderMachO18doModInitFunctionsERKN11ImageLoader11LinkContextE
   fun:_ZN16ImageLoaderMachO16doInitializationERKN11ImageLoader11LinkContextE
   fun:_ZN11ImageLoader23recursiveInitializationERKNS_11LinkContextEjRNS_21InitializerTimingListE
   fun:_ZN11ImageLoader23recursiveInitializationERKNS_11LinkContextEjRNS_21InitializerTimingListE
   fun:_ZN11ImageLoader15runInitializersERKNS_11LinkContextERNS_21InitializerTimingListE
   fun:_ZN4dyld24initializeMainExecutableEv
}
{
   <insert_a_suppression_name_here>
   Memcheck:Cond
   fun:_ZN10TClassEdit10TSplitType9ShortTypeERSsi
   fun:_ZN11TClassTable3AddEPKcsRKSt9type_infoPFvvEi
   fun:_ZN4ROOT17TGenericClassInfoC2EPKciS2_iRKSt9type_infoPKNS_13TInitBehaviorEPFvvEP16TVirtualIsAProxyii
   fun:_ZN4ROOTL25GenerateInitInstanceLocalEPK10TProcessID
   fun:_ZN4ROOT20GenerateInitInstanceEPK10TProcessID
   fun:_GLOBAL__I_a
   fun:_ZN16ImageLoaderMachO18doModInitFunctionsERKN11ImageLoader11LinkContextE
   fun:_ZN16ImageLoaderMachO16doInitializationERKN11ImageLoader11LinkContextE
   fun:_ZN11ImageLoader23recursiveInitializationERKNS_11LinkContextEjRNS_21InitializerTimingListE
   fun:_ZN11ImageLoader23recursiveInitializationERKNS_11LinkContextEjRNS_21InitializerTimingListE
   fun:_ZN11ImageLoader15runInitializersERKNS_11LinkContextERNS_21InitializerTimingListE
   fun:_ZN4dyld24initializeMainExecutableEv
}
{
   <insert_a_suppression_name_here>
   Memcheck:Cond
   fun:_ZN10TClassEdit10TSplitType9ShortTypeERSsi
   fun:_ZN11TClassTable3AddEPKcsRKSt9type_infoPFvvEi
   fun:_ZN4ROOT17TGenericClassInfoC2EPKciS2_iRKSt9type_infoPKNS_13TInitBehaviorEPFvvEP16TVirtualIsAProxyii
   fun:_ZN4ROOTL25GenerateInitInstanceLocalEPK12TProcessUUID
   fun:_ZN4ROOT20GenerateInitInstanceEPK12TProcessUUID
   fun:_GLOBAL__I_a
   fun:_ZN16ImageLoaderMachO18doModInitFunctionsERKN11ImageLoader11LinkContextE
   fun:_ZN16ImageLoaderMachO16doInitializationERKN11ImageLoader11LinkContextE
   fun:_ZN11ImageLoader23recursiveInitializationERKNS_11LinkContextEjRNS_21InitializerTimingListE
   fun:_ZN11ImageLoader23recursiveInitializationERKNS_11LinkContextEjRNS_21InitializerTimingListE
   fun:_ZN11ImageLoader15runInitializersERKNS_11LinkContextERNS_21InitializerTimingListE
   fun:_ZN4dyld24initializeMainExecutableEv
}
{
   <insert_a_suppression_name_here>
   Memcheck:Cond
   fun:_ZN10TClassEdit10TSplitType9ShortTypeERSsi
   fun:_ZN11TClassTable3AddEPKcsRKSt9type_infoPFvvEi
   fun:_ZN4ROOT17TGenericClassInfoC2EPKciS2_iRKSt9type_infoPKNS_13TInitBehaviorEPFvvEP16TVirtualIsAProxyii
   fun:_ZN4ROOTL25GenerateInitInstanceLocalEPK9TQCommand
   fun:_ZN4ROOT20GenerateInitInstanceEPK9TQCommand
   fun:_GLOBAL__I_a
   fun:_ZN16ImageLoaderMachO18doModInitFunctionsERKN11ImageLoader11LinkContextE
   fun:_ZN16ImageLoaderMachO16doInitializationERKN11ImageLoader11LinkContextE
   fun:_ZN11ImageLoader23recursiveInitializationERKNS_11LinkContextEjRNS_21InitializerTimingListE
   fun:_ZN11ImageLoader23recursiveInitializationERKNS_11LinkContextEjRNS_21InitializerTimingListE
   fun:_ZN11ImageLoader15runInitializersERKNS_11LinkContextERNS_21InitializerTimingListE
   fun:_ZN4dyld24initializeMainExecutableEv
}
{
   <insert_a_suppression_name_here>
   Memcheck:Cond
   fun:_ZN10TClassEdit10TSplitType9ShortTypeERSsi
   fun:_ZN11TClassTable3AddEPKcsRKSt9type_infoPFvvEi
   fun:_ZN4ROOT17TGenericClassInfoC2EPKciS2_iRKSt9type_infoPKNS_13TInitBehaviorEPFvvEP16TVirtualIsAProxyii
   fun:_ZN4ROOTL25GenerateInitInstanceLocalEPK13TQUndoManager
   fun:_ZN4ROOT20GenerateInitInstanceEPK13TQUndoManager
   fun:_GLOBAL__I_a
   fun:_ZN16ImageLoaderMachO18doModInitFunctionsERKN11ImageLoader11LinkContextE
   fun:_ZN16ImageLoaderMachO16doInitializationERKN11ImageLoader11LinkContextE
   fun:_ZN11ImageLoader23recursiveInitializationERKNS_11LinkContextEjRNS_21InitializerTimingListE
   fun:_ZN11ImageLoader23recursiveInitializationERKNS_11LinkContextEjRNS_21InitializerTimingListE
   fun:_ZN11ImageLoader15runInitializersERKNS_11LinkContextERNS_21InitializerTimingListE
   fun:_ZN4dyld24initializeMainExecutableEv
}
{
   <insert_a_suppression_name_here>
   Memcheck:Cond
   fun:_ZN10TClassEdit10TSplitType9ShortTypeERSsi
   fun:_ZN11TClassTable3AddEPKcsRKSt9type_infoPFvvEi
   fun:_ZN4ROOT17TGenericClassInfoC2EPKciS2_iRKSt9type_infoPKNS_13TInitBehaviorEPFvvEP16TVirtualIsAProxyii
   fun:_ZN4ROOTL25GenerateInitInstanceLocalEPK12TQConnection
   fun:_ZN4ROOT20GenerateInitInstanceEPK12TQConnection
   fun:_GLOBAL__I_a
   fun:_ZN16ImageLoaderMachO18doModInitFunctionsERKN11ImageLoader11LinkContextE
   fun:_ZN16ImageLoaderMachO16doInitializationERKN11ImageLoader11LinkContextE
   fun:_ZN11ImageLoader23recursiveInitializationERKNS_11LinkContextEjRNS_21InitializerTimingListE
   fun:_ZN11ImageLoader23recursiveInitializationERKNS_11LinkContextEjRNS_21InitializerTimingListE
   fun:_ZN11ImageLoader15runInitializersERKNS_11LinkContextERNS_21InitializerTimingListE
   fun:_ZN4dyld24initializeMainExecutableEv
}
{
   <insert_a_suppression_name_here>
   Memcheck:Cond
   fun:_ZN10TClassEdit10TSplitType9ShortTypeERSsi
   fun:_ZN11TClassTable3AddEPKcsRKSt9type_infoPFvvEi
   fun:_ZN4ROOT17TGenericClassInfoC2EPKciS2_iRKSt9type_infoPKNS_13TInitBehaviorEPFvvEP16TVirtualIsAProxyii
   fun:_ZN4ROOTL25GenerateInitInstanceLocalEPK8TQObject
   fun:_ZN4ROOT20GenerateInitInstanceEPK8TQObject
   fun:_GLOBAL__I_a
   fun:_ZN16ImageLoaderMachO18doModInitFunctionsERKN11ImageLoader11LinkContextE
   fun:_ZN16ImageLoaderMachO16doInitializationERKN11ImageLoader11LinkContextE
   fun:_ZN11ImageLoader23recursiveInitializationERKNS_11LinkContextEjRNS_21InitializerTimingListE
   fun:_ZN11ImageLoader23recursiveInitializationERKNS_11LinkContextEjRNS_21InitializerTimingListE
   fun:_ZN11ImageLoader15runInitializersERKNS_11LinkContextERNS_21InitializerTimingListE
   fun:_ZN4dyld24initializeMainExecutableEv
}
{
   <insert_a_suppression_name_here>
   Memcheck:Cond
   fun:_ZN10TClassEdit10TSplitType9ShortTypeERSsi
   fun:_ZN11TClassTable3AddEPKcsRKSt9type_infoPFvvEi
   fun:_ZN4ROOT17TGenericClassInfoC2EPKciS2_iRKSt9type_infoPKNS_13TInitBehaviorEPFvvEP16TVirtualIsAProxyii
   fun:_ZN4ROOTL25GenerateInitInstanceLocalEPK11TQObjSender
   fun:_ZN4ROOT20GenerateInitInstanceEPK11TQObjSender
   fun:_GLOBAL__I_a
   fun:_ZN16ImageLoaderMachO18doModInitFunctionsERKN11ImageLoader11LinkContextE
   fun:_ZN16ImageLoaderMachO16doInitializationERKN11ImageLoader11LinkContextE
   fun:_ZN11ImageLoader23recursiveInitializationERKNS_11LinkContextEjRNS_21InitializerTimingListE
   fun:_ZN11ImageLoader23recursiveInitializationERKNS_11LinkContextEjRNS_21InitializerTimingListE
   fun:_ZN11ImageLoader15runInitializersERKNS_11LinkContextERNS_21InitializerTimingListE
   fun:_ZN4dyld24initializeMainExecutableEv
}
{
   <insert_a_suppression_name_here>
   Memcheck:Cond
   fun:G__add_macro
   fun:G__platformMacro
   fun:G__set_stdio
   fun:G__main
   fun:G__init_cint
   fun:_ZN5TCint8ResetAllEv
   fun:_ZN5TCintC2EPKcS1_
   fun:_ZN5TROOTC2EPKcS1_PPFvvE
   fun:_GLOBAL__I_a
   fun:_ZN16ImageLoaderMachO18doModInitFunctionsERKN11ImageLoader11LinkContextE
   fun:_ZN16ImageLoaderMachO16doInitializationERKN11ImageLoader11LinkContextE
   fun:_ZN11ImageLoader23recursiveInitializationERKNS_11LinkContextEjRNS_21InitializerTimingListE
}
{
   <insert_a_suppression_name_here>
   Memcheck:Cond
   fun:_ZL16G__allocvariable8G__valuePS_P12G__var_arrayS2_iiPKcPciRN4Cint19G__DataMemberHandleE
   fun:_Z14G__letvariableR18G__FastAllocString8G__valueP12G__var_arrayS3_RN4Cint19G__DataMemberHandleE
   fun:_Z14G__letvariableR18G__FastAllocString8G__valueP12G__var_arrayS3_
   fun:G__getexpr
   fun:G__add_macro
   fun:G__platformMacro
   fun:G__set_stdio
   fun:G__main
   fun:G__init_cint
   fun:_ZN5TCint8ResetAllEv
   fun:_ZN5TCintC2EPKcS1_
   fun:_ZN5TROOTC2EPKcS1_PPFvvE
}
{
   <insert_a_suppression_name_here>
   Memcheck:Cond
   fun:G__defined_tagname
   fun:G__search_typename
   fun:G__search_typename2
   fun:G__platformMacro
   fun:G__set_stdio
   fun:G__main
   fun:G__init_cint
   fun:_ZN5TCint8ResetAllEv
   fun:_ZN5TCintC2EPKcS1_
   fun:_ZN5TROOTC2EPKcS1_PPFvvE
   fun:_GLOBAL__I_a
   fun:_ZN16ImageLoaderMachO18doModInitFunctionsERKN11ImageLoader11LinkContextE
}
{
   <insert_a_suppression_name_here>
   Memcheck:Cond
   fun:_ZL16G__allocvariable8G__valuePS_P12G__var_arrayS2_iiPKcPciRN4Cint19G__DataMemberHandleE
   fun:_Z14G__letvariableR18G__FastAllocString8G__valueP12G__var_arrayS3_RN4Cint19G__DataMemberHandleE
   fun:_Z14G__letvariableR18G__FastAllocString8G__valueP12G__var_arrayS3_
   fun:G__define
   fun:G__exec_statement
   fun:G__exec_tempfile_core
   fun:G__exec_tempfile_fp
   fun:G__process_cmd
   fun:_ZN5TCint11ProcessLineEPKcPN12TInterpreter10EErrorCodeE
   fun:_ZN5TCintC2EPKcS1_
   fun:_ZN5TROOTC2EPKcS1_PPFvvE
   fun:_GLOBAL__I_a
}
{
   <insert_a_suppression_name_here>
   Memcheck:Cond
   fun:G__add_ipath
   fun:_ZN5TCintC2EPKcS1_
   fun:_ZN5TROOTC2EPKcS1_PPFvvE
   fun:_GLOBAL__I_a
   fun:_ZN16ImageLoaderMachO18doModInitFunctionsERKN11ImageLoader11LinkContextE
   fun:_ZN16ImageLoaderMachO16doInitializationERKN11ImageLoader11LinkContextE
   fun:_ZN11ImageLoader23recursiveInitializationERKNS_11LinkContextEjRNS_21InitializerTimingListE
   fun:_ZN11ImageLoader23recursiveInitializationERKNS_11LinkContextEjRNS_21InitializerTimingListE
   fun:_ZN11ImageLoader15runInitializersERKNS_11LinkContextERNS_21InitializerTimingListE
   fun:_ZN4dyld24initializeMainExecutableEv
   fun:_ZN4dyld5_mainEPK12macho_headermiPPKcS5_S5_Pm
   fun:_ZN13dyldbootstrap5startEPK12macho_headeriPPKclS2_Pm
}
{
   <insert_a_suppression_name_here>
   Memcheck:Cond
   fun:_ZN11TUnixSystem8FindFileEPKcR7TString11EAccessMode
   fun:_ZN7TSystem5WhichEPKcS1_11EAccessMode
   fun:_ZN5TCintC2EPKcS1_
   fun:_ZN5TROOTC2EPKcS1_PPFvvE
   fun:_GLOBAL__I_a
   fun:_ZN16ImageLoaderMachO18doModInitFunctionsERKN11ImageLoader11LinkContextE
   fun:_ZN16ImageLoaderMachO16doInitializationERKN11ImageLoader11LinkContextE
   fun:_ZN11ImageLoader23recursiveInitializationERKNS_11LinkContextEjRNS_21InitializerTimingListE
   fun:_ZN11ImageLoader23recursiveInitializationERKNS_11LinkContextEjRNS_21InitializerTimingListE
   fun:_ZN11ImageLoader15runInitializersERKNS_11LinkContextERNS_21InitializerTimingListE
   fun:_ZN4dyld24initializeMainExecutableEv
   fun:_ZN4dyld5_mainEPK12macho_headermiPPKcS5_S5_Pm
}
{
   <insert_a_suppression_name_here>
   Memcheck:Value8
   fun:_simple_salloc
   fun:_ZN4dyld9mkstringfEPKcz
   fun:dlopen_preflight
   fun:dlopen_preflight
   fun:G__loadfile
   fun:G__include_file
   fun:G__exec_statement
   fun:G__exec_tempfile_core
   fun:G__exec_tempfile_fp
   fun:G__process_cmd
   fun:_ZN5TCint11ProcessLineEPKcPN12TInterpreter10EErrorCodeE
   fun:_ZN5TCintC2EPKcS1_
}
{
   <insert_a_suppression_name_here>
   Memcheck:Cond
   fun:_ZN4dyld9mkstringfEPKcz
   fun:dlopen_preflight
   fun:dlopen_preflight
   fun:G__loadfile
   fun:G__include_file
   fun:G__exec_statement
   fun:G__exec_tempfile_core
   fun:G__exec_tempfile_fp
   fun:G__process_cmd
   fun:_ZN5TCint11ProcessLineEPKcPN12TInterpreter10EErrorCodeE
   fun:_ZN5TCintC2EPKcS1_
   fun:_ZN5TROOTC2EPKcS1_PPFvvE
}
{
   <insert_a_suppression_name_here>
   Memcheck:Value8
   fun:__simple_bprintf
   fun:_simple_vsprintf
   fun:_ZN4dyld9mkstringfEPKcz
   fun:dlopen_preflight
   fun:dlopen_preflight
   fun:G__loadfile
   fun:G__include_file
   fun:G__exec_statement
   fun:G__exec_tempfile_core
   fun:G__exec_tempfile_fp
   fun:G__process_cmd
   fun:_ZN5TCint11ProcessLineEPKcPN12TInterpreter10EErrorCodeE
}
{
   <insert_a_suppression_name_here>
   Memcheck:Cond
   fun:__simple_bprintf
   fun:_simple_vsprintf
   fun:_ZN4dyld9mkstringfEPKcz
   fun:dlopen_preflight
   fun:dlopen_preflight
   fun:G__loadfile
   fun:G__include_file
   fun:G__exec_statement
   fun:G__exec_tempfile_core
   fun:G__exec_tempfile_fp
   fun:G__process_cmd
   fun:_ZN5TCint11ProcessLineEPKcPN12TInterpreter10EErrorCodeE
}
{
   <insert_a_suppression_name_here>
   Memcheck:Value8
   fun:_simple_string
   fun:_ZN4dyld9mkstringfEPKcz
   fun:dlopen_preflight
   fun:dlopen_preflight
   fun:G__loadfile
   fun:G__include_file
   fun:G__exec_statement
   fun:G__exec_tempfile_core
   fun:G__exec_tempfile_fp
   fun:G__process_cmd
   fun:_ZN5TCint11ProcessLineEPKcPN12TInterpreter10EErrorCodeE
   fun:_ZN5TCintC2EPKcS1_
}
{
   <insert_a_suppression_name_here>
   Memcheck:Value8
   obj:*
   fun:_ZN4dyld9mkstringfEPKcz
   fun:dlopen_preflight
   fun:dlopen_preflight
   fun:G__loadfile
   fun:G__include_file
   fun:G__exec_statement
   fun:G__exec_tempfile_core
   fun:G__exec_tempfile_fp
   fun:G__process_cmd
   fun:_ZN5TCint11ProcessLineEPKcPN12TInterpreter10EErrorCodeE
   fun:_ZN5TCintC2EPKcS1_
}
{
   <insert_a_suppression_name_here>
   Memcheck:Cond
   fun:malloc
   fun:malloc
   fun:strdup
   fun:_ZN4dyld9mkstringfEPKcz
   fun:dlopen_preflight
   fun:dlopen_preflight
   fun:G__loadfile
   fun:G__include_file
   fun:G__exec_statement
   fun:G__exec_tempfile_core
   fun:G__exec_tempfile_fp
   fun:G__process_cmd
}
{
   <insert_a_suppression_name_here>
   Memcheck:Cond
   fun:memcpy
   fun:strdup
   fun:_ZN4dyld9mkstringfEPKcz
   fun:dlopen_preflight
   fun:dlopen_preflight
   fun:G__loadfile
   fun:G__include_file
   fun:G__exec_statement
   fun:G__exec_tempfile_core
   fun:G__exec_tempfile_fp
   fun:G__process_cmd
   fun:_ZN5TCint11ProcessLineEPKcPN12TInterpreter10EErrorCodeE
}
{
   <insert_a_suppression_name_here>
   Memcheck:Value8
   fun:memcpy
   fun:strdup
   fun:_ZN4dyld9mkstringfEPKcz
   fun:dlopen_preflight
   fun:dlopen_preflight
   fun:G__loadfile
   fun:G__include_file
   fun:G__exec_statement
   fun:G__exec_tempfile_core
   fun:G__exec_tempfile_fp
   fun:G__process_cmd
   fun:_ZN5TCint11ProcessLineEPKcPN12TInterpreter10EErrorCodeE
}
{
   <insert_a_suppression_name_here>
   Memcheck:Cond
   fun:_simple_sfree
   fun:_ZN4dyld9mkstringfEPKcz
   fun:dlopen_preflight
   fun:dlopen_preflight
   fun:G__loadfile
   fun:G__include_file
   fun:G__exec_statement
   fun:G__exec_tempfile_core
   fun:G__exec_tempfile_fp
   fun:G__process_cmd
   fun:_ZN5TCint11ProcessLineEPKcPN12TInterpreter10EErrorCodeE
   fun:_ZN5TCintC2EPKcS1_
}
{
   <insert_a_suppression_name_here>
   Memcheck:Value8
   fun:_simple_sfree
   fun:_ZN4dyld9mkstringfEPKcz
   fun:dlopen_preflight
   fun:dlopen_preflight
   fun:G__loadfile
   fun:G__include_file
   fun:G__exec_statement
   fun:G__exec_tempfile_core
   fun:G__exec_tempfile_fp
   fun:G__process_cmd
   fun:_ZN5TCint11ProcessLineEPKcPN12TInterpreter10EErrorCodeE
   fun:_ZN5TCintC2EPKcS1_
}
{
   <insert_a_suppression_name_here>
   Memcheck:Cond
   fun:G__defined_tagname
   fun:_Z18G__make_ifunctableR18G__FastAllocString
   fun:G__exec_statement
   fun:G__define_struct
   fun:G__exec_statement
   fun:G__loadfile
   fun:G__include_file
   fun:G__exec_statement
   fun:G__exec_tempfile_core
   fun:G__exec_tempfile_fp
   fun:G__process_cmd
   fun:_ZN5TCint11ProcessLineEPKcPN12TInterpreter10EErrorCodeE
}
{
   <insert_a_suppression_name_here>
   Memcheck:Cond
   fun:_Z22G__rename_templatefuncR18G__FastAllocString
   fun:_Z18G__make_ifunctableR18G__FastAllocString
   fun:G__exec_statement
   fun:G__define_struct
   fun:G__exec_statement
   fun:G__loadfile
   fun:G__include_file
   fun:G__exec_statement
   fun:G__exec_tempfile_core
   fun:G__exec_tempfile_fp
   fun:G__process_cmd
   fun:_ZN5TCint11ProcessLineEPKcPN12TInterpreter10EErrorCodeE
}
{
   <insert_a_suppression_name_here>
   Memcheck:Cond
   fun:G__defined_tagname
   fun:G__define_var
   fun:G__exec_statement
   fun:G__loadfile
   fun:G__include_file
   fun:G__exec_statement
   fun:G__exec_tempfile_core
   fun:G__exec_tempfile_fp
   fun:G__process_cmd
   fun:_ZN5TCint11ProcessLineEPKcPN12TInterpreter10EErrorCodeE
   fun:_ZN5TCintC2EPKcS1_
   fun:_ZN5TROOTC2EPKcS1_PPFvvE
}
{
   <insert_a_suppression_name_here>
   Memcheck:Cond
   fun:G__istypename
   fun:G__define_var
   fun:G__exec_statement
   fun:G__loadfile
   fun:G__include_file
   fun:G__exec_statement
   fun:G__exec_tempfile_core
   fun:G__exec_tempfile_fp
   fun:G__process_cmd
   fun:_ZN5TCint11ProcessLineEPKcPN12TInterpreter10EErrorCodeE
   fun:_ZN5TCintC2EPKcS1_
   fun:_ZN5TROOTC2EPKcS1_PPFvvE
}
{
   <insert_a_suppression_name_here>
   Memcheck:Cond
   fun:G__defined_tagname
   fun:G__istypename
   fun:G__define_var
   fun:G__exec_statement
   fun:G__loadfile
   fun:G__include_file
   fun:G__exec_statement
   fun:G__exec_tempfile_core
   fun:G__exec_tempfile_fp
   fun:G__process_cmd
   fun:_ZN5TCint11ProcessLineEPKcPN12TInterpreter10EErrorCodeE
   fun:_ZN5TCintC2EPKcS1_
}
{
   <insert_a_suppression_name_here>
   Memcheck:Cond
   fun:G__istypename
   fun:_Z18G__make_ifunctableR18G__FastAllocString
   fun:G__define_var
   fun:G__exec_statement
   fun:G__loadfile
   fun:G__include_file
   fun:G__exec_statement
   fun:G__exec_tempfile_core
   fun:G__exec_tempfile_fp
   fun:G__process_cmd
   fun:_ZN5TCint11ProcessLineEPKcPN12TInterpreter10EErrorCodeE
   fun:_ZN5TCintC2EPKcS1_
}
{
   <insert_a_suppression_name_here>
   Memcheck:Cond
   fun:G__defined_tagname
   fun:G__istypename
   fun:_Z18G__make_ifunctableR18G__FastAllocString
   fun:G__define_var
   fun:G__exec_statement
   fun:G__loadfile
   fun:G__include_file
   fun:G__exec_statement
   fun:G__exec_tempfile_core
   fun:G__exec_tempfile_fp
   fun:G__process_cmd
   fun:_ZN5TCint11ProcessLineEPKcPN12TInterpreter10EErrorCodeE
}
{
   <insert_a_suppression_name_here>
   Memcheck:Cond
   fun:G__defined_tagname
   fun:_Z18G__make_ifunctableR18G__FastAllocString
   fun:G__define_var
   fun:G__exec_statement
   fun:G__loadfile
   fun:G__include_file
   fun:G__exec_statement
   fun:G__exec_tempfile_core
   fun:G__exec_tempfile_fp
   fun:G__process_cmd
   fun:_ZN5TCint11ProcessLineEPKcPN12TInterpreter10EErrorCodeE
   fun:_ZN5TCintC2EPKcS1_
}
{
   <insert_a_suppression_name_here>
   Memcheck:Cond
   fun:_Z18G__make_ifunctableR18G__FastAllocString
   fun:G__define_var
   fun:G__exec_statement
   fun:G__loadfile
   fun:G__include_file
   fun:G__exec_statement
   fun:G__exec_tempfile_core
   fun:G__exec_tempfile_fp
   fun:G__process_cmd
   fun:_ZN5TCint11ProcessLineEPKcPN12TInterpreter10EErrorCodeE
   fun:_ZN5TCintC2EPKcS1_
   fun:_ZN5TROOTC2EPKcS1_PPFvvE
}
{
   <insert_a_suppression_name_here>
   Memcheck:Cond
   fun:G__defined_tagname
   fun:G__exec_statement
   fun:G__loadfile
   fun:G__include_file
   fun:G__exec_statement
   fun:G__exec_tempfile_core
   fun:G__exec_tempfile_fp
   fun:G__process_cmd
   fun:_ZN5TCint11ProcessLineEPKcPN12TInterpreter10EErrorCodeE
   fun:_ZN5TCintC2EPKcS1_
   fun:_ZN5TROOTC2EPKcS1_PPFvvE
   fun:_GLOBAL__I_a
}
{
   <insert_a_suppression_name_here>
   Memcheck:Cond
   fun:G__getfunction
   fun:G__define_var
   fun:G__exec_statement
   fun:G__loadfile
   fun:G__include_file
   fun:G__exec_statement
   fun:G__exec_tempfile_core
   fun:G__exec_tempfile_fp
   fun:G__process_cmd
   fun:_ZN5TCint11ProcessLineEPKcPN12TInterpreter10EErrorCodeE
   fun:_ZN5TCintC2EPKcS1_
   fun:_ZN5TROOTC2EPKcS1_PPFvvE
}
{
   <insert_a_suppression_name_here>
   Memcheck:Cond
   fun:_Z22G__rename_templatefuncR18G__FastAllocString
   fun:G__getfunction
   fun:G__define_var
   fun:G__exec_statement
   fun:G__loadfile
   fun:G__include_file
   fun:G__exec_statement
   fun:G__exec_tempfile_core
   fun:G__exec_tempfile_fp
   fun:G__process_cmd
   fun:_ZN5TCint11ProcessLineEPKcPN12TInterpreter10EErrorCodeE
   fun:_ZN5TCintC2EPKcS1_
}
{
   <insert_a_suppression_name_here>
   Memcheck:Cond
   fun:G__add_templatefunc
   fun:G__overload_match
   fun:G__interpret_func
   fun:G__getfunction
   fun:G__define_var
   fun:G__exec_statement
   fun:G__loadfile
   fun:G__include_file
   fun:G__exec_statement
   fun:G__exec_tempfile_core
   fun:G__exec_tempfile_fp
   fun:G__process_cmd
}
{
   <insert_a_suppression_name_here>
   Memcheck:Cond
   fun:_ZN7TString4GetsEP7__sFILEb
   fun:_ZN5TROOT11ReadSvnInfoEv
   fun:_ZN5TROOTC2EPKcS1_PPFvvE
   fun:_GLOBAL__I_a
   fun:_ZN16ImageLoaderMachO18doModInitFunctionsERKN11ImageLoader11LinkContextE
   fun:_ZN16ImageLoaderMachO16doInitializationERKN11ImageLoader11LinkContextE
   fun:_ZN11ImageLoader23recursiveInitializationERKNS_11LinkContextEjRNS_21InitializerTimingListE
   fun:_ZN11ImageLoader23recursiveInitializationERKNS_11LinkContextEjRNS_21InitializerTimingListE
   fun:_ZN11ImageLoader15runInitializersERKNS_11LinkContextERNS_21InitializerTimingListE
   fun:_ZN4dyld24initializeMainExecutableEv
   fun:_ZN4dyld5_mainEPK12macho_headermiPPKcS5_S5_Pm
   fun:_ZN13dyldbootstrap5startEPK12macho_headeriPPKclS2_Pm
}
{
   <insert_a_suppression_name_here>
   Memcheck:Cond
   fun:_ZN6TStyle18SetLineStyleStringEiPKc
   fun:_ZN6TStyle5ResetEPKc
   fun:_ZN6TStyleC2EPKcS1_
   fun:_ZN6TStyle11BuildStylesEv
   fun:_ZN5TROOTC2EPKcS1_PPFvvE
   fun:_GLOBAL__I_a
   fun:_ZN16ImageLoaderMachO18doModInitFunctionsERKN11ImageLoader11LinkContextE
   fun:_ZN16ImageLoaderMachO16doInitializationERKN11ImageLoader11LinkContextE
   fun:_ZN11ImageLoader23recursiveInitializationERKNS_11LinkContextEjRNS_21InitializerTimingListE
   fun:_ZN11ImageLoader23recursiveInitializationERKNS_11LinkContextEjRNS_21InitializerTimingListE
   fun:_ZN11ImageLoader15runInitializersERKNS_11LinkContextERNS_21InitializerTimingListE
   fun:_ZN4dyld24initializeMainExecutableEv
}
{
   <insert_a_suppression_name_here>
   Memcheck:Cond
   fun:_ZN10TClassEdit10TSplitType9ShortTypeERSsi
   fun:_ZN6TClass8GetClassEPKcbb
   fun:_ZN6TClass7AddRuleEPKc
   fun:_ZN12_GLOBAL__N_116ReadRulesContentEP7__sFILE
   fun:_ZN6TClass9ReadRulesEv
   fun:_ZN5TROOTC2EPKcS1_PPFvvE
   fun:_GLOBAL__I_a
   fun:_ZN16ImageLoaderMachO18doModInitFunctionsERKN11ImageLoader11LinkContextE
   fun:_ZN16ImageLoaderMachO16doInitializationERKN11ImageLoader11LinkContextE
   fun:_ZN11ImageLoader23recursiveInitializationERKNS_11LinkContextEjRNS_21InitializerTimingListE
   fun:_ZN11ImageLoader23recursiveInitializationERKNS_11LinkContextEjRNS_21InitializerTimingListE
   fun:_ZN11ImageLoader15runInitializersERKNS_11LinkContextERNS_21InitializerTimingListE
}
{
   <insert_a_suppression_name_here>
   Memcheck:Cond
   fun:_ZN10TClassEdit10TSplitType9ShortTypeERSsi
   fun:_ZN11TClassTable11FindElementEPKcb
   fun:_ZN11TClassTable7GetDictEPKc
   fun:_ZNK5TROOT9LoadClassEPKcb
   fun:_ZN6TClass8GetClassEPKcbb
   fun:_ZN6TClass7AddRuleEPKc
   fun:_ZN12_GLOBAL__N_116ReadRulesContentEP7__sFILE
   fun:_ZN6TClass9ReadRulesEv
   fun:_ZN5TROOTC2EPKcS1_PPFvvE
   fun:_GLOBAL__I_a
   fun:_ZN16ImageLoaderMachO18doModInitFunctionsERKN11ImageLoader11LinkContextE
   fun:_ZN16ImageLoaderMachO16doInitializationERKN11ImageLoader11LinkContextE
}
{
   <insert_a_suppression_name_here>
   Memcheck:Cond
   fun:_ZN10TClassEdit14ResolveTypedefEPKcb
   fun:_ZNK5TROOT9LoadClassEPKcb
   fun:_ZN6TClass8GetClassEPKcbb
   fun:_ZN6TClass7AddRuleEPKc
   fun:_ZN12_GLOBAL__N_116ReadRulesContentEP7__sFILE
   fun:_ZN6TClass9ReadRulesEv
   fun:_ZN5TROOTC2EPKcS1_PPFvvE
   fun:_GLOBAL__I_a
   fun:_ZN16ImageLoaderMachO18doModInitFunctionsERKN11ImageLoader11LinkContextE
   fun:_ZN16ImageLoaderMachO16doInitializationERKN11ImageLoader11LinkContextE
   fun:_ZN11ImageLoader23recursiveInitializationERKNS_11LinkContextEjRNS_21InitializerTimingListE
   fun:_ZN11ImageLoader23recursiveInitializationERKNS_11LinkContextEjRNS_21InitializerTimingListE
}
{
   <insert_a_suppression_name_here>
   Memcheck:Cond
   fun:_ZN10TClassEdit8GetSplitEPKcRSt6vectorISsSaISsEERiNS_8EModTypeE
   fun:_ZN10TClassEdit9ShortTypeEPKci
   fun:_ZN6TClass4InitEPKcsPKSt9type_infoP16TVirtualIsAProxyPFvPvR16TMemberInspectorES1_S1_iib
   fun:_ZN6TClassC2EPKcsS1_S1_iib
   fun:_ZN6TClass7AddRuleEPKc
   fun:_ZN12_GLOBAL__N_116ReadRulesContentEP7__sFILE
   fun:_ZN6TClass9ReadRulesEv
   fun:_ZN5TROOTC2EPKcS1_PPFvvE
   fun:_GLOBAL__I_a
   fun:_ZN16ImageLoaderMachO18doModInitFunctionsERKN11ImageLoader11LinkContextE
   fun:_ZN16ImageLoaderMachO16doInitializationERKN11ImageLoader11LinkContextE
   fun:_ZN11ImageLoader23recursiveInitializationERKNS_11LinkContextEjRNS_21InitializerTimingListE
}
{
   <insert_a_suppression_name_here>
   Memcheck:Cond
   fun:_ZN10TClassEdit10TSplitType9ShortTypeERSsi
   fun:_ZN10TClassEdit9ShortTypeEPKci
   fun:_ZN6TClass4InitEPKcsPKSt9type_infoP16TVirtualIsAProxyPFvPvR16TMemberInspectorES1_S1_iib
   fun:_ZN6TClassC2EPKcsS1_S1_iib
   fun:_ZN6TClass7AddRuleEPKc
   fun:_ZN12_GLOBAL__N_116ReadRulesContentEP7__sFILE
   fun:_ZN6TClass9ReadRulesEv
   fun:_ZN5TROOTC2EPKcS1_PPFvvE
   fun:_GLOBAL__I_a
   fun:_ZN16ImageLoaderMachO18doModInitFunctionsERKN11ImageLoader11LinkContextE
   fun:_ZN16ImageLoaderMachO16doInitializationERKN11ImageLoader11LinkContextE
   fun:_ZN11ImageLoader23recursiveInitializationERKNS_11LinkContextEjRNS_21InitializerTimingListE
}
{
   <insert_a_suppression_name_here>
   Memcheck:Cond
   fun:_ZN10TClassEdit9IsSTLContEPKci
   fun:_ZN6TClass4InitEPKcsPKSt9type_infoP16TVirtualIsAProxyPFvPvR16TMemberInspectorES1_S1_iib
   fun:_ZN6TClassC2EPKcsS1_S1_iib
   fun:_ZN6TClass7AddRuleEPKc
   fun:_ZN12_GLOBAL__N_116ReadRulesContentEP7__sFILE
   fun:_ZN6TClass9ReadRulesEv
   fun:_ZN5TROOTC2EPKcS1_PPFvvE
   fun:_GLOBAL__I_a
   fun:_ZN16ImageLoaderMachO18doModInitFunctionsERKN11ImageLoader11LinkContextE
   fun:_ZN16ImageLoaderMachO16doInitializationERKN11ImageLoader11LinkContextE
   fun:_ZN11ImageLoader23recursiveInitializationERKNS_11LinkContextEjRNS_21InitializerTimingListE
   fun:_ZN11ImageLoader23recursiveInitializationERKNS_11LinkContextEjRNS_21InitializerTimingListE
}
{
   <insert_a_suppression_name_here>
   Memcheck:Cond
   fun:_ZN6TClass4InitEPKcsPKSt9type_infoP16TVirtualIsAProxyPFvPvR16TMemberInspectorES1_S1_iib
   fun:_ZN6TClassC2EPKcsS1_S1_iib
   fun:_ZN6TClass7AddRuleEPKc
   fun:_ZN12_GLOBAL__N_116ReadRulesContentEP7__sFILE
   fun:_ZN6TClass9ReadRulesEv
   fun:_ZN5TROOTC2EPKcS1_PPFvvE
   fun:_GLOBAL__I_a
   fun:_ZN16ImageLoaderMachO18doModInitFunctionsERKN11ImageLoader11LinkContextE
   fun:_ZN16ImageLoaderMachO16doInitializationERKN11ImageLoader11LinkContextE
   fun:_ZN11ImageLoader23recursiveInitializationERKNS_11LinkContextEjRNS_21InitializerTimingListE
   fun:_ZN11ImageLoader23recursiveInitializationERKNS_11LinkContextEjRNS_21InitializerTimingListE
   fun:_ZN11ImageLoader15runInitializersERKNS_11LinkContextERNS_21InitializerTimingListE
}
{
   <insert_a_suppression_name_here>
   Memcheck:Cond
   fun:_ZN5TCint19UpdateClassInfoWorkEPKcl
   fun:_ZN5TCint15UpdateClassInfoEPcl
   fun:G__search_tagname
   fun:G__get_linked_tagnum_fwd
   fun:G__cpp_setup_tagtableG__Base1
   fun:G__cpp_setupG__Base1
   fun:G__call_setup_funcs
   fun:_ZN25G__cpp_setup_initG__Base1C2Ev
   fun:_ZN25G__cpp_setup_initG__Base1C1Ev
   fun:__cxx_global_var_init709
   fun:_GLOBAL__I_a
   fun:_ZN16ImageLoaderMachO18doModInitFunctionsERKN11ImageLoader11LinkContextE
}
{
   <insert_a_suppression_name_here>
   Memcheck:Cond
   fun:G__defined_typename_noerror
   fun:G__defined_tagname
   fun:G__search_tagname
   fun:G__get_linked_tagnum_fwd
   fun:G__cpp_setup_tagtableG__Base1
   fun:G__cpp_setupG__Base1
   fun:G__call_setup_funcs
   fun:_ZN25G__cpp_setup_initG__Base1C2Ev
   fun:_ZN25G__cpp_setup_initG__Base1C1Ev
   fun:__cxx_global_var_init709
   fun:_GLOBAL__I_a
   fun:_ZN16ImageLoaderMachO18doModInitFunctionsERKN11ImageLoader11LinkContextE
}
{
   <insert_a_suppression_name_here>
   Memcheck:Cond
   fun:_ZN18G__FastAllocStringaSEPKc
   fun:G__defined_typename_noerror
   fun:G__defined_tagname
   fun:G__search_tagname
   fun:G__get_linked_tagnum_fwd
   fun:G__cpp_setup_tagtableG__Base1
   fun:G__cpp_setupG__Base1
   fun:G__call_setup_funcs
   fun:_ZN25G__cpp_setup_initG__Base1C2Ev
   fun:_ZN25G__cpp_setup_initG__Base1C1Ev
   fun:__cxx_global_var_init709
   fun:_GLOBAL__I_a
}
{
   <insert_a_suppression_name_here>
   Memcheck:Value8
   fun:strlen
   fun:_ZN18G__FastAllocStringaSEPKc
   fun:G__defined_typename_noerror
   fun:G__defined_tagname
   fun:G__search_tagname
   fun:G__get_linked_tagnum_fwd
   fun:G__cpp_setup_tagtableG__Base1
   fun:G__cpp_setupG__Base1
   fun:G__call_setup_funcs
   fun:_ZN25G__cpp_setup_initG__Base1C2Ev
   fun:_ZN25G__cpp_setup_initG__Base1C1Ev
   fun:__cxx_global_var_init709
}
{
   <insert_a_suppression_name_here>
   Memcheck:Value8
   fun:_platform_memmove$VARIANT$Nehalem
   fun:_ZN18G__FastAllocStringaSEPKc
   fun:G__defined_typename_noerror
   fun:G__defined_tagname
   fun:G__search_tagname
   fun:G__get_linked_tagnum_fwd
   fun:G__cpp_setup_tagtableG__Base1
   fun:G__cpp_setupG__Base1
   fun:G__call_setup_funcs
   fun:_ZN25G__cpp_setup_initG__Base1C2Ev
   fun:_ZN25G__cpp_setup_initG__Base1C1Ev
   fun:__cxx_global_var_init709
}
{
   <insert_a_suppression_name_here>
   Memcheck:Value8
   fun:G__defined_typename_noerror
   fun:G__defined_tagname
   fun:G__search_tagname
   fun:G__get_linked_tagnum_fwd
   fun:G__cpp_setup_tagtableG__Base1
   fun:G__cpp_setupG__Base1
   fun:G__call_setup_funcs
   fun:_ZN25G__cpp_setup_initG__Base1C2Ev
   fun:_ZN25G__cpp_setup_initG__Base1C1Ev
   fun:__cxx_global_var_init709
   fun:_GLOBAL__I_a
   fun:_ZN16ImageLoaderMachO18doModInitFunctionsERKN11ImageLoader11LinkContextE
}
{
   <insert_a_suppression_name_here>
   Memcheck:Cond
   fun:_ZNSs12_S_constructIPcEES0_T_S1_RKSaIcESt20forward_iterator_tag
   fun:_ZNSsC2ERKSsmm
   fun:_ZN10TClassEdit8GetSplitEPKcRSt6vectorISsSaISsEERiNS_8EModTypeE
   fun:_ZN10TClassEdit9ShortTypeEPKci
   fun:_ZN10TClassEdit10TSplitType9ShortTypeERSsi
   fun:_ZN6TClass8GetClassEPKcbb
   fun:_ZN5TCint19UpdateClassInfoWorkEPKcl
   fun:_ZN5TCint15UpdateClassInfoEPcl
   fun:G__search_tagname
   fun:G__get_linked_tagnum_fwd
   fun:G__cpp_setup_tagtableG__Base1
   fun:G__cpp_setupG__Base1
}
{
   <insert_a_suppression_name_here>
   Memcheck:Cond
   fun:_ZNSs4_Rep9_S_createEmmRKSaIcE
   fun:_ZNSs12_S_constructIPcEES0_T_S1_RKSaIcESt20forward_iterator_tag
   fun:_ZNSsC2ERKSsmm
   fun:_ZN10TClassEdit8GetSplitEPKcRSt6vectorISsSaISsEERiNS_8EModTypeE
   fun:_ZN10TClassEdit9ShortTypeEPKci
   fun:_ZN10TClassEdit10TSplitType9ShortTypeERSsi
   fun:_ZN6TClass8GetClassEPKcbb
   fun:_ZN5TCint19UpdateClassInfoWorkEPKcl
   fun:_ZN5TCint15UpdateClassInfoEPcl
   fun:G__search_tagname
   fun:G__get_linked_tagnum_fwd
   fun:G__cpp_setup_tagtableG__Base1
}
{
   <insert_a_suppression_name_here>
   Memcheck:Cond
   fun:malloc
   fun:_Znwm
   fun:_ZNSs12_S_constructIPcEES0_T_S1_RKSaIcESt20forward_iterator_tag
   fun:_ZNSsC2ERKSsmm
   fun:_ZN10TClassEdit8GetSplitEPKcRSt6vectorISsSaISsEERiNS_8EModTypeE
   fun:_ZN10TClassEdit9ShortTypeEPKci
   fun:_ZN10TClassEdit10TSplitType9ShortTypeERSsi
   fun:_ZN6TClass8GetClassEPKcbb
   fun:_ZN5TCint19UpdateClassInfoWorkEPKcl
   fun:_ZN5TCint15UpdateClassInfoEPcl
   fun:G__search_tagname
   fun:G__get_linked_tagnum_fwd
}
{
   <insert_a_suppression_name_here>
   Memcheck:Value8
   fun:_ZNSs12_S_constructIPcEES0_T_S1_RKSaIcESt20forward_iterator_tag
   fun:_ZNSsC2ERKSsmm
   fun:_ZN10TClassEdit8GetSplitEPKcRSt6vectorISsSaISsEERiNS_8EModTypeE
   fun:_ZN10TClassEdit9ShortTypeEPKci
   fun:_ZN10TClassEdit10TSplitType9ShortTypeERSsi
   fun:_ZN6TClass8GetClassEPKcbb
   fun:_ZN5TCint19UpdateClassInfoWorkEPKcl
   fun:_ZN5TCint15UpdateClassInfoEPcl
   fun:G__search_tagname
   fun:G__get_linked_tagnum_fwd
   fun:G__cpp_setup_tagtableG__Base1
   fun:G__cpp_setupG__Base1
}
{
   <insert_a_suppression_name_here>
   Memcheck:Value8
   fun:_ZN10TClassEdit8GetSplitEPKcRSt6vectorISsSaISsEERiNS_8EModTypeE
   fun:_ZN10TClassEdit9ShortTypeEPKci
   fun:_ZN10TClassEdit10TSplitType9ShortTypeERSsi
   fun:_ZN6TClass8GetClassEPKcbb
   fun:_ZN5TCint19UpdateClassInfoWorkEPKcl
   fun:_ZN5TCint15UpdateClassInfoEPcl
   fun:G__search_tagname
   fun:G__get_linked_tagnum_fwd
   fun:G__cpp_setup_tagtableG__Base1
   fun:G__cpp_setupG__Base1
   fun:G__call_setup_funcs
   fun:_ZN25G__cpp_setup_initG__Base1C2Ev
}
{
   <insert_a_suppression_name_here>
   Memcheck:Cond
   fun:_ZN10TClassEdit8GetSplitEPKcRSt6vectorISsSaISsEERiNS_8EModTypeE
   fun:_ZN10TClassEdit9ShortTypeEPKci
   fun:_ZN10TClassEdit10TSplitType9ShortTypeERSsi
   fun:_ZN6TClass8GetClassEPKcbb
   fun:_ZN5TCint19UpdateClassInfoWorkEPKcl
   fun:_ZN5TCint15UpdateClassInfoEPcl
   fun:G__search_tagname
   fun:G__get_linked_tagnum_fwd
   fun:G__cpp_setup_tagtableG__Base1
   fun:G__cpp_setupG__Base1
   fun:G__call_setup_funcs
   fun:_ZN25G__cpp_setup_initG__Base1C2Ev
}
{
   <insert_a_suppression_name_here>
   Memcheck:Cond
   fun:_ZNSs4_Rep9_S_createEmmRKSaIcE
   fun:_ZN10TClassEdit8GetSplitEPKcRSt6vectorISsSaISsEERiNS_8EModTypeE
   fun:_ZN10TClassEdit9ShortTypeEPKci
   fun:_ZN10TClassEdit10TSplitType9ShortTypeERSsi
   fun:_ZN6TClass8GetClassEPKcbb
   fun:_ZN5TCint19UpdateClassInfoWorkEPKcl
   fun:_ZN5TCint15UpdateClassInfoEPcl
   fun:G__search_tagname
   fun:G__get_linked_tagnum_fwd
   fun:G__cpp_setup_tagtableG__Base1
   fun:G__cpp_setupG__Base1
   fun:G__call_setup_funcs
}
{
   <insert_a_suppression_name_here>
   Memcheck:Value8
   fun:_platform_memmove$VARIANT$Nehalem
   fun:_ZN10TClassEdit8GetSplitEPKcRSt6vectorISsSaISsEERiNS_8EModTypeE
   fun:_ZN10TClassEdit9ShortTypeEPKci
   fun:_ZN10TClassEdit10TSplitType9ShortTypeERSsi
   fun:_ZN6TClass8GetClassEPKcbb
   fun:_ZN5TCint19UpdateClassInfoWorkEPKcl
   fun:_ZN5TCint15UpdateClassInfoEPcl
   fun:G__search_tagname
   fun:G__get_linked_tagnum_fwd
   fun:G__cpp_setup_tagtableG__Base1
   fun:G__cpp_setupG__Base1
   fun:G__call_setup_funcs
}
{
   <insert_a_suppression_name_here>
   Memcheck:Cond
   fun:_ZN10TClassEdit10TSplitType9ShortTypeERSsi
   fun:_ZN10TClassEdit9ShortTypeEPKci
   fun:_ZN10TClassEdit10TSplitType9ShortTypeERSsi
   fun:_ZN6TClass8GetClassEPKcbb
   fun:_ZN5TCint19UpdateClassInfoWorkEPKcl
   fun:_ZN5TCint15UpdateClassInfoEPcl
   fun:G__search_tagname
   fun:G__get_linked_tagnum_fwd
   fun:G__cpp_setup_tagtableG__Base1
   fun:G__cpp_setupG__Base1
   fun:G__call_setup_funcs
   fun:_ZN25G__cpp_setup_initG__Base1C2Ev
}
{
   <insert_a_suppression_name_here>
   Memcheck:Cond
   fun:_ZNSs6appendERKSs
   fun:_ZN10TClassEdit10TSplitType9ShortTypeERSsi
   fun:_ZN10TClassEdit9ShortTypeEPKci
   fun:_ZN10TClassEdit10TSplitType9ShortTypeERSsi
   fun:_ZN6TClass8GetClassEPKcbb
   fun:_ZN5TCint19UpdateClassInfoWorkEPKcl
   fun:_ZN5TCint15UpdateClassInfoEPcl
   fun:G__search_tagname
   fun:G__get_linked_tagnum_fwd
   fun:G__cpp_setup_tagtableG__Base1
   fun:G__cpp_setupG__Base1
   fun:G__call_setup_funcs
}
{
   <insert_a_suppression_name_here>
   Memcheck:Cond
   fun:_ZNSs7reserveEm
   fun:_ZNSs6appendERKSs
   fun:_ZN10TClassEdit10TSplitType9ShortTypeERSsi
   fun:_ZN10TClassEdit9ShortTypeEPKci
   fun:_ZN10TClassEdit10TSplitType9ShortTypeERSsi
   fun:_ZN6TClass8GetClassEPKcbb
   fun:_ZN5TCint19UpdateClassInfoWorkEPKcl
   fun:_ZN5TCint15UpdateClassInfoEPcl
   fun:G__search_tagname
   fun:G__get_linked_tagnum_fwd
   fun:G__cpp_setup_tagtableG__Base1
   fun:G__cpp_setupG__Base1
}
{
   <insert_a_suppression_name_here>
   Memcheck:Cond
   fun:_ZNSs4_Rep9_S_createEmmRKSaIcE
   fun:_ZNSs4_Rep8_M_cloneERKSaIcEm
   fun:_ZNSs7reserveEm
   fun:_ZNSs6appendERKSs
   fun:_ZN10TClassEdit10TSplitType9ShortTypeERSsi
   fun:_ZN10TClassEdit9ShortTypeEPKci
   fun:_ZN10TClassEdit10TSplitType9ShortTypeERSsi
   fun:_ZN6TClass8GetClassEPKcbb
   fun:_ZN5TCint19UpdateClassInfoWorkEPKcl
   fun:_ZN5TCint15UpdateClassInfoEPcl
   fun:G__search_tagname
   fun:G__get_linked_tagnum_fwd
}
{
   <insert_a_suppression_name_here>
   Memcheck:Value8
   fun:_ZNSs6appendERKSs
   fun:_ZN10TClassEdit10TSplitType9ShortTypeERSsi
   fun:_ZN10TClassEdit9ShortTypeEPKci
   fun:_ZN10TClassEdit10TSplitType9ShortTypeERSsi
   fun:_ZN6TClass8GetClassEPKcbb
   fun:_ZN5TCint19UpdateClassInfoWorkEPKcl
   fun:_ZN5TCint15UpdateClassInfoEPcl
   fun:G__search_tagname
   fun:G__get_linked_tagnum_fwd
   fun:G__cpp_setup_tagtableG__Base1
   fun:G__cpp_setupG__Base1
   fun:G__call_setup_funcs
}
{
   <insert_a_suppression_name_here>
   Memcheck:Cond
   fun:_ZNSs6appendEPKcm
   fun:_ZN10TClassEdit10TSplitType9ShortTypeERSsi
   fun:_ZN10TClassEdit9ShortTypeEPKci
   fun:_ZN10TClassEdit10TSplitType9ShortTypeERSsi
   fun:_ZN6TClass8GetClassEPKcbb
   fun:_ZN5TCint19UpdateClassInfoWorkEPKcl
   fun:_ZN5TCint15UpdateClassInfoEPcl
   fun:G__search_tagname
   fun:G__get_linked_tagnum_fwd
   fun:G__cpp_setup_tagtableG__Base1
   fun:G__cpp_setupG__Base1
   fun:G__call_setup_funcs
}
{
   <insert_a_suppression_name_here>
   Memcheck:Cond
   fun:_ZNSs7reserveEm
   fun:_ZNSs6appendEPKcm
   fun:_ZN10TClassEdit10TSplitType9ShortTypeERSsi
   fun:_ZN10TClassEdit9ShortTypeEPKci
   fun:_ZN10TClassEdit10TSplitType9ShortTypeERSsi
   fun:_ZN6TClass8GetClassEPKcbb
   fun:_ZN5TCint19UpdateClassInfoWorkEPKcl
   fun:_ZN5TCint15UpdateClassInfoEPcl
   fun:G__search_tagname
   fun:G__get_linked_tagnum_fwd
   fun:G__cpp_setup_tagtableG__Base1
   fun:G__cpp_setupG__Base1
}
{
   <insert_a_suppression_name_here>
   Memcheck:Cond
   fun:_ZNSs4_Rep8_M_cloneERKSaIcEm
   fun:_ZNSs7reserveEm
   fun:_ZNSs6appendEPKcm
   fun:_ZN10TClassEdit10TSplitType9ShortTypeERSsi
   fun:_ZN10TClassEdit9ShortTypeEPKci
   fun:_ZN10TClassEdit10TSplitType9ShortTypeERSsi
   fun:_ZN6TClass8GetClassEPKcbb
   fun:_ZN5TCint19UpdateClassInfoWorkEPKcl
   fun:_ZN5TCint15UpdateClassInfoEPcl
   fun:G__search_tagname
   fun:G__get_linked_tagnum_fwd
   fun:G__cpp_setup_tagtableG__Base1
}
{
   <insert_a_suppression_name_here>
   Memcheck:Value8
   fun:_ZNSs4_Rep8_M_cloneERKSaIcEm
   fun:_ZNSs7reserveEm
   fun:_ZNSs6appendEPKcm
   fun:_ZN10TClassEdit10TSplitType9ShortTypeERSsi
   fun:_ZN10TClassEdit9ShortTypeEPKci
   fun:_ZN10TClassEdit10TSplitType9ShortTypeERSsi
   fun:_ZN6TClass8GetClassEPKcbb
   fun:_ZN5TCint19UpdateClassInfoWorkEPKcl
   fun:_ZN5TCint15UpdateClassInfoEPcl
   fun:G__search_tagname
   fun:G__get_linked_tagnum_fwd
   fun:G__cpp_setup_tagtableG__Base1
}
{
   <insert_a_suppression_name_here>
   Memcheck:Value8
   fun:_ZNSs6appendEPKcm
   fun:_ZN10TClassEdit10TSplitType9ShortTypeERSsi
   fun:_ZN10TClassEdit9ShortTypeEPKci
   fun:_ZN10TClassEdit10TSplitType9ShortTypeERSsi
   fun:_ZN6TClass8GetClassEPKcbb
   fun:_ZN5TCint19UpdateClassInfoWorkEPKcl
   fun:_ZN5TCint15UpdateClassInfoEPcl
   fun:G__search_tagname
   fun:G__get_linked_tagnum_fwd
   fun:G__cpp_setup_tagtableG__Base1
   fun:G__cpp_setupG__Base1
   fun:G__call_setup_funcs
}
{
   <insert_a_suppression_name_here>
   Memcheck:Value8
   fun:_platform_memmove$VARIANT$Nehalem
   fun:_ZNSs6appendERKSs
   fun:_ZN10TClassEdit10TSplitType9ShortTypeERSsi
   fun:_ZN10TClassEdit9ShortTypeEPKci
   fun:_ZN10TClassEdit10TSplitType9ShortTypeERSsi
   fun:_ZN6TClass8GetClassEPKcbb
   fun:_ZN5TCint19UpdateClassInfoWorkEPKcl
   fun:_ZN5TCint15UpdateClassInfoEPcl
   fun:G__search_tagname
   fun:G__get_linked_tagnum_fwd
   fun:G__cpp_setup_tagtableG__Base1
   fun:G__cpp_setupG__Base1
}
{
   <insert_a_suppression_name_here>
   Memcheck:Value8
   fun:_ZN10TClassEdit10TSplitType9ShortTypeERSsi
   fun:_ZN10TClassEdit9ShortTypeEPKci
   fun:_ZN10TClassEdit10TSplitType9ShortTypeERSsi
   fun:_ZN6TClass8GetClassEPKcbb
   fun:_ZN5TCint19UpdateClassInfoWorkEPKcl
   fun:_ZN5TCint15UpdateClassInfoEPcl
   fun:G__search_tagname
   fun:G__get_linked_tagnum_fwd
   fun:G__cpp_setup_tagtableG__Base1
   fun:G__cpp_setupG__Base1
   fun:G__call_setup_funcs
   fun:_ZN25G__cpp_setup_initG__Base1C2Ev
}
{
   <insert_a_suppression_name_here>
   Memcheck:Cond
   fun:_ZN10TClassEdit10TSplitType9ShortTypeERSsi
   fun:_ZN6TClass8GetClassEPKcbb
   fun:_ZN5TCint19UpdateClassInfoWorkEPKcl
   fun:_ZN5TCint15UpdateClassInfoEPcl
   fun:G__search_tagname
   fun:G__get_linked_tagnum_fwd
   fun:G__cpp_setup_tagtableG__Base1
   fun:G__cpp_setupG__Base1
   fun:G__call_setup_funcs
   fun:_ZN25G__cpp_setup_initG__Base1C2Ev
   fun:_ZN25G__cpp_setup_initG__Base1C1Ev
   fun:__cxx_global_var_init709
}
{
   <insert_a_suppression_name_here>
   Memcheck:Value8
   fun:_ZN10TClassEdit10TSplitType9ShortTypeERSsi
   fun:_ZN6TClass8GetClassEPKcbb
   fun:_ZN5TCint19UpdateClassInfoWorkEPKcl
   fun:_ZN5TCint15UpdateClassInfoEPcl
   fun:G__search_tagname
   fun:G__get_linked_tagnum_fwd
   fun:G__cpp_setup_tagtableG__Base1
   fun:G__cpp_setupG__Base1
   fun:G__call_setup_funcs
   fun:_ZN25G__cpp_setup_initG__Base1C2Ev
   fun:_ZN25G__cpp_setup_initG__Base1C1Ev
   fun:__cxx_global_var_init709
}
{
   <insert_a_suppression_name_here>
   Memcheck:Cond
   fun:_ZNSs6appendEPKcm
   fun:_ZN10TClassEdit10TSplitType9ShortTypeERSsi
   fun:_ZN6TClass8GetClassEPKcbb
   fun:_ZN5TCint19UpdateClassInfoWorkEPKcl
   fun:_ZN5TCint15UpdateClassInfoEPcl
   fun:G__search_tagname
   fun:G__get_linked_tagnum_fwd
   fun:G__cpp_setup_tagtableG__Base1
   fun:G__cpp_setupG__Base1
   fun:G__call_setup_funcs
   fun:_ZN25G__cpp_setup_initG__Base1C2Ev
   fun:_ZN25G__cpp_setup_initG__Base1C1Ev
}
{
   <insert_a_suppression_name_here>
   Memcheck:Value8
   fun:_platform_memmove$VARIANT$Nehalem
   fun:_ZNSs6appendEPKcm
   fun:_ZN10TClassEdit10TSplitType9ShortTypeERSsi
   fun:_ZN6TClass8GetClassEPKcbb
   fun:_ZN5TCint19UpdateClassInfoWorkEPKcl
   fun:_ZN5TCint15UpdateClassInfoEPcl
   fun:G__search_tagname
   fun:G__get_linked_tagnum_fwd
   fun:G__cpp_setup_tagtableG__Base1
   fun:G__cpp_setupG__Base1
   fun:G__call_setup_funcs
   fun:_ZN25G__cpp_setup_initG__Base1C2Ev
}
{
   <insert_a_suppression_name_here>
   Memcheck:Value8
   fun:_ZNSs6appendEPKcm
   fun:_ZN10TClassEdit10TSplitType9ShortTypeERSsi
   fun:_ZN6TClass8GetClassEPKcbb
   fun:_ZN5TCint19UpdateClassInfoWorkEPKcl
   fun:_ZN5TCint15UpdateClassInfoEPcl
   fun:G__search_tagname
   fun:G__get_linked_tagnum_fwd
   fun:G__cpp_setup_tagtableG__Base1
   fun:G__cpp_setupG__Base1
   fun:G__call_setup_funcs
   fun:_ZN25G__cpp_setup_initG__Base1C2Ev
   fun:_ZN25G__cpp_setup_initG__Base1C1Ev
}
{
   <insert_a_suppression_name_here>
   Memcheck:Cond
   fun:_ZNKSs7compareEPKc
   fun:_ZN6TClass8GetClassEPKcbb
   fun:_ZN5TCint19UpdateClassInfoWorkEPKcl
   fun:_ZN5TCint15UpdateClassInfoEPcl
   fun:G__search_tagname
   fun:G__get_linked_tagnum_fwd
   fun:G__cpp_setup_tagtableG__Base1
   fun:G__cpp_setupG__Base1
   fun:G__call_setup_funcs
   fun:_ZN25G__cpp_setup_initG__Base1C2Ev
   fun:_ZN25G__cpp_setup_initG__Base1C1Ev
   fun:__cxx_global_var_init709
}
{
   <insert_a_suppression_name_here>
   Memcheck:Cond
   fun:_ZN6TClass8GetClassEPKcbb
   fun:_ZN5TCint19UpdateClassInfoWorkEPKcl
   fun:_ZN5TCint15UpdateClassInfoEPcl
   fun:G__search_tagname
   fun:G__get_linked_tagnum_fwd
   fun:G__cpp_setup_tagtableG__Base1
   fun:G__cpp_setupG__Base1
   fun:G__call_setup_funcs
   fun:_ZN25G__cpp_setup_initG__Base1C2Ev
   fun:_ZN25G__cpp_setup_initG__Base1C1Ev
   fun:__cxx_global_var_init709
   fun:_GLOBAL__I_a
}
{
   <insert_a_suppression_name_here>
   Memcheck:Cond
   fun:_ZNK10TClassEdit10TSplitType9IsSTLContEi
   fun:_ZN6TClass8GetClassEPKcbb
   fun:_ZN5TCint19UpdateClassInfoWorkEPKcl
   fun:_ZN5TCint15UpdateClassInfoEPcl
   fun:G__search_tagname
   fun:G__get_linked_tagnum_fwd
   fun:G__cpp_setup_tagtableG__Base1
   fun:G__cpp_setupG__Base1
   fun:G__call_setup_funcs
   fun:_ZN25G__cpp_setup_initG__Base1C2Ev
   fun:_ZN25G__cpp_setup_initG__Base1C1Ev
   fun:__cxx_global_var_init709
}
{
   <insert_a_suppression_name_here>
   Memcheck:Cond
   fun:G__defined_tagname
   fun:_ZN5TCint14CheckClassInfoEPKcb
   fun:_ZN5TCint22GetInterpreterTypeNameEPKcb
   fun:_ZL15R__FindSTLClassPKcbbS0_
   fun:_ZN6TClass8GetClassEPKcbb
   fun:_ZN5TCint19UpdateClassInfoWorkEPKcl
   fun:_ZN5TCint15UpdateClassInfoEPcl
   fun:G__search_tagname
   fun:G__get_linked_tagnum_fwd
   fun:G__cpp_setup_tagtableG__Base1
   fun:G__cpp_setupG__Base1
   fun:G__call_setup_funcs
}
{
   <insert_a_suppression_name_here>
   Memcheck:Cond
   fun:G__defined_tagname
   fun:_ZN4Cint12G__ClassInfo4InitEPKc
   fun:_ZN5TCint22GetInterpreterTypeNameEPKcb
   fun:_ZL15R__FindSTLClassPKcbbS0_
   fun:_ZN6TClass8GetClassEPKcbb
   fun:_ZN5TCint19UpdateClassInfoWorkEPKcl
   fun:_ZN5TCint15UpdateClassInfoEPcl
   fun:G__search_tagname
   fun:G__get_linked_tagnum_fwd
   fun:G__cpp_setup_tagtableG__Base1
   fun:G__cpp_setupG__Base1
   fun:G__call_setup_funcs
}
{
   <insert_a_suppression_name_here>
   Memcheck:Addr1
   fun:_platform_memcmp
   fun:_ZNKSs7compareEPKc
   fun:_ZN6TClass8GetClassEPKcbb
   fun:_ZN5TCint19UpdateClassInfoWorkEPKcl
   fun:_ZN5TCint15UpdateClassInfoEPcl
   fun:G__search_tagname
   fun:G__get_linked_tagnum_fwd
   fun:G__cpp_setup_tagtableG__Base1
   fun:G__cpp_setupG__Base1
   fun:G__call_setup_funcs
   fun:_ZN25G__cpp_setup_initG__Base1C2Ev
   fun:_ZN25G__cpp_setup_initG__Base1C1Ev
}
{
   <insert_a_suppression_name_here>
   Memcheck:Value8
   fun:_platform_memcmp
   fun:_ZNKSs7compareEPKc
   fun:_ZN6TClass8GetClassEPKcbb
   fun:_ZN5TCint19UpdateClassInfoWorkEPKcl
   fun:_ZN5TCint15UpdateClassInfoEPcl
   fun:G__search_tagname
   fun:G__get_linked_tagnum_fwd
   fun:G__cpp_setup_tagtableG__Base1
   fun:G__cpp_setupG__Base1
   fun:G__call_setup_funcs
   fun:_ZN25G__cpp_setup_initG__Base1C2Ev
   fun:_ZN25G__cpp_setup_initG__Base1C1Ev
}
{
   <insert_a_suppression_name_here>
   Memcheck:Value8
   fun:_ZN10TClassEdit8GetSplitEPKcRSt6vectorISsSaISsEERiNS_8EModTypeE
   fun:_ZN10TClassEdit10TSplitTypeC1EPKcNS_8EModTypeE
   fun:_ZN11TClassTable3AddEPKcsRKSt9type_infoPFvvEi
   fun:_ZN4ROOT17TGenericClassInfoC2EPKciS2_iRKSt9type_infoPKNS_13TInitBehaviorEPFvvEP16TVirtualIsAProxyii
   fun:_ZN4ROOTL25GenerateInitInstanceLocalEPK10TParameterIbE
   fun:_GLOBAL__I_a
   fun:_ZN16ImageLoaderMachO18doModInitFunctionsERKN11ImageLoader11LinkContextE
   fun:_ZN16ImageLoaderMachO16doInitializationERKN11ImageLoader11LinkContextE
   fun:_ZN11ImageLoader23recursiveInitializationERKNS_11LinkContextEjRNS_21InitializerTimingListE
   fun:_ZN11ImageLoader23recursiveInitializationERKNS_11LinkContextEjRNS_21InitializerTimingListE
   fun:_ZN11ImageLoader15runInitializersERKNS_11LinkContextERNS_21InitializerTimingListE
   fun:_ZN4dyld24initializeMainExecutableEv
}
{
   <insert_a_suppression_name_here>
   Memcheck:Cond
   fun:_ZN10TClassEdit8GetSplitEPKcRSt6vectorISsSaISsEERiNS_8EModTypeE
   fun:_ZN10TClassEdit10TSplitTypeC1EPKcNS_8EModTypeE
   fun:_ZN11TClassTable3AddEPKcsRKSt9type_infoPFvvEi
   fun:_ZN4ROOT17TGenericClassInfoC2EPKciS2_iRKSt9type_infoPKNS_13TInitBehaviorEPFvvEP16TVirtualIsAProxyii
   fun:_ZN4ROOTL25GenerateInitInstanceLocalEPK10TParameterIbE
   fun:_GLOBAL__I_a
   fun:_ZN16ImageLoaderMachO18doModInitFunctionsERKN11ImageLoader11LinkContextE
   fun:_ZN16ImageLoaderMachO16doInitializationERKN11ImageLoader11LinkContextE
   fun:_ZN11ImageLoader23recursiveInitializationERKNS_11LinkContextEjRNS_21InitializerTimingListE
   fun:_ZN11ImageLoader23recursiveInitializationERKNS_11LinkContextEjRNS_21InitializerTimingListE
   fun:_ZN11ImageLoader15runInitializersERKNS_11LinkContextERNS_21InitializerTimingListE
   fun:_ZN4dyld24initializeMainExecutableEv
}
{
   <insert_a_suppression_name_here>
   Memcheck:Cond
   fun:_ZN10TClassEdit10TSplitType9ShortTypeERSsi
   fun:_ZN11TClassTable3AddEPKcsRKSt9type_infoPFvvEi
   fun:_ZN4ROOT17TGenericClassInfoC2EPKciS2_iRKSt9type_infoPKNS_13TInitBehaviorEPFvvEP16TVirtualIsAProxyii
   fun:_ZN4ROOTL25GenerateInitInstanceLocalEPK10TParameterIbE
   fun:_GLOBAL__I_a
   fun:_ZN16ImageLoaderMachO18doModInitFunctionsERKN11ImageLoader11LinkContextE
   fun:_ZN16ImageLoaderMachO16doInitializationERKN11ImageLoader11LinkContextE
   fun:_ZN11ImageLoader23recursiveInitializationERKNS_11LinkContextEjRNS_21InitializerTimingListE
   fun:_ZN11ImageLoader23recursiveInitializationERKNS_11LinkContextEjRNS_21InitializerTimingListE
   fun:_ZN11ImageLoader15runInitializersERKNS_11LinkContextERNS_21InitializerTimingListE
   fun:_ZN4dyld24initializeMainExecutableEv
   fun:_ZN4dyld5_mainEPK12macho_headermiPPKcS5_S5_Pm
}
{
   <insert_a_suppression_name_here>
   Memcheck:Value8
   fun:_ZN10TClassEdit10TSplitType9ShortTypeERSsi
   fun:_ZN11TClassTable3AddEPKcsRKSt9type_infoPFvvEi
   fun:_ZN4ROOT17TGenericClassInfoC2EPKciS2_iRKSt9type_infoPKNS_13TInitBehaviorEPFvvEP16TVirtualIsAProxyii
   fun:_ZN4ROOTL25GenerateInitInstanceLocalEPK10TParameterIbE
   fun:_GLOBAL__I_a
   fun:_ZN16ImageLoaderMachO18doModInitFunctionsERKN11ImageLoader11LinkContextE
   fun:_ZN16ImageLoaderMachO16doInitializationERKN11ImageLoader11LinkContextE
   fun:_ZN11ImageLoader23recursiveInitializationERKNS_11LinkContextEjRNS_21InitializerTimingListE
   fun:_ZN11ImageLoader23recursiveInitializationERKNS_11LinkContextEjRNS_21InitializerTimingListE
   fun:_ZN11ImageLoader15runInitializersERKNS_11LinkContextERNS_21InitializerTimingListE
   fun:_ZN4dyld24initializeMainExecutableEv
   fun:_ZN4dyld5_mainEPK12macho_headermiPPKcS5_S5_Pm
}
{
   <insert_a_suppression_name_here>
   Memcheck:Value8
   fun:_platform_memmove$VARIANT$Nehalem
   fun:_ZN10TClassEdit8GetSplitEPKcRSt6vectorISsSaISsEERiNS_8EModTypeE
   fun:_ZN10TClassEdit10TSplitTypeC1EPKcNS_8EModTypeE
   fun:_ZN11TClassTable3AddEPKcsRKSt9type_infoPFvvEi
   fun:_ZN4ROOT17TGenericClassInfoC2EPKciS2_iRKSt9type_infoPKNS_13TInitBehaviorEPFvvEP16TVirtualIsAProxyii
   fun:_ZN4ROOTL25GenerateInitInstanceLocalEPK10TParameterIxE
   fun:_GLOBAL__I_a
   fun:_ZN16ImageLoaderMachO18doModInitFunctionsERKN11ImageLoader11LinkContextE
   fun:_ZN16ImageLoaderMachO16doInitializationERKN11ImageLoader11LinkContextE
   fun:_ZN11ImageLoader23recursiveInitializationERKNS_11LinkContextEjRNS_21InitializerTimingListE
   fun:_ZN11ImageLoader23recursiveInitializationERKNS_11LinkContextEjRNS_21InitializerTimingListE
   fun:_ZN11ImageLoader15runInitializersERKNS_11LinkContextERNS_21InitializerTimingListE
}
{
   <insert_a_suppression_name_here>
   Memcheck:Value8
   fun:_platform_memmove$VARIANT$Nehalem
   fun:_ZNSs6appendERKSs
   fun:_ZN10TClassEdit10TSplitType9ShortTypeERSsi
   fun:_ZN11TClassTable3AddEPKcsRKSt9type_infoPFvvEi
   fun:_ZN4ROOT17TGenericClassInfoC2EPKciS2_iRKSt9type_infoPKNS_13TInitBehaviorEPFvvEP16TVirtualIsAProxyii
   fun:_ZN4ROOTL25GenerateInitInstanceLocalEPK10TParameterIxE
   fun:_GLOBAL__I_a
   fun:_ZN16ImageLoaderMachO18doModInitFunctionsERKN11ImageLoader11LinkContextE
   fun:_ZN16ImageLoaderMachO16doInitializationERKN11ImageLoader11LinkContextE
   fun:_ZN11ImageLoader23recursiveInitializationERKNS_11LinkContextEjRNS_21InitializerTimingListE
   fun:_ZN11ImageLoader23recursiveInitializationERKNS_11LinkContextEjRNS_21InitializerTimingListE
   fun:_ZN11ImageLoader15runInitializersERKNS_11LinkContextERNS_21InitializerTimingListE
}
{
   <insert_a_suppression_name_here>
   Memcheck:Cond
   fun:_ZN10TClassEdit10TSplitType9ShortTypeERSsi
   fun:_ZN6TClass8GetClassEPKcbb
   fun:_ZN5TCint19UpdateClassInfoWorkEPKcl
   fun:_ZN5TCint15UpdateClassInfoEPcl
   fun:G__search_tagname
   fun:G__get_linked_tagnum_fwd
   fun:G__cpp_setup_tagtableG__Base3
   fun:G__cpp_setupG__Base3
   fun:G__call_setup_funcs
   fun:_GLOBAL__I_a
   fun:_ZN16ImageLoaderMachO18doModInitFunctionsERKN11ImageLoader11LinkContextE
   fun:_ZN16ImageLoaderMachO16doInitializationERKN11ImageLoader11LinkContextE
}
{
   <insert_a_suppression_name_here>
   Memcheck:Value8
   fun:_ZN10TClassEdit10TSplitType9ShortTypeERSsi
   fun:_ZN6TClass8GetClassEPKcbb
   fun:_ZN5TCint19UpdateClassInfoWorkEPKcl
   fun:_ZN5TCint15UpdateClassInfoEPcl
   fun:G__search_tagname
   fun:G__get_linked_tagnum_fwd
   fun:G__cpp_setup_tagtableG__Base3
   fun:G__cpp_setupG__Base3
   fun:G__call_setup_funcs
   fun:_GLOBAL__I_a
   fun:_ZN16ImageLoaderMachO18doModInitFunctionsERKN11ImageLoader11LinkContextE
   fun:_ZN16ImageLoaderMachO16doInitializationERKN11ImageLoader11LinkContextE
}
{
   <insert_a_suppression_name_here>
   Memcheck:Cond
   fun:_ZN10TClassEdit14ResolveTypedefEPKcb
   fun:_ZN6TClass8GetClassEPKcbb
   fun:_ZN5TCint19UpdateClassInfoWorkEPKcl
   fun:_ZN5TCint15UpdateClassInfoEPcl
   fun:G__search_tagname
   fun:G__get_linked_tagnum_fwd
   fun:G__cpp_setup_tagtableG__Base3
   fun:G__cpp_setupG__Base3
   fun:G__call_setup_funcs
   fun:_GLOBAL__I_a
   fun:_ZN16ImageLoaderMachO18doModInitFunctionsERKN11ImageLoader11LinkContextE
   fun:_ZN16ImageLoaderMachO16doInitializationERKN11ImageLoader11LinkContextE
}
{
   <insert_a_suppression_name_here>
   Memcheck:Cond
   fun:_ZNK10TClassEdit10TSplitType9IsSTLContEi
   fun:_ZN6TClass8GetClassEPKcbb
   fun:_ZN5TCint19UpdateClassInfoWorkEPKcl
   fun:_ZN5TCint15UpdateClassInfoEPcl
   fun:G__search_tagname
   fun:G__get_linked_tagnum_fwd
   fun:G__cpp_setup_tagtableG__Base3
   fun:G__cpp_setupG__Base3
   fun:G__call_setup_funcs
   fun:_GLOBAL__I_a
   fun:_ZN16ImageLoaderMachO18doModInitFunctionsERKN11ImageLoader11LinkContextE
   fun:_ZN16ImageLoaderMachO16doInitializationERKN11ImageLoader11LinkContextE
}
{
   <insert_a_suppression_name_here>
   Memcheck:Cond
   fun:G__defined_typename_noerror
   fun:G__defined_typename_noerror
   fun:G__defined_tagname
   fun:G__search_tagname
   fun:G__get_linked_tagnum_fwd
   fun:G__cpp_setup_tagtableG__MathCore
   fun:G__cpp_setupG__MathCore
   fun:G__call_setup_funcs
   fun:_GLOBAL__I_a
   fun:_ZN16ImageLoaderMachO18doModInitFunctionsERKN11ImageLoader11LinkContextE
   fun:_ZN16ImageLoaderMachO16doInitializationERKN11ImageLoader11LinkContextE
   fun:_ZN11ImageLoader23recursiveInitializationERKNS_11LinkContextEjRNS_21InitializerTimingListE
}
{
   <insert_a_suppression_name_here>
   Memcheck:Value8
   fun:G__defined_typename_noerror
   fun:G__defined_typename_noerror
   fun:G__defined_tagname
   fun:G__search_tagname
   fun:G__get_linked_tagnum_fwd
   fun:G__cpp_setup_tagtableG__MathCore
   fun:G__cpp_setupG__MathCore
   fun:G__call_setup_funcs
   fun:_GLOBAL__I_a
   fun:_ZN16ImageLoaderMachO18doModInitFunctionsERKN11ImageLoader11LinkContextE
   fun:_ZN16ImageLoaderMachO16doInitializationERKN11ImageLoader11LinkContextE
   fun:_ZN11ImageLoader23recursiveInitializationERKNS_11LinkContextEjRNS_21InitializerTimingListE
}
{
   <insert_a_suppression_name_here>
   Memcheck:Cond
   fun:_ZNSsC2EPKcRKSaIcE
   fun:_ZN10TClassEdit8GetSplitEPKcRSt6vectorISsSaISsEERiNS_8EModTypeE
   fun:_ZN10TClassEdit10TSplitTypeC1EPKcNS_8EModTypeE
   fun:_ZN6TClass8GetClassEPKcbb
   fun:_ZN5TCint19UpdateClassInfoWorkEPKcl
   fun:_ZN5TCint15UpdateClassInfoEPcl
   fun:G__search_tagname
   fun:G__get_linked_tagnum_fwd
   fun:G__cpp_setup_tagtableG__Matrix
   fun:G__cpp_setupG__Matrix
   fun:G__call_setup_funcs
   fun:_ZN26G__cpp_setup_initG__MatrixC2Ev
}
{
   <insert_a_suppression_name_here>
   Memcheck:Value8
   fun:strlen
   fun:_ZNSsC2EPKcRKSaIcE
   fun:_ZN10TClassEdit8GetSplitEPKcRSt6vectorISsSaISsEERiNS_8EModTypeE
   fun:_ZN10TClassEdit10TSplitTypeC1EPKcNS_8EModTypeE
   fun:_ZN6TClass8GetClassEPKcbb
   fun:_ZN5TCint19UpdateClassInfoWorkEPKcl
   fun:_ZN5TCint15UpdateClassInfoEPcl
   fun:G__search_tagname
   fun:G__get_linked_tagnum_fwd
   fun:G__cpp_setup_tagtableG__Matrix
   fun:G__cpp_setupG__Matrix
   fun:G__call_setup_funcs
}
{
   <insert_a_suppression_name_here>
   Memcheck:Cond
   fun:_ZNSs12_S_constructIPKcEEPcT_S3_RKSaIcESt20forward_iterator_tag
   fun:_ZNSsC2EPKcRKSaIcE
   fun:_ZN10TClassEdit8GetSplitEPKcRSt6vectorISsSaISsEERiNS_8EModTypeE
   fun:_ZN10TClassEdit10TSplitTypeC1EPKcNS_8EModTypeE
   fun:_ZN6TClass8GetClassEPKcbb
   fun:_ZN5TCint19UpdateClassInfoWorkEPKcl
   fun:_ZN5TCint15UpdateClassInfoEPcl
   fun:G__search_tagname
   fun:G__get_linked_tagnum_fwd
   fun:G__cpp_setup_tagtableG__Matrix
   fun:G__cpp_setupG__Matrix
   fun:G__call_setup_funcs
}
{
   <insert_a_suppression_name_here>
   Memcheck:Cond
   fun:_ZNSs4_Rep9_S_createEmmRKSaIcE
   fun:_ZNSs12_S_constructIPKcEEPcT_S3_RKSaIcESt20forward_iterator_tag
   fun:_ZNSsC2EPKcRKSaIcE
   fun:_ZN10TClassEdit8GetSplitEPKcRSt6vectorISsSaISsEERiNS_8EModTypeE
   fun:_ZN10TClassEdit10TSplitTypeC1EPKcNS_8EModTypeE
   fun:_ZN6TClass8GetClassEPKcbb
   fun:_ZN5TCint19UpdateClassInfoWorkEPKcl
   fun:_ZN5TCint15UpdateClassInfoEPcl
   fun:G__search_tagname
   fun:G__get_linked_tagnum_fwd
   fun:G__cpp_setup_tagtableG__Matrix
   fun:G__cpp_setupG__Matrix
}
{
   <insert_a_suppression_name_here>
   Memcheck:Value8
   fun:_platform_memmove$VARIANT$Nehalem
   fun:_ZNSs12_S_constructIPKcEEPcT_S3_RKSaIcESt20forward_iterator_tag
   fun:_ZNSsC2EPKcRKSaIcE
   fun:_ZN10TClassEdit8GetSplitEPKcRSt6vectorISsSaISsEERiNS_8EModTypeE
   fun:_ZN10TClassEdit10TSplitTypeC1EPKcNS_8EModTypeE
   fun:_ZN6TClass8GetClassEPKcbb
   fun:_ZN5TCint19UpdateClassInfoWorkEPKcl
   fun:_ZN5TCint15UpdateClassInfoEPcl
   fun:G__search_tagname
   fun:G__get_linked_tagnum_fwd
   fun:G__cpp_setup_tagtableG__Matrix
   fun:G__cpp_setupG__Matrix
}
{
   <insert_a_suppression_name_here>
   Memcheck:Value8
   fun:_ZNSs12_S_constructIPKcEEPcT_S3_RKSaIcESt20forward_iterator_tag
   fun:_ZNSsC2EPKcRKSaIcE
   fun:_ZN10TClassEdit8GetSplitEPKcRSt6vectorISsSaISsEERiNS_8EModTypeE
   fun:_ZN10TClassEdit10TSplitTypeC1EPKcNS_8EModTypeE
   fun:_ZN6TClass8GetClassEPKcbb
   fun:_ZN5TCint19UpdateClassInfoWorkEPKcl
   fun:_ZN5TCint15UpdateClassInfoEPcl
   fun:G__search_tagname
   fun:G__get_linked_tagnum_fwd
   fun:G__cpp_setup_tagtableG__Matrix
   fun:G__cpp_setupG__Matrix
   fun:G__call_setup_funcs
}
{
   <insert_a_suppression_name_here>
   Memcheck:Cond
   fun:_ZNSs6appendERKSs
   fun:_ZN10TClassEdit10TSplitType9ShortTypeERSsi
   fun:_ZN6TClass8GetClassEPKcbb
   fun:_ZN5TCint19UpdateClassInfoWorkEPKcl
   fun:_ZN5TCint15UpdateClassInfoEPcl
   fun:G__search_tagname
   fun:G__get_linked_tagnum_fwd
   fun:G__cpp_setup_tagtableG__Matrix
   fun:G__cpp_setupG__Matrix
   fun:G__call_setup_funcs
   fun:_ZN26G__cpp_setup_initG__MatrixC2Ev
   fun:_ZN26G__cpp_setup_initG__MatrixC1Ev
}
{
   <insert_a_suppression_name_here>
   Memcheck:Value8
   fun:_ZNSs6appendERKSs
   fun:_ZN10TClassEdit10TSplitType9ShortTypeERSsi
   fun:_ZN6TClass8GetClassEPKcbb
   fun:_ZN5TCint19UpdateClassInfoWorkEPKcl
   fun:_ZN5TCint15UpdateClassInfoEPcl
   fun:G__search_tagname
   fun:G__get_linked_tagnum_fwd
   fun:G__cpp_setup_tagtableG__Matrix
   fun:G__cpp_setupG__Matrix
   fun:G__call_setup_funcs
   fun:_ZN26G__cpp_setup_initG__MatrixC2Ev
   fun:_ZN26G__cpp_setup_initG__MatrixC1Ev
}
{
   <insert_a_suppression_name_here>
   Memcheck:Cond
   fun:_ZNSs7reserveEm
   fun:_ZN10TClassEdit10TSplitType9ShortTypeERSsi
   fun:_ZN11TClassTable3AddEPKcsRKSt9type_infoPFvvEi
   fun:_ZN4ROOT17TGenericClassInfoC2EPKciS2_iRKSt9type_infoPKNS_13TInitBehaviorEPFvvEP16TVirtualIsAProxyii
   fun:_ZN4ROOTL25GenerateInitInstanceLocalEPK9TNDArrayTIxE
   fun:_GLOBAL__I_a
   fun:_ZN16ImageLoaderMachO18doModInitFunctionsERKN11ImageLoader11LinkContextE
   fun:_ZN16ImageLoaderMachO16doInitializationERKN11ImageLoader11LinkContextE
   fun:_ZN11ImageLoader23recursiveInitializationERKNS_11LinkContextEjRNS_21InitializerTimingListE
   fun:_ZN11ImageLoader23recursiveInitializationERKNS_11LinkContextEjRNS_21InitializerTimingListE
   fun:_ZN11ImageLoader15runInitializersERKNS_11LinkContextERNS_21InitializerTimingListE
   fun:_ZN4dyld24initializeMainExecutableEv
}
{
   <insert_a_suppression_name_here>
   Memcheck:Cond
   fun:G__defined_tagname
   fun:G__search_tagname
   fun:G__set_class_autoloading_table
   fun:_ZN5TCint14LoadLibraryMapEPKc
   fun:_ZN5TCint17EnableAutoLoadingEv
   fun:_ZN12TApplicationC2EPKcPiPPcPvi
   fun:main
}
{
   <insert_a_suppression_name_here>
   Memcheck:Cond
   fun:G__set_class_autoloading_table
   fun:_ZN5TCint14LoadLibraryMapEPKc
   fun:_ZN5TCint17EnableAutoLoadingEv
   fun:_ZN12TApplicationC2EPKcPiPPcPvi
   fun:main
}
{
   <insert_a_suppression_name_here>
   Memcheck:Cond
   fun:G__defined_tagname
   fun:G__get_class_autoloading_table
   fun:_ZN5TCint14LoadLibraryMapEPKc
   fun:_ZN5TCint17EnableAutoLoadingEv
   fun:_ZN12TApplicationC2EPKcPiPPcPvi
   fun:main
}
{
   <insert_a_suppression_name_here>
   Memcheck:Cond
   fun:G__search_tagname
   fun:G__set_class_autoloading_table
   fun:_ZN5TCint14LoadLibraryMapEPKc
   fun:_ZN5TCint17EnableAutoLoadingEv
   fun:_ZN12TApplicationC2EPKcPiPPcPvi
   fun:main
}
{
   <insert_a_suppression_name_here>
   Memcheck:Cond
   fun:_ZN4dyld9mkstringfEPKcz
   fun:_ZN4dyldL10loadPhase5EPKcS1_RKNS_11LoadContextEPNSt3__16vectorIS1_NS5_9allocatorIS1_EEEE
   fun:_ZN4dyldL10loadPhase4EPKcS1_RKNS_11LoadContextEPNSt3__16vectorIS1_NS5_9allocatorIS1_EEEE
   fun:_ZN4dyldL10loadPhase3EPKcS1_RKNS_11LoadContextEPNSt3__16vectorIS1_NS5_9allocatorIS1_EEEE
   fun:_ZN4dyldL10loadPhase1EPKcS1_RKNS_11LoadContextEPNSt3__16vectorIS1_NS5_9allocatorIS1_EEEE
   fun:_ZN4dyldL10loadPhase0EPKcS1_RKNS_11LoadContextEPNSt3__16vectorIS1_NS5_9allocatorIS1_EEEE
   fun:_ZN4dyld4loadEPKcRKNS_11LoadContextE
   fun:dlopen_preflight
   fun:dlopen_preflight
   fun:G__loadfile
   fun:G__process_cmd
   fun:_ZN5TCint11ProcessLineEPKcPN12TInterpreter10EErrorCodeE
}
{
   <insert_a_suppression_name_here>
   Memcheck:Cond
   fun:memcpy
   fun:strdup
   fun:_ZN4dyld9mkstringfEPKcz
   fun:_ZN4dyldL10loadPhase5EPKcS1_RKNS_11LoadContextEPNSt3__16vectorIS1_NS5_9allocatorIS1_EEEE
   fun:_ZN4dyldL10loadPhase4EPKcS1_RKNS_11LoadContextEPNSt3__16vectorIS1_NS5_9allocatorIS1_EEEE
   fun:_ZN4dyldL10loadPhase3EPKcS1_RKNS_11LoadContextEPNSt3__16vectorIS1_NS5_9allocatorIS1_EEEE
   fun:_ZN4dyldL10loadPhase1EPKcS1_RKNS_11LoadContextEPNSt3__16vectorIS1_NS5_9allocatorIS1_EEEE
   fun:_ZN4dyldL10loadPhase0EPKcS1_RKNS_11LoadContextEPNSt3__16vectorIS1_NS5_9allocatorIS1_EEEE
   fun:_ZN4dyld4loadEPKcRKNS_11LoadContextE
   fun:dlopen_preflight
   fun:dlopen_preflight
   fun:G__loadfile
}
{
   <insert_a_suppression_name_here>
   Memcheck:Cond
   fun:memcpy
   fun:strdup
   fun:_ZN4dyld9mkstringfEPKcz
   fun:dlopen_preflight
   fun:dlopen_preflight
   fun:G__loadfile
   fun:G__process_cmd
   fun:_ZN5TCint11ProcessLineEPKcPN12TInterpreter10EErrorCodeE
   fun:_ZN5TCint16ProcessLineSynchEPKcPN12TInterpreter10EErrorCodeE
   fun:_ZN12TApplication11ExecuteFileEPKcPib
   fun:_ZN5TCint12ExecuteMacroEPKcPN12TInterpreter10EErrorCodeE
   fun:_ZN5TROOT5MacroEPKcPib
}
{
   <insert_a_suppression_name_here>
   Memcheck:Value8
   fun:memcpy
   fun:strdup
   fun:_ZN4dyld9mkstringfEPKcz
   fun:dlopen_preflight
   fun:dlopen_preflight
   fun:G__loadfile
   fun:G__process_cmd
   fun:_ZN5TCint11ProcessLineEPKcPN12TInterpreter10EErrorCodeE
   fun:_ZN5TCint16ProcessLineSynchEPKcPN12TInterpreter10EErrorCodeE
   fun:_ZN12TApplication11ExecuteFileEPKcPib
   fun:_ZN5TCint12ExecuteMacroEPKcPN12TInterpreter10EErrorCodeE
   fun:_ZN5TROOT5MacroEPKcPib
}
{
   <insert_a_suppression_name_here>
   Memcheck:Cond
   fun:G__execfuncmacro_noexec
   fun:G__exec_statement
   fun:G__interpret_func
   fun:G__getfunction
   fun:G__getitem
   fun:G__getexpr
   fun:G__calc_internal
   fun:G__process_cmd
   fun:_ZN5TCint11ProcessLineEPKcPN12TInterpreter10EErrorCodeE
   fun:_ZN5TCint16ProcessLineSynchEPKcPN12TInterpreter10EErrorCodeE
   fun:_ZN12TApplication11ExecuteFileEPKcPib
   fun:_ZN5TCint12ExecuteMacroEPKcPN12TInterpreter10EErrorCodeE
}
{
   <insert_a_suppression_name_here>
   Memcheck:Value8
   fun:G__execfuncmacro_noexec
   fun:G__exec_statement
   fun:G__interpret_func
   fun:G__getfunction
   fun:G__getitem
   fun:G__getexpr
   fun:G__calc_internal
   fun:G__process_cmd
   fun:_ZN5TCint11ProcessLineEPKcPN12TInterpreter10EErrorCodeE
   fun:_ZN5TCint16ProcessLineSynchEPKcPN12TInterpreter10EErrorCodeE
   fun:_ZN12TApplication11ExecuteFileEPKcPib
   fun:_ZN5TCint12ExecuteMacroEPKcPN12TInterpreter10EErrorCodeE
}
{
   <insert_a_suppression_name_here>
   Memcheck:Cond
   fun:G__getfunction
   fun:G__getitem
   fun:G__getexpr
   fun:G__calc_internal
   fun:G__process_cmd
   fun:_ZN5TCint11ProcessLineEPKcPN12TInterpreter10EErrorCodeE
   fun:_ZN5TCint16ProcessLineSynchEPKcPN12TInterpreter10EErrorCodeE
   fun:_ZN12TApplication11ExecuteFileEPKcPib
   fun:_ZN5TCint12ExecuteMacroEPKcPN12TInterpreter10EErrorCodeE
   fun:_ZN5TROOT5MacroEPKcPib
   fun:_ZN14TPluginManager17LoadHandlerMacrosEPKc
   fun:_ZN14TPluginManager26LoadHandlersFromPluginDirsEPKc
}
{
   <insert_a_suppression_name_here>
   Memcheck:Cond
   fun:_ZN5TCint8TypeNameEPKc
   fun:_ZL15R__FindSTLClassPKcbbS0_
   fun:_ZN6TClass8GetClassEPKcbb
   fun:_ZN14TBuildRealData7InspectEP6TClassPKcS3_PKv
   fun:_ZN5Event11ShowMembersER16TMemberInspector
   fun:_ZNK6TClass12InheritsFromEPKc
   obj:*
}
{
   <insert_a_suppression_name_here>
   Memcheck:Addr16
   fun:strchr
   fun:dlopen_preflight
   fun:dlopen_preflight
   fun:_ZN5TCint13GetSharedLibsEv
   fun:_ZN7TSystem12GetLibrariesEPKcS1_b
   fun:_ZN7TSystem4LoadEPKcS1_b
   fun:_ZN5TROOT9LoadClassEPKcS1_b
   fun:_ZN5TCint16AutoLoadCallbackEPKcS1_
   fun:TCint_AutoLoadCallback
   fun:G__class_autoloading
   fun:G__defined_tagname
   fun:G__search_tagname
}
{
   <insert_a_suppression_name_here>
   Memcheck:Addr16
   fun:memchr
   fun:__simple_bprintf
   fun:_simple_vsprintf
   fun:_ZN4dyld9mkstringfEPKcz
   fun:dlopen_preflight
   fun:dlopen_preflight
   fun:_ZN5TCint13GetSharedLibsEv
   fun:_ZN7TSystem12GetLibrariesEPKcS1_b
   fun:_ZN7TSystem4LoadEPKcS1_b
   fun:_ZN5TROOT9LoadClassEPKcS1_b
   fun:_ZN5TCint16AutoLoadCallbackEPKcS1_
   fun:TCint_AutoLoadCallback
}
{
   <insert_a_suppression_name_here>
   Memcheck:Addr16
   fun:memchr
   fun:__simple_bprintf
   fun:_simple_vsprintf
   fun:_ZN4dyld9mkstringfEPKcz
   fun:_ZN4dyldL10loadPhase5EPKcS1_RKNS_11LoadContextEPNSt3__16vectorIS1_NS5_9allocatorIS1_EEEE
   fun:_ZN4dyldL10loadPhase4EPKcS1_RKNS_11LoadContextEPNSt3__16vectorIS1_NS5_9allocatorIS1_EEEE
   fun:_ZN4dyldL10loadPhase3EPKcS1_RKNS_11LoadContextEPNSt3__16vectorIS1_NS5_9allocatorIS1_EEEE
   fun:_ZN4dyldL10loadPhase1EPKcS1_RKNS_11LoadContextEPNSt3__16vectorIS1_NS5_9allocatorIS1_EEEE
   fun:_ZN4dyldL10loadPhase0EPKcS1_RKNS_11LoadContextEPNSt3__16vectorIS1_NS5_9allocatorIS1_EEEE
   fun:_ZN4dyld4loadEPKcRKNS_11LoadContextE
   fun:dlopen_preflight
   fun:dlopen_preflight
}
{
   <insert_a_suppression_name_here>
   Memcheck:Cond
   fun:_ZN11ImageLoader8weakBindERKNS_11LinkContextE
   fun:_ZN11ImageLoader4linkERKNS_11LinkContextEbbbRKNS_10RPathChainE
   fun:_ZN4dyld4linkEP11ImageLoaderbbRKNS0_10RPathChainE
   fun:dlopen
   fun:dlopen
   fun:G__dlopen
   fun:G__shl_load
   fun:G__loadfile
   fun:G__loadsystemfile
   fun:_ZN5TCint4LoadEPKcb
   fun:_ZN7TSystem4LoadEPKcS1_b
   fun:_ZN7TSystem4LoadEPKcS1_b
}
{
   <insert_a_suppression_name_here>
   Memcheck:Cond
   fun:_ZN4dyld9mkstringfEPKcz
   fun:dlsym
   fun:dlsym
   fun:G__shl_findsym
   fun:G__SetCintApiPointers
   fun:G__shl_load
   fun:G__loadfile
   fun:G__loadsystemfile
   fun:_ZN5TCint4LoadEPKcb
   fun:_ZN7TSystem4LoadEPKcS1_b
   fun:_ZN7TSystem4LoadEPKcS1_b
   fun:_ZN5TROOT9LoadClassEPKcS1_b
}
{
   <insert_a_suppression_name_here>
   Memcheck:Value8
   fun:hex
   fun:__simple_bprintf
   fun:_simple_vsprintf
   fun:_ZN4dyld9mkstringfEPKcz
   fun:dlsym
   fun:dlsym
   fun:G__shl_findsym
   fun:G__SetCintApiPointers
   fun:G__shl_load
   fun:G__loadfile
   fun:G__loadsystemfile
   fun:_ZN5TCint4LoadEPKcb
}
{
   <insert_a_suppression_name_here>
   Memcheck:Cond
   fun:hex
   fun:__simple_bprintf
   fun:_simple_vsprintf
   fun:_ZN4dyld9mkstringfEPKcz
   fun:dlsym
   fun:dlsym
   fun:G__shl_findsym
   fun:G__SetCintApiPointers
   fun:G__shl_load
   fun:G__loadfile
   fun:G__loadsystemfile
   fun:_ZN5TCint4LoadEPKcb
}
{
   <insert_a_suppression_name_here>
   Memcheck:Value8
   fun:__simple_bprintf
   fun:_simple_vsprintf
   fun:_ZN4dyld9mkstringfEPKcz
   fun:dlsym
   fun:dlsym
   fun:G__shl_findsym
   fun:G__SetCintApiPointers
   fun:G__shl_load
   fun:G__loadfile
   fun:G__loadsystemfile
   fun:_ZN5TCint4LoadEPKcb
   fun:_ZN7TSystem4LoadEPKcS1_b
}
{
   <insert_a_suppression_name_here>
   Memcheck:Cond
   fun:__simple_bprintf
   fun:_simple_vsprintf
   fun:_ZN4dyld9mkstringfEPKcz
   fun:dlsym
   fun:dlsym
   fun:G__shl_findsym
   fun:G__SetCintApiPointers
   fun:G__shl_load
   fun:G__loadfile
   fun:G__loadsystemfile
   fun:_ZN5TCint4LoadEPKcb
   fun:_ZN7TSystem4LoadEPKcS1_b
}
{
   <insert_a_suppression_name_here>
   Memcheck:Cond
   fun:G__search_tagname
   fun:G__parse_parameter_link
   fun:G__memfunc_setup_imp
   fun:G__memfunc_setup
   fun:_ZL23G__setup_memfuncTSystemv
   fun:G__incsetup_memfunc
   fun:G__get_methodhandle_noerror
   fun:G__get_methodhandle
   fun:_ZN4Cint12G__ClassInfo9GetMethodEPKcS2_PlNS0_9MatchModeENS0_15InheritanceModeE
   fun:_ZN4Cint11G__CallFunc12SetFuncProtoEPNS_12G__ClassInfoEPKcS4_Pl
   fun:_GLOBAL__I_a
   fun:_ZN16ImageLoaderMachO18doModInitFunctionsERKN11ImageLoader11LinkContextE
}
{
   <insert_a_suppression_name_here>
   Memcheck:Cond
   fun:G__defined_typename_noerror
   fun:G__defined_tagname
   fun:G__search_tagname
   fun:G__set_class_autoloading_table
   fun:_ZN5TCint14LoadLibraryMapEPKc
   fun:_ZN7TSystem4LoadEPKcS1_b
   fun:_ZL21G__G__Base2_275_0_122P8G__valuePKcP8G__parami
   fun:_ZN4Cint11G__CallFunc7ExecuteEPv
   fun:_GLOBAL__I_a
   fun:_ZN16ImageLoaderMachO18doModInitFunctionsERKN11ImageLoader11LinkContextE
   fun:_ZN16ImageLoaderMachO16doInitializationERKN11ImageLoader11LinkContextE
   fun:_ZN11ImageLoader23recursiveInitializationERKNS_11LinkContextEjRNS_21InitializerTimingListE
}
{
   <insert_a_suppression_name_here>
   Memcheck:Value8
   fun:G__defined_typename_noerror
   fun:G__defined_tagname
   fun:G__search_tagname
   fun:G__set_class_autoloading_table
   fun:_ZN5TCint14LoadLibraryMapEPKc
   fun:_ZN7TSystem4LoadEPKcS1_b
   fun:_ZL21G__G__Base2_275_0_122P8G__valuePKcP8G__parami
   fun:_ZN4Cint11G__CallFunc7ExecuteEPv
   fun:_GLOBAL__I_a
   fun:_ZN16ImageLoaderMachO18doModInitFunctionsERKN11ImageLoader11LinkContextE
   fun:_ZN16ImageLoaderMachO16doInitializationERKN11ImageLoader11LinkContextE
   fun:_ZN11ImageLoader23recursiveInitializationERKNS_11LinkContextEjRNS_21InitializerTimingListE
}
{
   <insert_a_suppression_name_here>
   Memcheck:Cond
   fun:G__defined_typename_noerror
   fun:G__search_tagname
   fun:G__set_class_autoloading_table
   fun:_ZN5TCint14LoadLibraryMapEPKc
   fun:_ZN7TSystem4LoadEPKcS1_b
   fun:_ZL21G__G__Base2_275_0_122P8G__valuePKcP8G__parami
   fun:_ZN4Cint11G__CallFunc7ExecuteEPv
   fun:_GLOBAL__I_a
   fun:_ZN16ImageLoaderMachO18doModInitFunctionsERKN11ImageLoader11LinkContextE
   fun:_ZN16ImageLoaderMachO16doInitializationERKN11ImageLoader11LinkContextE
   fun:_ZN11ImageLoader23recursiveInitializationERKNS_11LinkContextEjRNS_21InitializerTimingListE
   fun:_ZN11ImageLoader15runInitializersERKNS_11LinkContextERNS_21InitializerTimingListE
}
{
   <insert_a_suppression_name_here>
   Memcheck:Value8
   fun:G__defined_typename_noerror
   fun:G__search_tagname
   fun:G__set_class_autoloading_table
   fun:_ZN5TCint14LoadLibraryMapEPKc
   fun:_ZN7TSystem4LoadEPKcS1_b
   fun:_ZL21G__G__Base2_275_0_122P8G__valuePKcP8G__parami
   fun:_ZN4Cint11G__CallFunc7ExecuteEPv
   fun:_GLOBAL__I_a
   fun:_ZN16ImageLoaderMachO18doModInitFunctionsERKN11ImageLoader11LinkContextE
   fun:_ZN16ImageLoaderMachO16doInitializationERKN11ImageLoader11LinkContextE
   fun:_ZN11ImageLoader23recursiveInitializationERKNS_11LinkContextEjRNS_21InitializerTimingListE
   fun:_ZN11ImageLoader15runInitializersERKNS_11LinkContextERNS_21InitializerTimingListE
}
{
   <insert_a_suppression_name_here>
   Memcheck:Cond
   fun:G__scopeoperator
   fun:G__defined_templateclass
   fun:G__set_class_autoloading_table
   fun:_ZN5TCint14LoadLibraryMapEPKc
   fun:_ZN7TSystem4LoadEPKcS1_b
   fun:_ZL21G__G__Base2_275_0_122P8G__valuePKcP8G__parami
   fun:_ZN4Cint11G__CallFunc7ExecuteEPv
   fun:_GLOBAL__I_a
   fun:_ZN16ImageLoaderMachO18doModInitFunctionsERKN11ImageLoader11LinkContextE
   fun:_ZN16ImageLoaderMachO16doInitializationERKN11ImageLoader11LinkContextE
   fun:_ZN11ImageLoader23recursiveInitializationERKNS_11LinkContextEjRNS_21InitializerTimingListE
   fun:_ZN11ImageLoader15runInitializersERKNS_11LinkContextERNS_21InitializerTimingListE
}
{
   <insert_a_suppression_name_here>
   Memcheck:Value8
   fun:_platform_memmove$VARIANT$Nehalem
   fun:_ZN18G__FastAllocStringaSEPKc
   fun:G__defined_typename_noerror
   fun:G__defined_tagname
   fun:G__search_tagname
   fun:G__set_class_autoloading_table
   fun:_ZN5TCint14LoadLibraryMapEPKc
   fun:_ZN7TSystem4LoadEPKcS1_b
   fun:_ZL21G__G__Base2_275_0_122P8G__valuePKcP8G__parami
   fun:_ZN4Cint11G__CallFunc7ExecuteEPv
   fun:_GLOBAL__I_a
   fun:_ZN16ImageLoaderMachO18doModInitFunctionsERKN11ImageLoader11LinkContextE
}
{
   <insert_a_suppression_name_here>
   Memcheck:Cond
   fun:_ZN5TCint8TypeNameEPKc
   fun:_ZN11TDataMemberC2EPvP6TClass
   fun:_ZN5TCint23CreateListOfDataMembersEP6TClass
   fun:_ZN6TClass20GetListOfDataMembersEv
   fun:_ZNK6TClass13GetDataMemberEPKc
   fun:_ZN14TBuildRealData7InspectEP6TClassPKcS3_PKv
   fun:_ZN7TObject11ShowMembersER16TMemberInspector
   fun:_ZNK6TClass15CallShowMembersEPvR16TMemberInspectori
   fun:_ZN6TClass13BuildRealDataEPvb
   fun:_ZN14TBuildRealData7InspectEP6TClassPKcS3_PKv
   fun:_ZN5Event11ShowMembersER16TMemberInspector
   fun:_ZNK6TClass12InheritsFromEPKc
}
{
   <insert_a_suppression_name_here>
   Memcheck:Cond
   fun:_ZN10TClassEdit9IsSTLContEPKci
   fun:_ZN6TClass13BuildRealDataEPvb
   fun:_ZN6TClass13BuildRealDataEPvb
   fun:_ZN14TBuildRealData7InspectEP6TClassPKcS3_PKv
   fun:_ZN5Event11ShowMembersER16TMemberInspector
   fun:_ZNK6TClass12InheritsFromEPKc
   obj:*
}
{
   <insert_a_suppression_name_here>
   Memcheck:Cond
   fun:_ZNK6TClass11GetCheckSumEj
   fun:_ZN13TStreamerInfo5BuildEv
   fun:_ZNK6TClass15GetStreamerInfoEi
   fun:_ZN13TStreamerInfo5BuildEv
   fun:_ZNK6TClass15GetStreamerInfoEi
   fun:_ZN5TTree17BuildStreamerInfoEP6TClassPvb
   fun:_ZN5TTree10BronchExecEPKcS1_Pvbii
   fun:_ZN19MidasEventProcessorC1EP5TFileP5TTreeP8Settings
   obj:*
}
{
   <insert_a_suppression_name_here>
   Memcheck:Cond
   fun:_ZN10TClassEdit14ResolveTypedefEPKcb
   fun:_ZNK5TROOT9LoadClassEPKcb
   fun:_ZN6TClass8GetClassEPKcbb
   fun:_ZN6TClass8GetClassEPKcbb
   fun:_ZNK16TStreamerElement15GetClassPointerEv
   fun:_ZN13TStreamerInfo7CompileEv
   fun:_ZN13TStreamerInfo5BuildEv
   fun:_ZNK6TClass15GetStreamerInfoEi
   fun:_ZN13TStreamerInfo5BuildEv
   fun:_ZNK6TClass15GetStreamerInfoEi
   fun:_ZN5TTree17BuildStreamerInfoEP6TClassPvb
   fun:_ZN5TTree10BronchExecEPKcS1_Pvbii
}
{
   <insert_a_suppression_name_here>
   Memcheck:Cond
   fun:_ZN10TClassEdit9IsSTLContEPKci
   fun:_ZNK6TClass11GetCheckSumEj
   fun:_ZN13TStreamerInfo5BuildEv
   fun:_ZNK6TClass15GetStreamerInfoEi
   fun:_ZN5TTree17BuildStreamerInfoEP6TClassPvb
   fun:_ZN14TBranchElement6UnrollEPKcP6TClassS3_Pciii
   fun:_ZN14TBranchElement4InitEP5TTreeP7TBranchPKcP13TStreamerInfoiPciii
   fun:_ZN14TBranchElementC2EP7TBranchPKcP13TStreamerInfoiPciii
   fun:_ZN5TTree10BronchExecEPKcS1_Pvbii
   fun:_ZN19MidasEventProcessorC1EP5TFileP5TTreeP8Settings
   obj:*
}
{
   <insert_a_suppression_name_here>
   Memcheck:Cond
   fun:_ZNK5TLeaf14GetLeafCounterERi
   fun:_ZN5TLeafC2EP7TBranchPKcS3_
   fun:_ZN12TLeafElementC1EP7TBranchPKcii
   fun:_ZN14TBranchElement4InitEP5TTreeP7TBranchPKcP13TStreamerInfoiPciii
   fun:_ZN14TBranchElementC2EP7TBranchPKcP13TStreamerInfoiPciii
   fun:_ZN14TBranchElement6UnrollEPKcP6TClassS3_Pciii
   fun:_ZN14TBranchElement6UnrollEPKcP6TClassS3_Pciii
   fun:_ZN14TBranchElement4InitEP5TTreeP7TBranchPKcP13TStreamerInfoiPciii
   fun:_ZN14TBranchElementC2EP7TBranchPKcP13TStreamerInfoiPciii
   fun:_ZN5TTree10BronchExecEPKcS1_Pvbii
   fun:_ZN19MidasEventProcessorC1EP5TFileP5TTreeP8Settings
   obj:*
}
{
   <insert_a_suppression_name_here>
   Memcheck:Cond
   fun:_ZN5TLeafC2EP7TBranchPKcS3_
   fun:_ZN12TLeafElementC1EP7TBranchPKcii
   fun:_ZN14TBranchElement4InitEP5TTreeP7TBranchPKcP13TStreamerInfoiPciii
   fun:_ZN14TBranchElementC2EP7TBranchPKcP13TStreamerInfoiPciii
   fun:_ZN14TBranchElement6UnrollEPKcP6TClassS3_Pciii
   fun:_ZN14TBranchElement6UnrollEPKcP6TClassS3_Pciii
   fun:_ZN14TBranchElement4InitEP5TTreeP7TBranchPKcP13TStreamerInfoiPciii
   fun:_ZN14TBranchElementC2EP7TBranchPKcP13TStreamerInfoiPciii
   fun:_ZN5TTree10BronchExecEPKcS1_Pvbii
   fun:_ZN19MidasEventProcessorC1EP5TFileP5TTreeP8Settings
   obj:*
}
{
   <insert_a_suppression_name_here>
   Memcheck:Cond
   fun:deflateCopy
   fun:deflateCopy
   fun:deflate
   fun:R__zipMultipleAlgorithm
   fun:_ZN7TBasket11WriteBufferEv
   fun:_ZN7TBranch11WriteBasketEP7TBasketi
   fun:_ZN7TBranch4FillEv
   fun:_ZN14TBranchElement4FillEv
   fun:_ZN14TBranchElement4FillEv
   fun:_ZN14TBranchElement4FillEv
   fun:_ZN5TTree4FillEv
   fun:_ZN19MidasEventProcessor7ProcessER10MidasEvent
}
{
   <insert_a_suppression_name_here>
   Memcheck:Cond
   fun:_ZNK6TClass13GetDataMemberEPKc
   fun:_ZN4ROOT14TSchemaRuleSet7AddRuleEPNS_11TSchemaRuleENS0_17EConsistencyCheckEP7TString
   fun:_ZN4ROOT17TGenericClassInfo13CreateRuleSetERSt6vectorINS_13TSchemaHelperESaIS2_EEb
   fun:_ZN4ROOT17TGenericClassInfo8GetClassEv
   fun:_ZN5TTree5ClassEv
   fun:_ZN4TKeyC2EPK7TObjectPKciP10TDirectory
   fun:_ZN5TFile9CreateKeyEP10TDirectoryPK7TObjectPKci
   fun:_ZN14TDirectoryFile12WriteTObjectEPK7TObjectPKcS4_i
   fun:_ZNK7TObject5WriteEPKcii
   fun:main
}
{
   <insert_a_suppression_name_here>
   Memcheck:Cond
   fun:_ZN5TCint8TypeNameEPKc
   fun:_ZN11TDataMemberC2EPvP6TClass
   fun:_ZN5TCint23CreateListOfDataMembersEP6TClass
   fun:_ZN6TClass20GetListOfDataMembersEv
   fun:_ZNK6TClass13GetDataMemberEPKc
   fun:_ZN4ROOT14TSchemaRuleSet7AddRuleEPNS_11TSchemaRuleENS0_17EConsistencyCheckEP7TString
   fun:_ZN4ROOT17TGenericClassInfo13CreateRuleSetERSt6vectorINS_13TSchemaHelperESaIS2_EEb
   fun:_ZN4ROOT17TGenericClassInfo8GetClassEv
   fun:_ZN5TTree5ClassEv
   fun:_ZN4TKeyC2EPK7TObjectPKciP10TDirectory
   fun:_ZN5TFile9CreateKeyEP10TDirectoryPK7TObjectPKci
   fun:_ZN14TDirectoryFile12WriteTObjectEPK7TObjectPKcS4_i
}
{
   <insert_a_suppression_name_here>
   Memcheck:Cond
   fun:_ZNK6TClass13GetDataMemberEPKc
   fun:_ZN14TBuildRealData7InspectEP6TClassPKcS3_PKv
   fun:_ZN5TTree11ShowMembersER16TMemberInspector
   fun:_ZNK6TClass15CallShowMembersEPvR16TMemberInspectori
   fun:_ZN6TClass13BuildRealDataEPvb
   fun:_ZN11TBufferFile16WriteClassBufferEPK6TClassPv
   fun:_ZN5TTree8StreamerER7TBuffer
   fun:_ZN4TKeyC2EPK7TObjectPKciP10TDirectory
   fun:_ZN5TFile9CreateKeyEP10TDirectoryPK7TObjectPKci
   fun:_ZN14TDirectoryFile12WriteTObjectEPK7TObjectPKcS4_i
   fun:_ZNK7TObject5WriteEPKcii
   fun:main
}
{
   <insert_a_suppression_name_here>
   Memcheck:Cond
   fun:_ZN13TStreamerInfo5BuildEv
   fun:_ZN11TBufferFile16WriteClassBufferEPK6TClassPv
   fun:_ZN5TTree8StreamerER7TBuffer
   fun:_ZN4TKeyC2EPK7TObjectPKciP10TDirectory
   fun:_ZN5TFile9CreateKeyEP10TDirectoryPK7TObjectPKci
   fun:_ZN14TDirectoryFile12WriteTObjectEPK7TObjectPKcS4_i
   fun:_ZNK7TObject5WriteEPKcii
   fun:main
}
{
   <insert_a_suppression_name_here>
   Memcheck:Cond
   fun:_ZN13TStreamerInfo5BuildEv
   fun:_ZNK6TClass15GetStreamerInfoEi
   fun:_ZN13TStreamerInfo5BuildEv
   fun:_ZN11TBufferFile16WriteClassBufferEPK6TClassPv
   fun:_ZN12TLeafElement8StreamerER7TBuffer
   fun:_ZN11TBufferFile16WriteObjectClassEPKvPK6TClass
   fun:_ZN11TBufferFile14WriteObjectAnyEPKvPK6TClass
   fun:_ZN9TObjArray8StreamerER7TBuffer
   fun:_ZN11TBufferFile14WriteFastArrayEPvPK6TClassiP15TMemberStreamer
   fun:_ZN13TStreamerInfo14WriteBufferAuxIPPcEEiR7TBufferRKT_iiii
   fun:_ZN20TStreamerInfoActions18GenericWriteActionER7TBufferPvPKNS_14TConfigurationE
   fun:_ZN11TBufferFile13ApplySequenceERKN20TStreamerInfoActions15TActionSequenceEPv
}
{
   <insert_a_suppression_name_here>
   Memcheck:Addr1
   fun:_platform_memcmp
   fun:_ZNKSs7compareEPKc
   fun:_ZL15R__FindSTLClassPKcbbS0_
   fun:_ZN6TClass8GetClassEPKcbb
   fun:_ZL15R__FindSTLClassPKcbbS0_
   fun:_ZN6TClass8GetClassEPKcbb
   fun:_ZN14TBuildRealData7InspectEP6TClassPKcS3_PKv
   fun:_ZN9TRefTable11ShowMembersER16TMemberInspector
   fun:_ZNK6TClass15CallShowMembersEPvR16TMemberInspectori
   fun:_ZN6TClass13BuildRealDataEPvb
   fun:_ZN11TBufferFile16WriteClassBufferEPK6TClassPv
   fun:_ZN11TBufferFile16WriteObjectClassEPKvPK6TClass
}
{
   <insert_a_suppression_name_here>
   Memcheck:Value8
   fun:_platform_memcmp
   fun:_ZNK10TObjString7IsEqualEPK7TObject
   fun:_ZNK5TPair7IsEqualEPK7TObject
   fun:_ZNK5TList10FindObjectEPK7TObject
   fun:_ZN4TMap6RemoveEP7TObject
   fun:_ZN4ROOT18TMapTypeToClassRec6RemoveEPKc
   fun:_ZN11TClassTable6RemoveEPKc
   fun:_ZN4ROOT17TGenericClassInfoD2Ev
   fun:__cxa_finalize
   fun:exit
   fun:start
}
{
   <insert_a_suppression_name_here>
   Memcheck:Cond
   fun:_ZNK5TList10FindObjectEPK7TObject
   fun:_ZN4TMap6RemoveEP7TObject
   fun:_ZN4ROOT18TMapTypeToClassRec6RemoveEPKc
   fun:_ZN11TClassTable6RemoveEPKc
   fun:_ZN4ROOT17TGenericClassInfoD2Ev
   fun:__cxa_finalize
   fun:exit
   fun:start
}
{
   <insert_a_suppression_name_here>
   Memcheck:Cond
   fun:_ZN5TList6RemoveEP7TObject
   fun:_ZN10THashTable6RemoveEP7TObject
   fun:_ZN4TMap6RemoveEP7TObject
   fun:_ZN4ROOT18TMapTypeToClassRec6RemoveEPKc
   fun:_ZN11TClassTable6RemoveEPKc
   fun:_ZN4ROOT17TGenericClassInfoD2Ev
   fun:__cxa_finalize
   fun:exit
   fun:start
}
{
   <insert_a_suppression_name_here>
   Memcheck:Leak
   match-leak-kinds: definite
   fun:malloc
   fun:G__search_tagname
   fun:G__get_linked_tagnum_fwd
   fun:G__cpp_setup_tagtableG__Base1
   fun:G__cpp_setupG__Base1
   fun:G__call_setup_funcs
   fun:_ZN25G__cpp_setup_initG__Base1C2Ev
   fun:_ZN25G__cpp_setup_initG__Base1C1Ev
   fun:__cxx_global_var_init709
   fun:_GLOBAL__I_a
   fun:_ZN16ImageLoaderMachO18doModInitFunctionsERKN11ImageLoader11LinkContextE
   fun:_ZN16ImageLoaderMachO16doInitializationERKN11ImageLoader11LinkContextE
}
{
   <insert_a_suppression_name_here>
   Memcheck:Leak
   match-leak-kinds: definite
   fun:malloc
   fun:G__search_tagname
   fun:G__get_linked_tagnum_fwd
   fun:G__cpp_setup_tagtableG__Base2
   fun:G__cpp_setupG__Base2
   fun:G__call_setup_funcs
   fun:_GLOBAL__I_a
   fun:_ZN16ImageLoaderMachO18doModInitFunctionsERKN11ImageLoader11LinkContextE
   fun:_ZN16ImageLoaderMachO16doInitializationERKN11ImageLoader11LinkContextE
   fun:_ZN11ImageLoader23recursiveInitializationERKNS_11LinkContextEjRNS_21InitializerTimingListE
   fun:_ZN11ImageLoader23recursiveInitializationERKNS_11LinkContextEjRNS_21InitializerTimingListE
   fun:_ZN11ImageLoader15runInitializersERKNS_11LinkContextERNS_21InitializerTimingListE
}
{
   <insert_a_suppression_name_here>
   Memcheck:Leak
   match-leak-kinds: definite
   fun:malloc
   fun:G__search_tagname
   fun:G__get_linked_tagnum_fwd
   fun:G__cpp_setup_tagtableG__Base3
   fun:G__cpp_setupG__Base3
   fun:G__call_setup_funcs
   fun:_GLOBAL__I_a
   fun:_ZN16ImageLoaderMachO18doModInitFunctionsERKN11ImageLoader11LinkContextE
   fun:_ZN16ImageLoaderMachO16doInitializationERKN11ImageLoader11LinkContextE
   fun:_ZN11ImageLoader23recursiveInitializationERKNS_11LinkContextEjRNS_21InitializerTimingListE
   fun:_ZN11ImageLoader23recursiveInitializationERKNS_11LinkContextEjRNS_21InitializerTimingListE
   fun:_ZN11ImageLoader15runInitializersERKNS_11LinkContextERNS_21InitializerTimingListE
}
{
   <insert_a_suppression_name_here>
   Memcheck:Leak
   match-leak-kinds: definite
   fun:malloc
   fun:G__search_tagname
   fun:G__get_linked_tagnum_fwd
   fun:G__cpp_setup_tagtableG__Cont
   fun:G__cpp_setupG__Cont
   fun:G__call_setup_funcs
   fun:_GLOBAL__I_a
   fun:_ZN16ImageLoaderMachO18doModInitFunctionsERKN11ImageLoader11LinkContextE
   fun:_ZN16ImageLoaderMachO16doInitializationERKN11ImageLoader11LinkContextE
   fun:_ZN11ImageLoader23recursiveInitializationERKNS_11LinkContextEjRNS_21InitializerTimingListE
   fun:_ZN11ImageLoader23recursiveInitializationERKNS_11LinkContextEjRNS_21InitializerTimingListE
   fun:_ZN11ImageLoader15runInitializersERKNS_11LinkContextERNS_21InitializerTimingListE
}
{
   <insert_a_suppression_name_here>
   Memcheck:Leak
   match-leak-kinds: definite
   fun:malloc
   fun:G__search_tagname
   fun:G__get_linked_tagnum_fwd
   fun:G__cpp_setup_tagtableG__Meta
   fun:G__cpp_setupG__Meta
   fun:G__call_setup_funcs
   fun:_GLOBAL__I_a
   fun:_ZN16ImageLoaderMachO18doModInitFunctionsERKN11ImageLoader11LinkContextE
   fun:_ZN16ImageLoaderMachO16doInitializationERKN11ImageLoader11LinkContextE
   fun:_ZN11ImageLoader23recursiveInitializationERKNS_11LinkContextEjRNS_21InitializerTimingListE
   fun:_ZN11ImageLoader23recursiveInitializationERKNS_11LinkContextEjRNS_21InitializerTimingListE
   fun:_ZN11ImageLoader15runInitializersERKNS_11LinkContextERNS_21InitializerTimingListE
}
{
   <insert_a_suppression_name_here>
   Memcheck:Leak
   match-leak-kinds: definite
   fun:malloc
   fun:G__search_tagname
   fun:G__get_linked_tagnum_fwd
   fun:G__cpp_setup_tagtableG__IO
   fun:G__cpp_setupG__IO
   fun:G__call_setup_funcs
   fun:_ZN22G__cpp_setup_initG__IOC2Ev
   fun:_ZN22G__cpp_setup_initG__IOC1Ev
   fun:__cxx_global_var_init528
   fun:_GLOBAL__I_a
   fun:_ZN16ImageLoaderMachO18doModInitFunctionsERKN11ImageLoader11LinkContextE
   fun:_ZN16ImageLoaderMachO16doInitializationERKN11ImageLoader11LinkContextE
}
{
   <insert_a_suppression_name_here>
   Memcheck:Leak
   match-leak-kinds: definite
   fun:malloc
   fun:G__search_tagname
   fun:G__get_linked_tagnum_fwd
   fun:G__cpp_setup_tagtableG__MathCore
   fun:G__cpp_setupG__MathCore
   fun:G__call_setup_funcs
   fun:_GLOBAL__I_a
   fun:_ZN16ImageLoaderMachO18doModInitFunctionsERKN11ImageLoader11LinkContextE
   fun:_ZN16ImageLoaderMachO16doInitializationERKN11ImageLoader11LinkContextE
   fun:_ZN11ImageLoader23recursiveInitializationERKNS_11LinkContextEjRNS_21InitializerTimingListE
   fun:_ZN11ImageLoader23recursiveInitializationERKNS_11LinkContextEjRNS_21InitializerTimingListE
   fun:_ZN11ImageLoader23recursiveInitializationERKNS_11LinkContextEjRNS_21InitializerTimingListE
}
{
   <insert_a_suppression_name_here>
   Memcheck:Leak
   match-leak-kinds: definite
   fun:malloc
   fun:G__search_tagname
   fun:G__get_linked_tagnum_fwd
   fun:G__cpp_setup_tagtableG__Net
   fun:G__cpp_setupG__Net
   fun:G__call_setup_funcs
   fun:_ZN23G__cpp_setup_initG__NetC2Ev
   fun:_ZN23G__cpp_setup_initG__NetC1Ev
   fun:__cxx_global_var_init463
   fun:_GLOBAL__I_a
   fun:_ZN16ImageLoaderMachO18doModInitFunctionsERKN11ImageLoader11LinkContextE
   fun:_ZN16ImageLoaderMachO16doInitializationERKN11ImageLoader11LinkContextE
}
{
   <insert_a_suppression_name_here>
   Memcheck:Leak
   match-leak-kinds: definite
   fun:malloc
   fun:G__search_tagname
   fun:G__get_linked_tagnum_fwd
   fun:G__cpp_setup_tagtableG__Matrix
   fun:G__cpp_setupG__Matrix
   fun:G__call_setup_funcs
   fun:_ZN26G__cpp_setup_initG__MatrixC2Ev
   fun:_ZN26G__cpp_setup_initG__MatrixC1Ev
   fun:__cxx_global_var_init454
   fun:_GLOBAL__I_a
   fun:_ZN16ImageLoaderMachO18doModInitFunctionsERKN11ImageLoader11LinkContextE
   fun:_ZN16ImageLoaderMachO16doInitializationERKN11ImageLoader11LinkContextE
}
{
   <insert_a_suppression_name_here>
   Memcheck:Leak
   match-leak-kinds: definite
   fun:malloc
   fun:G__search_tagname
   fun:G__get_linked_tagnum_fwd
   fun:G__cpp_setup_tagtableG__Hist
   fun:G__cpp_setupG__Hist
   fun:G__call_setup_funcs
   fun:_GLOBAL__I_a
   fun:_ZN16ImageLoaderMachO18doModInitFunctionsERKN11ImageLoader11LinkContextE
   fun:_ZN16ImageLoaderMachO16doInitializationERKN11ImageLoader11LinkContextE
   fun:_ZN11ImageLoader23recursiveInitializationERKNS_11LinkContextEjRNS_21InitializerTimingListE
   fun:_ZN11ImageLoader23recursiveInitializationERKNS_11LinkContextEjRNS_21InitializerTimingListE
   fun:_ZN11ImageLoader15runInitializersERKNS_11LinkContextERNS_21InitializerTimingListE
}
{
   <insert_a_suppression_name_here>
   Memcheck:Leak
   match-leak-kinds: definite
   fun:malloc
   fun:G__search_tagname
   fun:G__get_linked_tagnum_fwd
   fun:G__cpp_setup_tagtableG__Graf
   fun:G__cpp_setupG__Graf
   fun:G__call_setup_funcs
   fun:_ZN24G__cpp_setup_initG__GrafC2Ev
   fun:_ZN24G__cpp_setup_initG__GrafC1Ev
   fun:__cxx_global_var_init414
   fun:_GLOBAL__I_a
   fun:_ZN16ImageLoaderMachO18doModInitFunctionsERKN11ImageLoader11LinkContextE
   fun:_ZN16ImageLoaderMachO16doInitializationERKN11ImageLoader11LinkContextE
}
{
   <insert_a_suppression_name_here>
   Memcheck:Leak
   match-leak-kinds: definite
   fun:malloc
   fun:G__search_tagname
   fun:G__get_linked_tagnum_fwd
   fun:G__cpp_setup_tagtableG__GPad
   fun:G__cpp_setupG__GPad
   fun:G__call_setup_funcs
   fun:_ZN24G__cpp_setup_initG__GPadC2Ev
   fun:_ZN24G__cpp_setup_initG__GPadC1Ev
   fun:__cxx_global_var_init322
   fun:_GLOBAL__I_a
   fun:_ZN16ImageLoaderMachO18doModInitFunctionsERKN11ImageLoader11LinkContextE
   fun:_ZN16ImageLoaderMachO16doInitializationERKN11ImageLoader11LinkContextE
}
{
   <insert_a_suppression_name_here>
   Memcheck:Leak
   match-leak-kinds: definite
   fun:malloc
   fun:G__search_tagname
   fun:G__get_linked_tagnum_fwd
   fun:G__cpp_setup_tagtableG__G3D
   fun:G__cpp_setupG__G3D
   fun:G__call_setup_funcs
   fun:_ZN23G__cpp_setup_initG__G3DC2Ev
   fun:_ZN23G__cpp_setup_initG__G3DC1Ev
   fun:__cxx_global_var_init335
   fun:_GLOBAL__I_a
   fun:_ZN16ImageLoaderMachO18doModInitFunctionsERKN11ImageLoader11LinkContextE
   fun:_ZN16ImageLoaderMachO16doInitializationERKN11ImageLoader11LinkContextE
}
{
   <insert_a_suppression_name_here>
   Memcheck:Leak
   match-leak-kinds: definite
   fun:malloc
   fun:G__search_tagname
   fun:G__get_linked_tagnum_fwd
   fun:G__cpp_setup_tagtableG__Tree
   fun:G__cpp_setupG__Tree
   fun:G__call_setup_funcs
   fun:_ZN24G__cpp_setup_initG__TreeC2Ev
   fun:_ZN24G__cpp_setup_initG__TreeC1Ev
   fun:__cxx_global_var_init710
   fun:_GLOBAL__I_a
   fun:_ZN16ImageLoaderMachO18doModInitFunctionsERKN11ImageLoader11LinkContextE
   fun:_ZN16ImageLoaderMachO16doInitializationERKN11ImageLoader11LinkContextE
}
{
   <insert_a_suppression_name_here>
   Memcheck:Leak
   match-leak-kinds: definite
   fun:malloc
   fun:G__search_tagname
   fun:G__get_linked_tagnum_fwd
   fun:G__cpp_setup_tagtableG__Rint
   fun:G__cpp_setupG__Rint
   fun:G__call_setup_funcs
   fun:_ZN24G__cpp_setup_initG__RintC2Ev
   fun:_ZN24G__cpp_setup_initG__RintC1Ev
   fun:__cxx_global_var_init69
   fun:_GLOBAL__I_a
   fun:_ZN16ImageLoaderMachO18doModInitFunctionsERKN11ImageLoader11LinkContextE
   fun:_ZN16ImageLoaderMachO16doInitializationERKN11ImageLoader11LinkContextE
}
{
   <insert_a_suppression_name_here>
   Memcheck:Leak
   match-leak-kinds: definite
   fun:malloc
   fun:G__search_tagname
   fun:G__get_linked_tagnum_fwd
   fun:G__cpp_setup_tagtableG__Physics
   fun:G__cpp_setupG__Physics
   fun:G__call_setup_funcs
   fun:_ZN27G__cpp_setup_initG__PhysicsC2Ev
   fun:_ZN27G__cpp_setup_initG__PhysicsC1Ev
   fun:__cxx_global_var_init235
   fun:_GLOBAL__I_a
   fun:_ZN16ImageLoaderMachO18doModInitFunctionsERKN11ImageLoader11LinkContextE
   fun:_ZN16ImageLoaderMachO16doInitializationERKN11ImageLoader11LinkContextE
}
{
   <insert_a_suppression_name_here>
   Memcheck:Leak
   match-leak-kinds: definite
   fun:malloc
   fun:_Znwm
   fun:_ZN11TUnixSystem11SetPrognameEPKc
   fun:_ZN12TApplicationC2EPKcPiPPcPvi
   fun:main
}
{
   <insert_a_suppression_name_here>
   Memcheck:Leak
   match-leak-kinds: possible
   fun:calloc
   fun:G__malloc
   fun:_Z16G__alloc_var_refIiPFl8G__valueEEviT0_PKcP12G__var_arrayiRS0_
   fun:_ZL16G__allocvariable8G__valuePS_P12G__var_arrayS2_iiPKcPciRN4Cint19G__DataMemberHandleE
   fun:_Z14G__letvariableR18G__FastAllocString8G__valueP12G__var_arrayS3_RN4Cint19G__DataMemberHandleE
   fun:_Z14G__letvariableR18G__FastAllocString8G__valueP12G__var_arrayS3_
   fun:G__getexpr
   fun:G__memvar_setup
   fun:_ZL31G__setup_memvarTStreamerElementv
   fun:G__incsetup_memvar
   fun:_ZN4Cint17G__DataMemberInfoC1ERNS_12G__ClassInfoE
   fun:_ZN5TCint23CreateListOfDataMembersEP6TClass
}
{
   <insert_a_suppression_name_here>
   Memcheck:Leak
   match-leak-kinds: possible
   fun:calloc
   fun:G__malloc
   fun:_Z16G__alloc_var_refIiPFl8G__valueEEviT0_PKcP12G__var_arrayiRS0_
   fun:_ZL16G__allocvariable8G__valuePS_P12G__var_arrayS2_iiPKcPciRN4Cint19G__DataMemberHandleE
   fun:_Z14G__letvariableR18G__FastAllocString8G__valueP12G__var_arrayS3_RN4Cint19G__DataMemberHandleE
   fun:_Z14G__letvariableR18G__FastAllocString8G__valueP12G__var_arrayS3_
   fun:G__getexpr
   fun:G__memvar_setup
   fun:_ZL27G__setup_memvarTStreamerSTLv
   fun:G__incsetup_memvar
   fun:_ZN4Cint17G__DataMemberInfoC1ERNS_12G__ClassInfoE
   fun:_ZN5TCint23CreateListOfDataMembersEP6TClass
}
{
   <insert_a_suppression_name_here>
   Memcheck:Leak
   match-leak-kinds: possible
   fun:malloc
   fun:G__savestring
   fun:_ZL16G__allocvariable8G__valuePS_P12G__var_arrayS2_iiPKcPciRN4Cint19G__DataMemberHandleE
   fun:_Z14G__letvariableR18G__FastAllocString8G__valueP12G__var_arrayS3_RN4Cint19G__DataMemberHandleE
   fun:_Z14G__letvariableR18G__FastAllocString8G__valueP12G__var_arrayS3_
   fun:G__getexpr
   fun:G__memvar_setup
   fun:_ZL31G__setup_memvarTStreamerElementv
   fun:G__incsetup_memvar
   fun:_ZN4Cint17G__DataMemberInfoC1ERNS_12G__ClassInfoE
   fun:_ZN5TCint23CreateListOfDataMembersEP6TClass
   fun:_ZN6TClass20GetListOfDataMembersEv
}
{
   <insert_a_suppression_name_here>
   Memcheck:Leak
   match-leak-kinds: definite
   fun:malloc
   fun:G__search_typename
   fun:G__search_typename2
   fun:G__cpp_setup_typetableG__MathCore
   fun:G__cpp_setupG__MathCore
   fun:G__call_setup_funcs
   fun:_GLOBAL__I_a
   fun:_ZN16ImageLoaderMachO18doModInitFunctionsERKN11ImageLoader11LinkContextE
   fun:_ZN16ImageLoaderMachO16doInitializationERKN11ImageLoader11LinkContextE
   fun:_ZN11ImageLoader23recursiveInitializationERKNS_11LinkContextEjRNS_21InitializerTimingListE
   fun:_ZN11ImageLoader23recursiveInitializationERKNS_11LinkContextEjRNS_21InitializerTimingListE
   fun:_ZN11ImageLoader23recursiveInitializationERKNS_11LinkContextEjRNS_21InitializerTimingListE
}
{
   <insert_a_suppression_name_here>
   Memcheck:Leak
   match-leak-kinds: possible
   fun:malloc
   fun:G__savestring
   fun:_ZL16G__allocvariable8G__valuePS_P12G__var_arrayS2_iiPKcPciRN4Cint19G__DataMemberHandleE
   fun:_Z14G__letvariableR18G__FastAllocString8G__valueP12G__var_arrayS3_RN4Cint19G__DataMemberHandleE
   fun:_Z14G__letvariableR18G__FastAllocString8G__valueP12G__var_arrayS3_
   fun:G__getexpr
   fun:G__memvar_setup
   fun:_ZL28G__setup_memvarTStreamerBasev
   fun:G__incsetup_memvar
   fun:_ZN4Cint17G__DataMemberInfoC1ERNS_12G__ClassInfoE
   fun:_ZN5TCint23CreateListOfDataMembersEP6TClass
   fun:_ZN6TClass20GetListOfDataMembersEv
}
{
   <insert_a_suppression_name_here>
   Memcheck:Leak
   match-leak-kinds: possible
   fun:malloc
   fun:G__savestring
   fun:_ZL16G__allocvariable8G__valuePS_P12G__var_arrayS2_iiPKcPciRN4Cint19G__DataMemberHandleE
   fun:_Z14G__letvariableR18G__FastAllocString8G__valueP12G__var_arrayS3_RN4Cint19G__DataMemberHandleE
   fun:_Z14G__letvariableR18G__FastAllocString8G__valueP12G__var_arrayS3_
   fun:G__getexpr
   fun:G__memvar_setup
   fun:_ZL27G__setup_memvarTStreamerSTLv
   fun:G__incsetup_memvar
   fun:_ZN4Cint17G__DataMemberInfoC1ERNS_12G__ClassInfoE
   fun:_ZN5TCint23CreateListOfDataMembersEP6TClass
   fun:_ZN6TClass20GetListOfDataMembersEv
}
{
   <insert_a_suppression_name_here>
   Memcheck:Leak
   match-leak-kinds: possible
   fun:malloc
   fun:G__savestring
   fun:_ZL16G__allocvariable8G__valuePS_P12G__var_arrayS2_iiPKcPciRN4Cint19G__DataMemberHandleE
   fun:_Z14G__letvariableR18G__FastAllocString8G__valueP12G__var_arrayS3_RN4Cint19G__DataMemberHandleE
   fun:_Z14G__letvariableR18G__FastAllocString8G__valueP12G__var_arrayS3_
   fun:G__getexpr
   fun:G__memvar_setup
   fun:_ZL33G__setup_memvarTStreamerBasicTypev
   fun:G__incsetup_memvar
   fun:_ZN4Cint17G__DataMemberInfoC1ERNS_12G__ClassInfoE
   fun:_ZN5TCint23CreateListOfDataMembersEP6TClass
   fun:_ZN6TClass20GetListOfDataMembersEv
}
{
   <insert_a_suppression_name_here>
   Memcheck:Leak
   match-leak-kinds: possible
   fun:malloc
   fun:G__savestring
   fun:_ZL16G__allocvariable8G__valuePS_P12G__var_arrayS2_iiPKcPciRN4Cint19G__DataMemberHandleE
   fun:_Z14G__letvariableR18G__FastAllocString8G__valueP12G__var_arrayS3_RN4Cint19G__DataMemberHandleE
   fun:_Z14G__letvariableR18G__FastAllocString8G__valueP12G__var_arrayS3_
   fun:G__getexpr
   fun:G__memvar_setup
   fun:_ZL36G__setup_memvarTStreamerBasicPointerv
   fun:G__incsetup_memvar
   fun:_ZN4Cint17G__DataMemberInfoC1ERNS_12G__ClassInfoE
   fun:_ZN5TCint23CreateListOfDataMembersEP6TClass
   fun:_ZN6TClass20GetListOfDataMembersEv
}
{
   <insert_a_suppression_name_here>
   Memcheck:Leak
   match-leak-kinds: possible
   fun:malloc
   fun:G__savestring
   fun:_ZL16G__allocvariable8G__valuePS_P12G__var_arrayS2_iiPKcPciRN4Cint19G__DataMemberHandleE
   fun:_Z14G__letvariableR18G__FastAllocString8G__valueP12G__var_arrayS3_RN4Cint19G__DataMemberHandleE
   fun:_Z14G__letvariableR18G__FastAllocString8G__valueP12G__var_arrayS3_
   fun:G__getexpr
   fun:G__memvar_setup
   fun:_ZL30G__setup_memvarTStreamerObjectv
   fun:G__incsetup_memvar
   fun:_ZN4Cint17G__DataMemberInfoC1ERNS_12G__ClassInfoE
   fun:_ZN5TCint23CreateListOfDataMembersEP6TClass
   fun:_ZN6TClass20GetListOfDataMembersEv
}
{
   <insert_a_suppression_name_here>
   Memcheck:Leak
   match-leak-kinds: possible
   fun:malloc
   fun:G__savestring
   fun:_ZL16G__allocvariable8G__valuePS_P12G__var_arrayS2_iiPKcPciRN4Cint19G__DataMemberHandleE
   fun:_Z14G__letvariableR18G__FastAllocString8G__valueP12G__var_arrayS3_RN4Cint19G__DataMemberHandleE
   fun:_Z14G__letvariableR18G__FastAllocString8G__valueP12G__var_arrayS3_
   fun:G__getexpr
   fun:G__memvar_setup
   fun:_ZL37G__setup_memvarTStreamerObjectPointerv
   fun:G__incsetup_memvar
   fun:_ZN4Cint17G__DataMemberInfoC1ERNS_12G__ClassInfoE
   fun:_ZN5TCint23CreateListOfDataMembersEP6TClass
   fun:_ZN6TClass20GetListOfDataMembersEv
}
{
   <insert_a_suppression_name_here>
   Memcheck:Leak
   match-leak-kinds: possible
   fun:malloc
   fun:G__savestring
   fun:_ZL16G__allocvariable8G__valuePS_P12G__var_arrayS2_iiPKcPciRN4Cint19G__DataMemberHandleE
   fun:_Z14G__letvariableR18G__FastAllocString8G__valueP12G__var_arrayS3_RN4Cint19G__DataMemberHandleE
   fun:_Z14G__letvariableR18G__FastAllocString8G__valueP12G__var_arrayS3_
   fun:G__getexpr
   fun:G__memvar_setup
   fun:_ZL33G__setup_memvarTStreamerObjectAnyv
   fun:G__incsetup_memvar
   fun:_ZN4Cint17G__DataMemberInfoC1ERNS_12G__ClassInfoE
   fun:_ZN5TCint23CreateListOfDataMembersEP6TClass
   fun:_ZN6TClass20GetListOfDataMembersEv
}
{
   <insert_a_suppression_name_here>
   Memcheck:Leak
   match-leak-kinds: possible
   fun:malloc
   fun:G__savestring
   fun:_ZL16G__allocvariable8G__valuePS_P12G__var_arrayS2_iiPKcPciRN4Cint19G__DataMemberHandleE
   fun:_Z14G__letvariableR18G__FastAllocString8G__valueP12G__var_arrayS3_RN4Cint19G__DataMemberHandleE
   fun:_Z14G__letvariableR18G__FastAllocString8G__valueP12G__var_arrayS3_
   fun:G__getexpr
   fun:G__memvar_setup
   fun:_ZL30G__setup_memvarTStreamerStringv
   fun:G__incsetup_memvar
   fun:_ZN4Cint17G__DataMemberInfoC1ERNS_12G__ClassInfoE
   fun:_ZN5TCint23CreateListOfDataMembersEP6TClass
   fun:_ZN6TClass20GetListOfDataMembersEv
}
{
   <insert_a_suppression_name_here>
   Memcheck:Leak
   match-leak-kinds: possible
   fun:malloc
   fun:G__savestring
   fun:_ZL16G__allocvariable8G__valuePS_P12G__var_arrayS2_iiPKcPciRN4Cint19G__DataMemberHandleE
   fun:_Z14G__letvariableR18G__FastAllocString8G__valueP12G__var_arrayS3_RN4Cint19G__DataMemberHandleE
   fun:_Z14G__letvariableR18G__FastAllocString8G__valueP12G__var_arrayS3_
   fun:G__getexpr
   fun:G__memvar_setup
   fun:_ZL25G__setup_memvarTObjStringv
   fun:G__incsetup_memvar
   fun:_ZN4Cint17G__DataMemberInfoC1ERNS_12G__ClassInfoE
   fun:_ZN5TCint23CreateListOfDataMembersEP6TClass
   fun:_ZN6TClass20GetListOfDataMembersEv
}
{
   <insert_a_suppression_name_here>
   Memcheck:Leak
   match-leak-kinds: definite
   fun:malloc
   fun:G__getparameterlist
   fun:G__define
   fun:G__exec_statement
   fun:G__loadfile
   fun:G__include_file
   fun:G__exec_statement
   fun:G__exec_tempfile_core
   fun:G__exec_tempfile_fp
   fun:G__process_cmd
   fun:_ZN5TCint11ProcessLineEPKcPN12TInterpreter10EErrorCodeE
   fun:_ZN5TCintC2EPKcS1_
}
{
   <insert_a_suppression_name_here>
   Memcheck:Leak
   match-leak-kinds: definite
   fun:malloc
   fun:G__savestring
   fun:_ZL16G__allocvariable8G__valuePS_P12G__var_arrayS2_iiPKcPciRN4Cint19G__DataMemberHandleE
   fun:_Z14G__letvariableR18G__FastAllocString8G__valueP12G__var_arrayS3_RN4Cint19G__DataMemberHandleE
   fun:_Z14G__letvariableR18G__FastAllocString8G__valueP12G__var_arrayS3_
   fun:G__getexpr
   fun:G__set_stdio
   fun:G__main
   fun:G__init_cint
   fun:_ZN5TCint8ResetAllEv
   fun:_ZN5TCintC2EPKcS1_
   fun:_ZN5TROOTC2EPKcS1_PPFvvE
}
{
   <insert_a_suppression_name_here>
   Memcheck:Leak
   match-leak-kinds: definite
   fun:malloc
   fun:G__createtemplateclass
   fun:G__tagtable_setup
   fun:G__cpp_setup_tagtableG__Base2
   fun:G__cpp_setupG__Base2
   fun:G__call_setup_funcs
   fun:_GLOBAL__I_a
   fun:_ZN16ImageLoaderMachO18doModInitFunctionsERKN11ImageLoader11LinkContextE
   fun:_ZN16ImageLoaderMachO16doInitializationERKN11ImageLoader11LinkContextE
   fun:_ZN11ImageLoader23recursiveInitializationERKNS_11LinkContextEjRNS_21InitializerTimingListE
   fun:_ZN11ImageLoader23recursiveInitializationERKNS_11LinkContextEjRNS_21InitializerTimingListE
   fun:_ZN11ImageLoader15runInitializersERKNS_11LinkContextERNS_21InitializerTimingListE
}
{
   <insert_a_suppression_name_here>
   Memcheck:Leak
   match-leak-kinds: definite
   fun:malloc
   fun:G__search_tagname
   fun:G__get_linked_tagnum_fwd
   fun:G__cpp_setup_tagtableG__Thread
   fun:G__cpp_setupG__Thread
   fun:G__call_setup_funcs
   fun:_ZN26G__cpp_setup_initG__ThreadC2Ev
   fun:_ZN26G__cpp_setup_initG__ThreadC1Ev
   fun:__cxx_global_var_init133
   fun:_GLOBAL__I_a
   fun:_ZN16ImageLoaderMachO18doModInitFunctionsERKN11ImageLoader11LinkContextE
   fun:_ZN16ImageLoaderMachO16doInitializationERKN11ImageLoader11LinkContextE
}
{
   <insert_a_suppression_name_here>
   Memcheck:Leak
   match-leak-kinds: definite
   fun:malloc
   fun:G__search_typename
   fun:G__search_typename2
   fun:G__cpp_setup_typetableG__IO
   fun:G__cpp_setupG__IO
   fun:G__call_setup_funcs
   fun:_ZN22G__cpp_setup_initG__IOC2Ev
   fun:_ZN22G__cpp_setup_initG__IOC1Ev
   fun:__cxx_global_var_init528
   fun:_GLOBAL__I_a
   fun:_ZN16ImageLoaderMachO18doModInitFunctionsERKN11ImageLoader11LinkContextE
   fun:_ZN16ImageLoaderMachO16doInitializationERKN11ImageLoader11LinkContextE
}
{
   <insert_a_suppression_name_here>
   Memcheck:Leak
   match-leak-kinds: definite
   fun:malloc
   fun:G__search_typename
   fun:G__search_typename2
   fun:G__cpp_setup_typetableG__MathFit
   fun:G__cpp_setupG__MathFit
   fun:G__call_setup_funcs
   fun:_GLOBAL__I_a
   fun:_ZN16ImageLoaderMachO18doModInitFunctionsERKN11ImageLoader11LinkContextE
   fun:_ZN16ImageLoaderMachO16doInitializationERKN11ImageLoader11LinkContextE
   fun:_ZN11ImageLoader23recursiveInitializationERKNS_11LinkContextEjRNS_21InitializerTimingListE
   fun:_ZN11ImageLoader23recursiveInitializationERKNS_11LinkContextEjRNS_21InitializerTimingListE
   fun:_ZN11ImageLoader23recursiveInitializationERKNS_11LinkContextEjRNS_21InitializerTimingListE
}
{
   <insert_a_suppression_name_here>
   Memcheck:Leak
   match-leak-kinds: definite
   fun:malloc
   fun:G__search_typename
   fun:G__search_typename2
   fun:G__cpp_setup_typetableG__Hist
   fun:G__cpp_setupG__Hist
   fun:G__call_setup_funcs
   fun:_GLOBAL__I_a
   fun:_ZN16ImageLoaderMachO18doModInitFunctionsERKN11ImageLoader11LinkContextE
   fun:_ZN16ImageLoaderMachO16doInitializationERKN11ImageLoader11LinkContextE
   fun:_ZN11ImageLoader23recursiveInitializationERKNS_11LinkContextEjRNS_21InitializerTimingListE
   fun:_ZN11ImageLoader23recursiveInitializationERKNS_11LinkContextEjRNS_21InitializerTimingListE
   fun:_ZN11ImageLoader15runInitializersERKNS_11LinkContextERNS_21InitializerTimingListE
}
{
   <insert_a_suppression_name_here>
   Memcheck:Leak
   match-leak-kinds: definite
   fun:malloc
   fun:G__search_typename
   fun:G__search_typename2
   fun:G__cpp_setup_typetableG__Base2
   fun:G__cpp_setupG__Base2
   fun:G__call_setup_funcs
   fun:_GLOBAL__I_a
   fun:_ZN16ImageLoaderMachO18doModInitFunctionsERKN11ImageLoader11LinkContextE
   fun:_ZN16ImageLoaderMachO16doInitializationERKN11ImageLoader11LinkContextE
   fun:_ZN11ImageLoader23recursiveInitializationERKNS_11LinkContextEjRNS_21InitializerTimingListE
   fun:_ZN11ImageLoader23recursiveInitializationERKNS_11LinkContextEjRNS_21InitializerTimingListE
   fun:_ZN11ImageLoader15runInitializersERKNS_11LinkContextERNS_21InitializerTimingListE
}
{
   <insert_a_suppression_name_here>
   Memcheck:Leak
   match-leak-kinds: definite
   fun:malloc
   fun:G__search_typename
   fun:G__search_typename2
   fun:G__cpp_setup_typetableG__Cont
   fun:G__cpp_setupG__Cont
   fun:G__call_setup_funcs
   fun:_GLOBAL__I_a
   fun:_ZN16ImageLoaderMachO18doModInitFunctionsERKN11ImageLoader11LinkContextE
   fun:_ZN16ImageLoaderMachO16doInitializationERKN11ImageLoader11LinkContextE
   fun:_ZN11ImageLoader23recursiveInitializationERKNS_11LinkContextEjRNS_21InitializerTimingListE
   fun:_ZN11ImageLoader23recursiveInitializationERKNS_11LinkContextEjRNS_21InitializerTimingListE
   fun:_ZN11ImageLoader15runInitializersERKNS_11LinkContextERNS_21InitializerTimingListE
}
{
   <insert_a_suppression_name_here>
   Memcheck:Leak
   match-leak-kinds: definite
   fun:malloc
   fun:G__search_typename
   fun:G__search_typename2
   fun:G__cpp_setup_typetableG__Meta
   fun:G__cpp_setupG__Meta
   fun:G__call_setup_funcs
   fun:_GLOBAL__I_a
   fun:_ZN16ImageLoaderMachO18doModInitFunctionsERKN11ImageLoader11LinkContextE
   fun:_ZN16ImageLoaderMachO16doInitializationERKN11ImageLoader11LinkContextE
   fun:_ZN11ImageLoader23recursiveInitializationERKNS_11LinkContextEjRNS_21InitializerTimingListE
   fun:_ZN11ImageLoader23recursiveInitializationERKNS_11LinkContextEjRNS_21InitializerTimingListE
   fun:_ZN11ImageLoader15runInitializersERKNS_11LinkContextERNS_21InitializerTimingListE
}
{
   <insert_a_suppression_name_here>
   Memcheck:Leak
   match-leak-kinds: definite
   fun:malloc
   fun:G__search_typename
   fun:G__search_typename2
   fun:G__cpp_setup_typetable
   fun:G__shl_load
   fun:G__loadfile
   fun:G__loadsystemfile
   fun:_ZN5TCint4LoadEPKcb
   fun:_ZN7TSystem4LoadEPKcS1_b
   fun:_ZN7TSystem4LoadEPKcS1_b
   fun:_ZN5TROOT9LoadClassEPKcS1_b
   fun:_ZN5TCint16AutoLoadCallbackEPKcS1_
}
{
   <insert_a_suppression_name_here>
   Memcheck:Leak
   match-leak-kinds: definite
   fun:malloc
   fun:G__search_typename
   fun:G__search_typename2
   fun:G__cpp_setup_typetable
   fun:G__shl_load
   fun:G__loadfile
   fun:G__loadsystemfile
   fun:_ZN5TCint4LoadEPKcb
   fun:_ZN7TSystem4LoadEPKcS1_b
   fun:_ZN5TROOT9LoadClassEPKcS1_b
   fun:_ZN5TCint16AutoLoadCallbackEPKcS1_
   fun:TCint_AutoLoadCallback
}
{
   <insert_a_suppression_name_here>
   Memcheck:Leak
   match-leak-kinds: definite
   fun:malloc
   fun:G__define
   fun:G__exec_statement
   fun:G__loadfile
   fun:G__include_file
   fun:G__exec_statement
   fun:G__exec_tempfile_core
   fun:G__exec_tempfile_fp
   fun:G__process_cmd
   fun:_ZN5TCint11ProcessLineEPKcPN12TInterpreter10EErrorCodeE
   fun:_ZN5TCintC2EPKcS1_
   fun:_ZN5TROOTC2EPKcS1_PPFvvE
}
{
   <insert_a_suppression_name_here>
   Memcheck:Leak
   match-leak-kinds: definite
   fun:malloc
   fun:G__search_tagname
   fun:G__get_linked_tagnum_fwd
   fun:G__cpp_setup_tagtableG__MetaUtils
   fun:G__cpp_setupG__MetaUtils
   fun:G__call_setup_funcs
   fun:_ZN29G__cpp_setup_initG__MetaUtilsC2Ev
   fun:_ZN29G__cpp_setup_initG__MetaUtilsC1Ev
   fun:__cxx_global_var_init25
   fun:_GLOBAL__I_a
   fun:_ZN16ImageLoaderMachO18doModInitFunctionsERKN11ImageLoader11LinkContextE
   fun:_ZN16ImageLoaderMachO16doInitializationERKN11ImageLoader11LinkContextE
}
{
   <insert_a_suppression_name_here>
   Memcheck:Leak
   match-leak-kinds: definite
   fun:malloc
   fun:G__search_tagname
   fun:G__get_linked_tagnum_fwd
   fun:G__cpp_setupG__MathCore
   fun:G__call_setup_funcs
   fun:_GLOBAL__I_a
   fun:_ZN16ImageLoaderMachO18doModInitFunctionsERKN11ImageLoader11LinkContextE
   fun:_ZN16ImageLoaderMachO16doInitializationERKN11ImageLoader11LinkContextE
   fun:_ZN11ImageLoader23recursiveInitializationERKNS_11LinkContextEjRNS_21InitializerTimingListE
   fun:_ZN11ImageLoader23recursiveInitializationERKNS_11LinkContextEjRNS_21InitializerTimingListE
   fun:_ZN11ImageLoader23recursiveInitializationERKNS_11LinkContextEjRNS_21InitializerTimingListE
   fun:_ZN11ImageLoader15runInitializersERKNS_11LinkContextERNS_21InitializerTimingListE
}
{
   <insert_a_suppression_name_here>
   Memcheck:Leak
   match-leak-kinds: definite
   fun:malloc
   fun:G__search_tagname
   fun:G__get_linked_tagnum_fwd
   fun:G__cpp_setup_tagtableG__MathFit
   fun:G__cpp_setupG__MathFit
   fun:G__call_setup_funcs
   fun:_GLOBAL__I_a
   fun:_ZN16ImageLoaderMachO18doModInitFunctionsERKN11ImageLoader11LinkContextE
   fun:_ZN16ImageLoaderMachO16doInitializationERKN11ImageLoader11LinkContextE
   fun:_ZN11ImageLoader23recursiveInitializationERKNS_11LinkContextEjRNS_21InitializerTimingListE
   fun:_ZN11ImageLoader23recursiveInitializationERKNS_11LinkContextEjRNS_21InitializerTimingListE
   fun:_ZN11ImageLoader23recursiveInitializationERKNS_11LinkContextEjRNS_21InitializerTimingListE
}
{
   <insert_a_suppression_name_here>
   Memcheck:Leak
   match-leak-kinds: definite
   fun:malloc
   fun:G__search_tagname
   fun:G__get_linked_tagnum_fwd
   fun:G__cpp_setup_tagtable
   fun:G__shl_load
   fun:G__loadfile
   fun:G__loadsystemfile
   fun:_ZN5TCint4LoadEPKcb
   fun:_ZN7TSystem4LoadEPKcS1_b
   fun:_ZN7TSystem4LoadEPKcS1_b
   fun:_ZN5TROOT9LoadClassEPKcS1_b
   fun:_ZN5TCint16AutoLoadCallbackEPKcS1_
}
{
   <insert_a_suppression_name_here>
   Memcheck:Leak
   match-leak-kinds: definite
   fun:malloc
   fun:G__search_tagname
   fun:G__get_linked_tagnum_fwd
   fun:G__cpp_setup_tagtable
   fun:G__shl_load
   fun:G__loadfile
   fun:G__loadsystemfile
   fun:_ZN5TCint4LoadEPKcb
   fun:_ZN7TSystem4LoadEPKcS1_b
   fun:_ZN5TROOT9LoadClassEPKcS1_b
   fun:_ZN5TCint16AutoLoadCallbackEPKcS1_
   fun:TCint_AutoLoadCallback
}
{
   <insert_a_suppression_name_here>
   Memcheck:Leak
   match-leak-kinds: definite
   fun:malloc
   fun:G__set_class_autoloading_table
   fun:_ZN5TCint14LoadLibraryMapEPKc
   fun:_ZN7TSystem4LoadEPKcS1_b
   fun:_ZL21G__G__Base2_275_0_122P8G__valuePKcP8G__parami
   fun:_ZN4Cint11G__CallFunc7ExecuteEPv
   fun:_GLOBAL__I_a
   fun:_ZN16ImageLoaderMachO18doModInitFunctionsERKN11ImageLoader11LinkContextE
   fun:_ZN16ImageLoaderMachO16doInitializationERKN11ImageLoader11LinkContextE
   fun:_ZN11ImageLoader23recursiveInitializationERKNS_11LinkContextEjRNS_21InitializerTimingListE
   fun:_ZN11ImageLoader15runInitializersERKNS_11LinkContextERNS_21InitializerTimingListE
   fun:_ZN4dyld15runInitializersEP11ImageLoader
}
{
   <insert_a_suppression_name_here>
   Memcheck:Leak
   match-leak-kinds: possible
   fun:malloc
   fun:_Znwm
   fun:_ZN4ROOT20GenerateInitInstanceEPK10TObjString
   fun:_GLOBAL__I_a
   fun:_ZN16ImageLoaderMachO18doModInitFunctionsERKN11ImageLoader11LinkContextE
   fun:_ZN16ImageLoaderMachO16doInitializationERKN11ImageLoader11LinkContextE
   fun:_ZN11ImageLoader23recursiveInitializationERKNS_11LinkContextEjRNS_21InitializerTimingListE
   fun:_ZN11ImageLoader23recursiveInitializationERKNS_11LinkContextEjRNS_21InitializerTimingListE
   fun:_ZN11ImageLoader15runInitializersERKNS_11LinkContextERNS_21InitializerTimingListE
   fun:_ZN4dyld24initializeMainExecutableEv
   fun:_ZN4dyld5_mainEPK12macho_headermiPPKcS5_S5_Pm
   fun:_ZN13dyldbootstrap5startEPK12macho_headeriPPKclS2_Pm
}
{
   <insert_a_suppression_name_here>
   Memcheck:Leak
   match-leak-kinds: possible
   fun:malloc
   fun:_Znwm
   fun:_ZN6TClassC2EPKcsRKSt9type_infoP16TVirtualIsAProxyPFvPvR16TMemberInspectorES1_S1_iib
   fun:_ZN4ROOT11CreateClassEPKcsRKSt9type_infoP16TVirtualIsAProxyPFvPvR16TMemberInspectorES1_S1_ii
   fun:_ZNK4ROOT20TDefaultInitBehavior11CreateClassEPKcsRKSt9type_infoP16TVirtualIsAProxyPFvPvR16TMemberInspectorES2_S2_ii
   fun:_ZN4ROOT17TGenericClassInfo8GetClassEv
   fun:_ZN15TStreamerObject5ClassEv
   fun:_ZN14TBranchElement6UnrollEPKcP6TClassS3_Pciii
   fun:_ZN14TBranchElement4InitEP5TTreeP7TBranchPKcP13TStreamerInfoiPciii
   fun:_ZN14TBranchElementC2EP7TBranchPKcP13TStreamerInfoiPciii
   fun:_ZN5TTree10BronchExecEPKcS1_Pvbii
   fun:_ZN19MidasEventProcessorC1EP5TFileP5TTreeP8Settings
}
{
   <insert_a_suppression_name_here>
   Memcheck:Leak
   match-leak-kinds: possible
   fun:malloc
   fun:_Znwm
   fun:_ZN20TVirtualStreamerInfoC2EP6TClass
   fun:_ZN13TStreamerInfoC2EP6TClass
   fun:_ZN11TBufferFile16WriteClassBufferEPK6TClassPv
   fun:_ZN15TStreamerObject8StreamerER7TBuffer
   fun:_ZN11TBufferFile16WriteObjectClassEPKvPK6TClass
   fun:_ZN11TBufferFile14WriteObjectAnyEPKvPK6TClass
   fun:_ZN9TObjArray8StreamerER7TBuffer
   fun:_ZN11TBufferFile16WriteObjectClassEPKvPK6TClass
   fun:_ZN11TBufferFile14WriteObjectAnyEPKvPK6TClass
   fun:_ZN13TStreamerInfo8StreamerER7TBuffer
}
{
   <insert_a_suppression_name_here>
   Memcheck:Leak
   match-leak-kinds: possible
   fun:malloc
   fun:_Znwm
   fun:_ZN6TClassC2EPKcsRKSt9type_infoP16TVirtualIsAProxyPFvPvR16TMemberInspectorES1_S1_iib
   fun:_ZN4ROOT11CreateClassEPKcsRKSt9type_infoP16TVirtualIsAProxyPFvPvR16TMemberInspectorES1_S1_ii
   fun:_ZNK4ROOT20TDefaultInitBehavior11CreateClassEPKcsRKSt9type_infoP16TVirtualIsAProxyPFvPvR16TMemberInspectorES2_S2_ii
   fun:_ZN4ROOT17TGenericClassInfo8GetClassEv
   fun:_ZN15TStreamerString5ClassEv
   fun:_ZN13TStreamerInfo8StreamerER7TBuffer
   fun:_ZN11TBufferFile16WriteObjectClassEPKvPK6TClass
   fun:_ZN11TBufferFile14WriteObjectAnyEPKvPK6TClass
   fun:_ZN5TList8StreamerER7TBuffer
   fun:_ZN4TKeyC2EPK7TObjectPKciP10TDirectory
}
{
   <insert_a_suppression_name_here>
   Memcheck:Leak
   match-leak-kinds: possible
   fun:malloc
   fun:_Znwm
   fun:_ZN20TVirtualStreamerInfoC2EP6TClass
   fun:_ZN13TStreamerInfoC2EP6TClass
   fun:_ZN11TBufferFile16WriteClassBufferEPK6TClassPv
   fun:_ZN15TStreamerString8StreamerER7TBuffer
   fun:_ZN11TBufferFile16WriteObjectClassEPKvPK6TClass
   fun:_ZN11TBufferFile14WriteObjectAnyEPKvPK6TClass
   fun:_ZN9TObjArray8StreamerER7TBuffer
   fun:_ZN11TBufferFile16WriteObjectClassEPKvPK6TClass
   fun:_ZN11TBufferFile14WriteObjectAnyEPKvPK6TClass
   fun:_ZN13TStreamerInfo8StreamerER7TBuffer
}
{
   <insert_a_suppression_name_here>
   Memcheck:Leak
   match-leak-kinds: possible
   fun:malloc
   fun:_Znwm
   fun:_ZN16TStreamerElementC2EPKcS1_iiS1_
   fun:_ZN15TStreamerStringC1EPKcS1_i
   fun:_ZN13TStreamerInfo5BuildEv
   fun:_ZN11TBufferFile16WriteClassBufferEPK6TClassPv
   fun:_ZN11TBufferFile16WriteObjectClassEPKvPK6TClass
   fun:_ZN11TBufferFile14WriteObjectAnyEPKvPK6TClass
   fun:_ZN5TList8StreamerER7TBuffer
   fun:_ZN11TBufferFile16WriteObjectClassEPKvPK6TClass
   fun:_ZN11TBufferFile14WriteObjectAnyEPKvPK6TClass
   fun:_ZN5TList8StreamerER7TBuffer
}
{
   <insert_a_suppression_name_here>
   Memcheck:Leak
   match-leak-kinds: definite
   fun:malloc
   fun:G__search_tagname
   fun:G__get_linked_tagnum_fwd
   fun:G__platformMacro
   fun:G__set_stdio
   fun:G__main
   fun:G__init_cint
   fun:_ZN5TCint8ResetAllEv
   fun:_ZN5TCintC2EPKcS1_
   fun:_ZN5TROOTC2EPKcS1_PPFvvE
   fun:_GLOBAL__I_a
   fun:_ZN16ImageLoaderMachO18doModInitFunctionsERKN11ImageLoader11LinkContextE
}
{
   <insert_a_suppression_name_here>
   Memcheck:Leak
   match-leak-kinds: definite
   fun:malloc
   fun:G__search_tagname
   fun:G__get_linked_tagnum_fwd
   fun:G__cpp_setup_tagtableG__Zip
   fun:G__cpp_setupG__Zip
   fun:G__call_setup_funcs
   fun:_ZN23G__cpp_setup_initG__ZipC2Ev
   fun:_ZN23G__cpp_setup_initG__ZipC1Ev
   fun:__cxx_global_var_init46
   fun:_GLOBAL__I_a
   fun:_ZN16ImageLoaderMachO18doModInitFunctionsERKN11ImageLoader11LinkContextE
   fun:_ZN16ImageLoaderMachO16doInitializationERKN11ImageLoader11LinkContextE
}
{
   <insert_a_suppression_name_here>
   Memcheck:Leak
   match-leak-kinds: definite
   fun:malloc
   fun:G__search_tagname
   fun:G__get_linked_tagnum_fwd
   fun:G__cpp_setup_tagtableG__TextInput
   fun:G__cpp_setupG__TextInput
   fun:G__call_setup_funcs
   fun:_ZN29G__cpp_setup_initG__TextInputC2Ev
   fun:_ZN29G__cpp_setup_initG__TextInputC1Ev
   fun:__cxx_global_var_init13
   fun:_GLOBAL__I_a
   fun:_ZN16ImageLoaderMachO18doModInitFunctionsERKN11ImageLoader11LinkContextE
   fun:_ZN16ImageLoaderMachO16doInitializationERKN11ImageLoader11LinkContextE
}
{
   <insert_a_suppression_name_here>
   Memcheck:Leak
   match-leak-kinds: definite
   fun:malloc
   fun:G__search_tagname
   fun:G__get_linked_tagnum_fwd
   fun:G__cpp_setup_tagtableG__Math
   fun:G__cpp_setupG__Math
   fun:G__call_setup_funcs
   fun:_GLOBAL__I_a
   fun:_ZN16ImageLoaderMachO18doModInitFunctionsERKN11ImageLoader11LinkContextE
   fun:_ZN16ImageLoaderMachO16doInitializationERKN11ImageLoader11LinkContextE
   fun:_ZN11ImageLoader23recursiveInitializationERKNS_11LinkContextEjRNS_21InitializerTimingListE
   fun:_ZN11ImageLoader23recursiveInitializationERKNS_11LinkContextEjRNS_21InitializerTimingListE
   fun:_ZN11ImageLoader23recursiveInitializationERKNS_11LinkContextEjRNS_21InitializerTimingListE
}
{
   <insert_a_suppression_name_here>
   Memcheck:Leak
   match-leak-kinds: definite
   fun:malloc
   fun:G__search_tagname
   fun:G__get_linked_tagnum_fwd
   fun:G__cpp_setup_tagtableG__PostScript
   fun:G__cpp_setupG__PostScript
   fun:G__call_setup_funcs
   fun:_ZN30G__cpp_setup_initG__PostScriptC2Ev
   fun:_ZN30G__cpp_setup_initG__PostScriptC1Ev
   fun:__cxx_global_var_init131
   fun:_GLOBAL__I_a
   fun:_ZN16ImageLoaderMachO18doModInitFunctionsERKN11ImageLoader11LinkContextE
   fun:_ZN16ImageLoaderMachO16doInitializationERKN11ImageLoader11LinkContextE
}
{
   <insert_a_suppression_name_here>
   Memcheck:Leak
   match-leak-kinds: definite
   fun:malloc
   fun:_Znwm
   fun:G__memfunc_setup_imp
   fun:G__memfunc_setup
   fun:_ZL30G__setup_memfuncTPluginManagerv
   fun:G__incsetup_memfunc
   fun:G__getfunction
   fun:_Z15G__getstructmemiR18G__FastAllocStringPciS1_PiP12G__var_arrayi
   fun:G__getvariable
   fun:G__getitem
   fun:G__getexpr
   fun:G__exec_statement
}
{
   <insert_a_suppression_name_here>
   Memcheck:Leak
   match-leak-kinds: definite
   fun:malloc
   fun:_Znwm
   fun:G__get_methodhandle_noerror
   fun:G__get_methodhandle
   fun:_ZN4Cint12G__ClassInfo9GetMethodEPKcS2_PlNS0_9MatchModeENS0_15InheritanceModeE
   fun:_ZNK5TCint23ClassInfo_IsValidMethodEPvPKcS2_Pl
   fun:_ZNK6TClass8PropertyEv
   fun:_ZN6TClass13PostLoadCheckEv
   fun:_ZN6TClass8GetClassERKSt9type_infobb
   fun:_ZN19MidasEventProcessorC1EP5TFileP5TTreeP8Settings
   obj:*
}
{
   <insert_a_suppression_name_here>
   Memcheck:Leak
   match-leak-kinds: definite
   fun:malloc
   fun:_Znwm
   fun:G__getfunction
   fun:_Z15G__getstructmemiR18G__FastAllocStringPciS1_PiP12G__var_arrayi
   fun:G__getvariable
   fun:G__getitem
   fun:G__getexpr
   fun:G__exec_statement
   fun:G__interpret_func
   fun:G__getfunction
   fun:G__getitem
   fun:G__getexpr
}
{
   <insert_a_suppression_name_here>
   Memcheck:Leak
   match-leak-kinds: definite
   fun:malloc
   fun:_Znwm
   fun:G__get_methodhandle_noerror
   fun:G__get_methodhandle
   fun:_ZN4Cint12G__ClassInfo9GetMethodEPKcS2_PlNS0_9MatchModeENS0_15InheritanceModeE
   fun:_ZNK5TCint23ClassInfo_IsValidMethodEPvPKcS2_Pl
   fun:_ZNK6TClass8PropertyEv
   fun:_ZN6TClass13PostLoadCheckEv
   fun:_ZNK5TROOT9LoadClassEPKcb
   fun:_ZN14TPluginHandler10LoadPluginEv
   fun:_ZN20TVirtualStreamerInfo7FactoryEv
   fun:_ZN6TClass4InitEPKcsPKSt9type_infoP16TVirtualIsAProxyPFvPvR16TMemberInspectorES1_S1_iib
}
{
   <insert_a_suppression_name_here>
   Memcheck:Leak
   match-leak-kinds: definite
   fun:malloc
   fun:_Znwm
   fun:G__get_methodhandle_noerror
   fun:G__get_methodhandle
   fun:_ZN4Cint12G__ClassInfo9GetMethodEPKcS2_PlNS0_9MatchModeENS0_15InheritanceModeE
   fun:_ZN4Cint11G__CallFunc12SetFuncProtoEPNS_12G__ClassInfoEPKcS4_Pl
   fun:_ZNK6TClass15CallShowMembersEPvR16TMemberInspectori
   fun:_ZN16TMemberInspector18GenericShowMembersEPKcPvb
   fun:_ZN16TMemberInspector13InspectMemberEPKcPvS1_b
   fun:_ZN5Event11ShowMembersER16TMemberInspector
   fun:_ZNK6TClass12InheritsFromEPKc
   obj:*
}
{
   <insert_a_suppression_name_here>
   Memcheck:Leak
   match-leak-kinds: definite
   fun:malloc
   fun:_Znwm
   fun:G__get_methodhandle_noerror
   fun:G__get_methodhandle
   fun:_ZN4Cint12G__ClassInfo9GetMethodEPKcS2_PlNS0_9MatchModeENS0_15InheritanceModeE
   fun:_ZNK5TCint23ClassInfo_IsValidMethodEPvPKcS2_Pl
   fun:_ZNK6TClass8PropertyEv
   fun:_ZN6TClass13PostLoadCheckEv
   fun:_ZNK5TROOT9LoadClassEPKcb
   fun:_ZN6TClass8GetClassEPKcbb
   fun:_ZN14TBuildRealData7InspectEP6TClassPKcS3_PKv
   fun:_ZN5TTree11ShowMembersER16TMemberInspector
}
{
   <insert_a_suppression_name_here>
   Memcheck:Leak
   match-leak-kinds: definite
   fun:malloc
   fun:_Znwm
   fun:G__get_methodhandle_noerror
   fun:G__get_methodhandle
   fun:_ZN4Cint12G__ClassInfo9GetMethodEPKcS2_PlNS0_9MatchModeENS0_15InheritanceModeE
   fun:_ZNK5TCint23ClassInfo_IsValidMethodEPvPKcS2_Pl
   fun:_ZNK6TClass8PropertyEv
   fun:_ZN14TBuildRealData7InspectEP6TClassPKcS3_PKv
   fun:_ZN11TCollection11ShowMembersER16TMemberInspector
   fun:_ZNK6TClass15CallShowMembersEPvR16TMemberInspectori
   fun:_ZN6TClass13BuildRealDataEPvb
   fun:_ZN14TBuildRealData7InspectEP6TClassPKcS3_PKv
}
{
   <insert_a_suppression_name_here>
   Memcheck:Leak
   match-leak-kinds: definite
   fun:malloc
   fun:_Znwm
   fun:G__get_methodhandle_noerror
   fun:G__get_methodhandle
   fun:_ZN4Cint12G__ClassInfo9GetMethodEPKcS2_PlNS0_9MatchModeENS0_15InheritanceModeE
   fun:_ZN4Cint11G__CallFunc12SetFuncProtoEPNS_12G__ClassInfoEPKcS4_Pl
   fun:_ZNK6TClass15CallShowMembersEPvR16TMemberInspectori
   fun:_ZN6TClass13BuildRealDataEPvb
   fun:_ZN14TBuildRealData7InspectEP6TClassPKcS3_PKv
   fun:_ZN4ROOT21TClassRef_ShowMembersEPvR16TMemberInspector
   fun:_ZNK6TClass15CallShowMembersEPvR16TMemberInspectori
   fun:_ZN6TClass13BuildRealDataEPvb
}
{
   <insert_a_suppression_name_here>
   Memcheck:Leak
   match-leak-kinds: definite
   fun:malloc
   fun:_Znwm
   fun:G__get_methodhandle_noerror
   fun:G__get_methodhandle
   fun:_ZN4Cint12G__ClassInfo9GetMethodEPKcS2_PlNS0_9MatchModeENS0_15InheritanceModeE
   fun:_ZN4Cint11G__CallFunc12SetFuncProtoEPNS_12G__ClassInfoEPKcS4_Pl
   fun:_ZNK6TClass15CallShowMembersEPvR16TMemberInspectori
   fun:_ZN16TMemberInspector18GenericShowMembersEPKcPvb
   fun:_ZN16TMemberInspector13InspectMemberEPKcPvS1_b
   fun:_ZN14TBranchElement11ShowMembersER16TMemberInspector
   fun:_ZNK6TClass15CallShowMembersEPvR16TMemberInspectori
   fun:_ZN6TClass13BuildRealDataEPvb
}
{
   <insert_a_suppression_name_here>
   Memcheck:Leak
   match-leak-kinds: definite
   fun:malloc
   fun:_Znwm
   fun:G__get_methodhandle_noerror
   fun:G__get_methodhandle
   fun:_ZN4Cint12G__ClassInfo9GetMethodEPKcS2_PlNS0_9MatchModeENS0_15InheritanceModeE
   fun:_ZN4Cint11G__CallFunc12SetFuncProtoEPNS_12G__ClassInfoEPKcS4_Pl
   fun:_ZNK6TClass15CallShowMembersEPvR16TMemberInspectori
   fun:_ZN16TMemberInspector18GenericShowMembersEPKcPvb
   fun:_ZN16TMemberInspector13InspectMemberEPKcPvS1_b
   fun:_ZN9TRefTable11ShowMembersER16TMemberInspector
   fun:_ZNK6TClass15CallShowMembersEPvR16TMemberInspectori
   fun:_ZN6TClass13BuildRealDataEPvb
}
{
   <insert_a_suppression_name_here>
   Memcheck:Leak
   match-leak-kinds: definite
   fun:malloc
   fun:_Znwm
   fun:G__memfunc_setup_imp
   fun:G__memfunc_setup
   fun:_ZL29G__setup_memfuncTStreamerBasev
   fun:G__incsetup_memfunc
   fun:_ZN4Cint12G__ClassInfo9HasMethodEPKc
   fun:_ZNK5TCint19ClassInfo_HasMethodEPvPKc
   fun:_ZNK6TClass8PropertyEv
   fun:_ZNK6TClass15StreamerDefaultEPvR7TBufferPKS_
   fun:_ZN11TBufferFile16WriteObjectClassEPKvPK6TClass
   fun:_ZN11TBufferFile14WriteObjectAnyEPKvPK6TClass
}
{
   <insert_a_suppression_name_here>
   Memcheck:Leak
   match-leak-kinds: definite
   fun:malloc
   fun:_Znwm
   fun:G__get_methodhandle_noerror
   fun:G__get_methodhandle
   fun:_ZN4Cint12G__ClassInfo9GetMethodEPKcS2_PlNS0_9MatchModeENS0_15InheritanceModeE
   fun:_ZNK5TCint23ClassInfo_IsValidMethodEPvPKcS2_Pl
   fun:_ZNK6TClass8PropertyEv
   fun:_ZNK6TClass15StreamerDefaultEPvR7TBufferPKS_
   fun:_ZN11TBufferFile16WriteObjectClassEPKvPK6TClass
   fun:_ZN11TBufferFile14WriteObjectAnyEPKvPK6TClass
   fun:_ZN5TList8StreamerER7TBuffer
   fun:_ZN11TBufferFile16WriteObjectClassEPKvPK6TClass
}
{
   <insert_a_suppression_name_here>
   Memcheck:Leak
   match-leak-kinds: possible
   fun:malloc
   fun:__emutls_get_address
   obj:*
   obj:/dev/ttys000
   obj:*
}
{
   <insert_a_suppression_name_here>
   Memcheck:Leak
   match-leak-kinds: possible
   fun:malloc
   fun:_Znwm
   fun:_ZN6TClass4InitEPKcsPKSt9type_infoP16TVirtualIsAProxyPFvPvR16TMemberInspectorES1_S1_iib
   fun:_ZN6TClassC2EPKcsRKSt9type_infoP16TVirtualIsAProxyPFvPvR16TMemberInspectorES1_S1_iib
   fun:_ZN4ROOT11CreateClassEPKcsRKSt9type_infoP16TVirtualIsAProxyPFvPvR16TMemberInspectorES1_S1_ii
   fun:_ZNK4ROOT20TDefaultInitBehavior11CreateClassEPKcsRKSt9type_infoP16TVirtualIsAProxyPFvPvR16TMemberInspectorES2_S2_ii
   fun:_ZN4ROOT17TGenericClassInfo8GetClassEv
   fun:_ZN10TObjString5ClassEv
   fun:_ZNK6TClass14GetActualClassEPKv
   fun:_ZN11TBufferFile14WriteObjectAnyEPKvPK6TClass
   fun:_ZN5TList8StreamerER7TBuffer
   fun:_ZN11TBufferFile16WriteObjectClassEPKvPK6TClass
}
{
   <insert_a_suppression_name_here>
   Memcheck:Leak
   match-leak-kinds: definite
   fun:malloc
   fun:G__search_typename
   fun:G__search_typename2
   fun:G__cpp_setup_typetableG__Base1
   fun:G__cpp_setupG__Base1
   fun:G__call_setup_funcs
   fun:_ZN25G__cpp_setup_initG__Base1C2Ev
   fun:_ZN25G__cpp_setup_initG__Base1C1Ev
   fun:__cxx_global_var_init709
   fun:_GLOBAL__I_a
   fun:_ZN16ImageLoaderMachO18doModInitFunctionsERKN11ImageLoader11LinkContextE
   fun:_ZN16ImageLoaderMachO16doInitializationERKN11ImageLoader11LinkContextE
}
{
   <insert_a_suppression_name_here>
   Memcheck:Leak
   match-leak-kinds: definite
   fun:malloc
   fun:G__search_typename
   fun:G__search_typename2
   fun:G__cpp_setup_typetableG__PostScript
   fun:G__cpp_setupG__PostScript
   fun:G__call_setup_funcs
   fun:_ZN30G__cpp_setup_initG__PostScriptC2Ev
   fun:_ZN30G__cpp_setup_initG__PostScriptC1Ev
   fun:__cxx_global_var_init131
   fun:_GLOBAL__I_a
   fun:_ZN16ImageLoaderMachO18doModInitFunctionsERKN11ImageLoader11LinkContextE
   fun:_ZN16ImageLoaderMachO16doInitializationERKN11ImageLoader11LinkContextE
}
{
   <insert_a_suppression_name_here>
   Memcheck:Leak
   match-leak-kinds: possible
   fun:malloc
   fun:_Znwm
   fun:_ZNSs9_M_mutateEmmm
   fun:_ZNSs15_M_replace_safeEmmPKcm
   fun:_ZN9TClassRef6AssignEP6TClass
   fun:_ZN19TGenCollectionProxy5ValueC2ERKSsb
   fun:_ZN19TGenCollectionProxy12InitializeExEb
   fun:_ZN19TGenCollectionProxy13GetValueClassEv
   fun:_ZN14TBuildRealData7InspectEP6TClassPKcS3_PKv
   fun:_ZN5Event11ShowMembersER16TMemberInspector
   fun:_ZNK6TClass12InheritsFromEPKc
   obj:*
}
{
   <insert_a_suppression_name_here>
   Memcheck:Leak
   match-leak-kinds: definite
   fun:realloc
   fun:G__add_ipath
   fun:_ZN5TCintC2EPKcS1_
   fun:_ZN5TROOTC2EPKcS1_PPFvvE
   fun:_GLOBAL__I_a
   fun:_ZN16ImageLoaderMachO18doModInitFunctionsERKN11ImageLoader11LinkContextE
   fun:_ZN16ImageLoaderMachO16doInitializationERKN11ImageLoader11LinkContextE
   fun:_ZN11ImageLoader23recursiveInitializationERKNS_11LinkContextEjRNS_21InitializerTimingListE
   fun:_ZN11ImageLoader23recursiveInitializationERKNS_11LinkContextEjRNS_21InitializerTimingListE
   fun:_ZN11ImageLoader15runInitializersERKNS_11LinkContextERNS_21InitializerTimingListE
   fun:_ZN4dyld24initializeMainExecutableEv
   fun:_ZN4dyld5_mainEPK12macho_headermiPPKcS5_S5_Pm
}
{
   <insert_a_suppression_name_here>
   Memcheck:Leak
   match-leak-kinds: possible
   fun:malloc
   fun:_Znwm
   fun:_ZNSs9_M_mutateEmmm
   fun:_ZNSs15_M_replace_safeEmmPKcm
   fun:_ZN9TClassRef6AssignEP6TClass
   fun:_ZN19TGenCollectionProxy5ValueC2ERKSsb
   fun:_ZN19TGenCollectionProxy12InitializeExEb
   fun:_ZN19TGenCollectionProxy26GetFunctionCreateIteratorsEb
   fun:_ZN13TStreamerInfo13AddReadActionEiP16TStreamerElement
   fun:_ZN13TStreamerInfo7CompileEv
   fun:_ZN13TStreamerInfo5BuildEv
   fun:_ZNK6TClass15GetStreamerInfoEi
}
{
   <insert_a_suppression_name_here>
   Memcheck:Leak
   match-leak-kinds: possible
   fun:malloc
   fun:_Znwm
   fun:_ZNSs9_M_mutateEmmm
   fun:_ZNSs15_M_replace_safeEmmPKcm
   fun:_ZN9TClassRef6AssignEP6TClass
   fun:_ZN4ROOT14TSchemaRuleSet8SetClassEP6TClass
   fun:_ZN6TClass14GetSchemaRulesEb
   fun:_ZN4ROOT17TGenericClassInfo13CreateRuleSetERSt6vectorINS_13TSchemaHelperESaIS2_EEb
   fun:_ZN4ROOT17TGenericClassInfo8GetClassEv
   fun:_ZN5TTree5ClassEv
   fun:_ZN4TKeyC2EPK7TObjectPKciP10TDirectory
   fun:_ZN5TFile9CreateKeyEP10TDirectoryPK7TObjectPKci
}
{
   <insert_a_suppression_name_here>
   Memcheck:Leak
   match-leak-kinds: possible
   fun:malloc
   fun:_Znwm
   fun:_ZNSs9_M_mutateEmmm
   fun:_ZNSs15_M_replace_safeEmmPKcm
   fun:_ZN9TClassRef6AssignEP6TClass
   fun:_ZN10TBaseClass15GetClassPointerEb
   fun:_ZN6TClass12GetBaseClassEPKS_
   fun:_ZNK6TClass12InheritsFromEPKS_
   fun:_ZNK6TClass15CallShowMembersEPvR16TMemberInspectori
   fun:_ZN6TClass13BuildRealDataEPvb
   fun:_ZN11TBufferFile16WriteClassBufferEPK6TClassPv
   fun:_ZN5TTree8StreamerER7TBuffer
}
{
   <insert_a_suppression_name_here>
   Memcheck:Leak
   match-leak-kinds: possible
   fun:malloc
   fun:_Znwm
   fun:_ZNSs9_M_mutateEmmm
   fun:_ZNSs15_M_replace_safeEmmPKcm
   fun:_ZN9TClassRef6AssignEP6TClass
   fun:_ZN19TGenCollectionProxy5ValueC2ERKSsb
   fun:_ZN19TGenCollectionProxy12InitializeExEb
   fun:_ZN19TGenCollectionProxy13GetValueClassEv
   fun:_ZN14TBuildRealData7InspectEP6TClassPKcS3_PKv
   fun:_ZN9TRefTable11ShowMembersER16TMemberInspector
   fun:_ZNK6TClass15CallShowMembersEPvR16TMemberInspectori
   fun:_ZN6TClass13BuildRealDataEPvb
}
{
   <insert_a_suppression_name_here>
   Memcheck:Leak
   match-leak-kinds: possible
   fun:malloc
   fun:_Znwm
   fun:_ZNSs9_M_mutateEmmm
   fun:_ZNSs15_M_replace_safeEmmPKcm
   fun:_ZN9TClassRef6AssignEP6TClass
   fun:_ZN19TGenCollectionProxy5ValueC2ERKSsb
   fun:_ZN19TGenCollectionProxy12InitializeExEb
   fun:_ZN19TGenCollectionProxy9PushProxyEPv
   fun:_ZN24TCollectionClassStreamer6StreamER7TBufferPvPK6TClass
   fun:_ZN11TBufferFile14WriteFastArrayEPvPK6TClassiP15TMemberStreamer
   fun:_ZN13TStreamerInfo14WriteBufferAuxIPPcEEiR7TBufferRKT_iiii
   fun:_ZN20TStreamerInfoActions18GenericWriteActionER7TBufferPvPKNS_14TConfigurationE
}
{
   <insert_a_suppression_name_here>
   Memcheck:Leak
   match-leak-kinds: possible
   fun:malloc
   fun:_Znwm
   fun:_ZNSs9_M_mutateEmmm
   fun:_ZNSs15_M_replace_safeEmmPKcm
   fun:_ZN9TClassRef6AssignEP6TClass
   fun:_ZN10TBaseClass15GetClassPointerEb
   fun:_ZN6TClass25GetBaseClassOffsetRecurseEPKS_
   fun:_ZN6TClass25GetBaseClassOffsetRecurseEPKS_
   fun:_ZN6TClass18GetBaseClassOffsetEPKS_
   fun:_ZN11TBufferFile14WriteObjectAnyEPKvPK6TClass
   fun:_ZN9TObjArray8StreamerER7TBuffer
   fun:_ZN11TBufferFile16WriteObjectClassEPKvPK6TClass
}
{
   <insert_a_suppression_name_here>
   Memcheck:Leak
   match-leak-kinds: possible
   fun:malloc
   fun:_Znwm
   fun:_ZN6TNamed8SetTitleEPKc
   fun:_ZN9TDataTypeC2EPv
   fun:_ZN5TCint17UpdateListOfTypesEv
   fun:_ZN12TApplicationC2EPKcPiPPcPvi
   fun:main
}
{
   <insert_a_suppression_name_here>
   Memcheck:Leak
   match-leak-kinds: possible
   fun:malloc
   fun:_Znwm
   fun:_ZN6TNamed7SetNameEPKc
   fun:_ZN9TDataTypeC2EPv
   fun:_ZN5TCint17UpdateListOfTypesEv
   fun:_ZN12TApplicationC2EPKcPiPPcPvi
   fun:main
}
{
   <insert_a_suppression_name_here>
   Memcheck:Leak
   match-leak-kinds: possible
   fun:malloc
   fun:_Znwm
   fun:_ZNSs9_M_mutateEmmm
   fun:_ZNSs15_M_replace_safeEmmPKcm
   fun:_ZN9TClassRef6AssignEP6TClass
   fun:_ZN10TBaseClass15GetClassPointerEb
   fun:_ZN6TClass12GetBaseClassEPKS_
   fun:_ZNK6TClass12InheritsFromEPKS_
   fun:_ZNK6TClass8PropertyEv
   fun:_ZN6TClass13PostLoadCheckEv
   fun:_ZN6TClass8GetClassERKSt9type_infobb
   fun:_ZN19MidasEventProcessorC1EP5TFileP5TTreeP8Settings
}
{
   <insert_a_suppression_name_here>
   Memcheck:Leak
   match-leak-kinds: possible
   fun:malloc
   fun:_Znwm
   fun:_ZN6TClassC2EPKcsRKSt9type_infoP16TVirtualIsAProxyPFvPvR16TMemberInspectorES1_S1_iib
   fun:_ZN4ROOT11CreateClassEPKcsRKSt9type_infoP16TVirtualIsAProxyPFvPvR16TMemberInspectorES1_S1_ii
   fun:_ZNK4ROOT20TDefaultInitBehavior11CreateClassEPKcsRKSt9type_infoP16TVirtualIsAProxyPFvPvR16TMemberInspectorES2_S2_ii
   fun:_ZN4ROOT17TGenericClassInfo8GetClassEv
   fun:_ZN16TStreamerElement5ClassEv
   fun:_ZN13TStreamerInfo5BuildEv
   fun:_ZNK6TClass15GetStreamerInfoEi
   fun:_ZN5TTree17BuildStreamerInfoEP6TClassPvb
   fun:_ZN5TTree10BronchExecEPKcS1_Pvbii
   fun:_ZN19MidasEventProcessorC1EP5TFileP5TTreeP8Settings
}
{
   <insert_a_suppression_name_here>
   Memcheck:Leak
   match-leak-kinds: possible
   fun:malloc
   fun:_Znwm
   fun:_ZN6TClassC2EPKcsRKSt9type_infoP16TVirtualIsAProxyPFvPvR16TMemberInspectorES1_S1_iib
   fun:_ZN4ROOT11CreateClassEPKcsRKSt9type_infoP16TVirtualIsAProxyPFvPvR16TMemberInspectorES1_S1_ii
   fun:_ZNK4ROOT20TDefaultInitBehavior11CreateClassEPKcsRKSt9type_infoP16TVirtualIsAProxyPFvPvR16TMemberInspectorES2_S2_ii
   fun:_ZN4ROOT17TGenericClassInfo8GetClassEv
   fun:_ZN21TStreamerBasicPointer5ClassEv
   fun:_ZN14TBranchElement4InitEP5TTreeP7TBranchPKcP13TStreamerInfoiPciii
   fun:_ZN14TBranchElementC2EP7TBranchPKcP13TStreamerInfoiPciii
   fun:_ZN5TTree10BronchExecEPKcS1_Pvbii
   fun:_ZN19MidasEventProcessorC1EP5TFileP5TTreeP8Settings
   obj:*
}
{
   <insert_a_suppression_name_here>
   Memcheck:Leak
   match-leak-kinds: possible
   fun:malloc
   fun:_Znwm
   fun:_ZN6TClassC2EPKcsRKSt9type_infoP16TVirtualIsAProxyPFvPvR16TMemberInspectorES1_S1_iib
   fun:_ZN4ROOT11CreateClassEPKcsRKSt9type_infoP16TVirtualIsAProxyPFvPvR16TMemberInspectorES1_S1_ii
   fun:_ZNK4ROOT20TDefaultInitBehavior11CreateClassEPKcsRKSt9type_infoP16TVirtualIsAProxyPFvPvR16TMemberInspectorES2_S2_ii
   fun:_ZN4ROOT17TGenericClassInfo8GetClassEv
   fun:_ZN18TStreamerBasicType5ClassEv
   fun:_ZN14TBranchElement6UnrollEPKcP6TClassS3_Pciii
   fun:_ZN14TBranchElement4InitEP5TTreeP7TBranchPKcP13TStreamerInfoiPciii
   fun:_ZN14TBranchElementC2EP7TBranchPKcP13TStreamerInfoiPciii
   fun:_ZN5TTree10BronchExecEPKcS1_Pvbii
   fun:_ZN19MidasEventProcessorC1EP5TFileP5TTreeP8Settings
}
{
   <insert_a_suppression_name_here>
   Memcheck:Leak
   match-leak-kinds: possible
   fun:malloc
   fun:_Znwm
   fun:_ZN6TNamed8SetTitleEPKc
   fun:_ZN6TClass4InitEPKcsPKSt9type_infoP16TVirtualIsAProxyPFvPvR16TMemberInspectorES1_S1_iib
   fun:_ZN6TClassC2EPKcsRKSt9type_infoP16TVirtualIsAProxyPFvPvR16TMemberInspectorES1_S1_iib
   fun:_ZN4ROOT11CreateClassEPKcsRKSt9type_infoP16TVirtualIsAProxyPFvPvR16TMemberInspectorES1_S1_ii
   fun:_ZNK4ROOT20TDefaultInitBehavior11CreateClassEPKcsRKSt9type_infoP16TVirtualIsAProxyPFvPvR16TMemberInspectorES2_S2_ii
   fun:_ZN4ROOT17TGenericClassInfo8GetClassEv
   fun:_ZN15TStreamerObject5ClassEv
   fun:_ZN14TBranchElement6UnrollEPKcP6TClassS3_Pciii
   fun:_ZN14TBranchElement4InitEP5TTreeP7TBranchPKcP13TStreamerInfoiPciii
   fun:_ZN14TBranchElementC2EP7TBranchPKcP13TStreamerInfoiPciii
}
{
   <insert_a_suppression_name_here>
   Memcheck:Leak
   match-leak-kinds: possible
   fun:malloc
   fun:_Znwm
   fun:_ZN6TClassC2EPKcsRKSt9type_infoP16TVirtualIsAProxyPFvPvR16TMemberInspectorES1_S1_iib
   fun:_ZN4ROOT11CreateClassEPKcsRKSt9type_infoP16TVirtualIsAProxyPFvPvR16TMemberInspectorES1_S1_ii
   fun:_ZNK4ROOT20TDefaultInitBehavior11CreateClassEPKcsRKSt9type_infoP16TVirtualIsAProxyPFvPvR16TMemberInspectorES2_S2_ii
   fun:_ZN4ROOT17TGenericClassInfo8GetClassEv
   fun:_ZN18TStreamerObjectAny5ClassEv
   fun:_ZN14TBranchElement6UnrollEPKcP6TClassS3_Pciii
   fun:_ZN14TBranchElement4InitEP5TTreeP7TBranchPKcP13TStreamerInfoiPciii
   fun:_ZN14TBranchElementC2EP7TBranchPKcP13TStreamerInfoiPciii
   fun:_ZN5TTree10BronchExecEPKcS1_Pvbii
   fun:_ZN19MidasEventProcessorC1EP5TFileP5TTreeP8Settings
}
{
   <insert_a_suppression_name_here>
   Memcheck:Leak
   match-leak-kinds: possible
   fun:malloc
   fun:_Znwm
   fun:_ZN13TStreamerInfo7CompileEv
   fun:_ZN13TStreamerInfo5BuildEv
   fun:_ZNK6TClass15GetStreamerInfoEi
   fun:_ZN13TStreamerInfo14WriteBufferAuxIPPcEEiR7TBufferRKT_iiii
   fun:_ZN20TStreamerInfoActions19WriteVectorWrappingER7TBufferPvPKvPKNS_18TLoopConfigurationEPKNS_14TConfigurationE
   fun:_ZN11TBufferFile13ApplySequenceERKN20TStreamerInfoActions15TActionSequenceEPvS4_
   fun:_ZN14TBranchElement26FillLeavesCollectionMemberER7TBuffer
   fun:_ZN7TBranch4FillEv
   fun:_ZN14TBranchElement4FillEv
   fun:_ZN14TBranchElement4FillEv
}
{
   <insert_a_suppression_name_here>
   Memcheck:Leak
   match-leak-kinds: possible
   fun:malloc
   fun:_Znwm
   fun:_ZN5TList7AddLastEP7TObject
   fun:_ZN5TCint23CreateListOfBaseClassesEP6TClass
   fun:_ZN6TClass25GetBaseClassOffsetRecurseEPKS_
   fun:_ZN6TClass25GetBaseClassOffsetRecurseEPKS_
   fun:_ZN6TClass18GetBaseClassOffsetEPKS_
   fun:_ZN11TBufferFile14WriteObjectAnyEPKvPK6TClass
   fun:_ZN9TObjArray8StreamerER7TBuffer
   fun:_ZN11TBufferFile16WriteObjectClassEPKvPK6TClass
   fun:_ZN11TBufferFile14WriteObjectAnyEPKvPK6TClass
   fun:_ZN13TStreamerInfo8StreamerER7TBuffer
}
{
   <insert_a_suppression_name_here>
   Memcheck:Leak
   match-leak-kinds: possible
   fun:malloc
   fun:_Znwm
   fun:_ZN5TList7AddLastEP7TObject
   fun:_ZN5TCint23CreateListOfDataMembersEP6TClass
   fun:_ZN6TClass20GetListOfDataMembersEv
   fun:_ZNK6TClass13GetDataMemberEPKc
   fun:_ZN14TBuildRealData7InspectEP6TClassPKcS3_PKv
   fun:_ZN13TStreamerBase11ShowMembersER16TMemberInspector
   fun:_ZNK6TClass15CallShowMembersEPvR16TMemberInspectori
   fun:_ZN6TClass13BuildRealDataEPvb
   fun:_ZN11TBufferFile16WriteClassBufferEPK6TClassPv
   fun:_ZN13TStreamerBase8StreamerER7TBuffer
}
{
   <insert_a_suppression_name_here>
   Memcheck:Leak
   match-leak-kinds: possible
   fun:malloc
   fun:_Znwm
   fun:_ZN11TDataMemberC2EPvP6TClass
   fun:_ZN5TCint23CreateListOfDataMembersEP6TClass
   fun:_ZN6TClass20GetListOfDataMembersEv
   fun:_ZNK6TClass13GetDataMemberEPKc
   fun:_ZN14TBuildRealData7InspectEP6TClassPKcS3_PKv
   fun:_ZN13TStreamerBase11ShowMembersER16TMemberInspector
   fun:_ZNK6TClass15CallShowMembersEPvR16TMemberInspectori
   fun:_ZN6TClass13BuildRealDataEPvb
   fun:_ZN11TBufferFile16WriteClassBufferEPK6TClassPv
   fun:_ZN13TStreamerBase8StreamerER7TBuffer
}
{
   <insert_a_suppression_name_here>
   Memcheck:Leak
   match-leak-kinds: possible
   fun:malloc
   fun:_Znwm
   fun:_ZN5TList7AddLastEP7TObject
   fun:_ZN14TBuildRealData7InspectEP6TClassPKcS3_PKv
   fun:_ZN13TStreamerBase11ShowMembersER16TMemberInspector
   fun:_ZNK6TClass15CallShowMembersEPvR16TMemberInspectori
   fun:_ZN6TClass13BuildRealDataEPvb
   fun:_ZN11TBufferFile16WriteClassBufferEPK6TClassPv
   fun:_ZN13TStreamerBase8StreamerER7TBuffer
   fun:_ZN11TBufferFile16WriteObjectClassEPKvPK6TClass
   fun:_ZN11TBufferFile14WriteObjectAnyEPKvPK6TClass
   fun:_ZN9TObjArray8StreamerER7TBuffer
}
{
   <insert_a_suppression_name_here>
   Memcheck:Leak
   match-leak-kinds: possible
   fun:malloc
   fun:_Znwm
   fun:_ZN5TList7AddLastEP7TObject
   fun:_ZN5TCint23CreateListOfDataMembersEP6TClass
   fun:_ZN6TClass20GetListOfDataMembersEv
   fun:_ZNK6TClass13GetDataMemberEPKc
   fun:_ZN14TBuildRealData7InspectEP6TClassPKcS3_PKv
   fun:_ZN16TStreamerElement11ShowMembersER16TMemberInspector
   fun:_ZNK6TClass15CallShowMembersEPvR16TMemberInspectori
   fun:_ZN6TClass13BuildRealDataEPvb
   fun:_ZN11TBufferFile16WriteClassBufferEPK6TClassPv
   fun:_ZN13TStreamerBase8StreamerER7TBuffer
}
{
   <insert_a_suppression_name_here>
   Memcheck:Leak
   match-leak-kinds: possible
   fun:malloc
   fun:_Znwm
   fun:_ZN5TList7AddLastEP7TObject
   fun:_ZN14TBuildRealData7InspectEP6TClassPKcS3_PKv
   fun:_ZN16TStreamerElement11ShowMembersER16TMemberInspector
   fun:_ZNK6TClass15CallShowMembersEPvR16TMemberInspectori
   fun:_ZN6TClass13BuildRealDataEPvb
   fun:_ZN11TBufferFile16WriteClassBufferEPK6TClassPv
   fun:_ZN13TStreamerBase8StreamerER7TBuffer
   fun:_ZN11TBufferFile16WriteObjectClassEPKvPK6TClass
   fun:_ZN11TBufferFile14WriteObjectAnyEPKvPK6TClass
   fun:_ZN9TObjArray8StreamerER7TBuffer
}
{
   <insert_a_suppression_name_here>
   Memcheck:Leak
   match-leak-kinds: possible
   fun:malloc
   fun:_Znwm
   fun:_ZN5TList7AddLastEP7TObject
   fun:_ZN14TBuildRealData7InspectEP6TClassPKcS3_PKv
   fun:_ZN6TNamed11ShowMembersER16TMemberInspector
   fun:_ZNK6TClass15CallShowMembersEPvR16TMemberInspectori
   fun:_ZN6TClass13BuildRealDataEPvb
   fun:_ZN11TBufferFile16WriteClassBufferEPK6TClassPv
   fun:_ZN13TStreamerBase8StreamerER7TBuffer
   fun:_ZN11TBufferFile16WriteObjectClassEPKvPK6TClass
   fun:_ZN11TBufferFile14WriteObjectAnyEPKvPK6TClass
   fun:_ZN9TObjArray8StreamerER7TBuffer
}
{
   <insert_a_suppression_name_here>
   Memcheck:Leak
   match-leak-kinds: possible
   fun:malloc
   fun:_Znwm
   fun:_ZN5TList7AddLastEP7TObject
   fun:_ZN14TBuildRealData7InspectEP6TClassPKcS3_PKv
   fun:_ZN7TObject11ShowMembersER16TMemberInspector
   fun:_ZNK6TClass15CallShowMembersEPvR16TMemberInspectori
   fun:_ZN6TClass13BuildRealDataEPvb
   fun:_ZN11TBufferFile16WriteClassBufferEPK6TClassPv
   fun:_ZN13TStreamerBase8StreamerER7TBuffer
   fun:_ZN11TBufferFile16WriteObjectClassEPKvPK6TClass
   fun:_ZN11TBufferFile14WriteObjectAnyEPKvPK6TClass
   fun:_ZN9TObjArray8StreamerER7TBuffer
}
{
   <insert_a_suppression_name_here>
   Memcheck:Leak
   match-leak-kinds: possible
   fun:malloc
   fun:_Znwm
   fun:_ZN5TList7AddLastEP7TObject
   fun:_ZN14TBuildRealData7InspectEP6TClassPKcS3_PKv
   fun:_ZNK6TClass15CallShowMembersEPvR16TMemberInspectori
   fun:_ZN6TClass13BuildRealDataEPvb
   fun:_ZN11TBufferFile16WriteClassBufferEPK6TClassPv
   fun:_ZN13TStreamerBase8StreamerER7TBuffer
   fun:_ZN11TBufferFile16WriteObjectClassEPKvPK6TClass
   fun:_ZN11TBufferFile14WriteObjectAnyEPKvPK6TClass
   fun:_ZN9TObjArray8StreamerER7TBuffer
   fun:_ZN11TBufferFile16WriteObjectClassEPKvPK6TClass
}
{
   <insert_a_suppression_name_here>
   Memcheck:Leak
   match-leak-kinds: possible
   fun:malloc
   fun:_Znwm
   fun:_ZN5TList7AddLastEP7TObject
   fun:_ZN14TBuildRealData7InspectEP6TClassPKcS3_PKv
   fun:_ZN16TStreamerElement11ShowMembersER16TMemberInspector
   fun:_ZNK6TClass15CallShowMembersEPvR16TMemberInspectori
   fun:_ZN6TClass13BuildRealDataEPvb
   fun:_ZN6TClass13BuildRealDataEPvb
   fun:_ZN11TBufferFile16WriteClassBufferEPK6TClassPv
   fun:_ZN13TStreamerBase8StreamerER7TBuffer
   fun:_ZN11TBufferFile16WriteObjectClassEPKvPK6TClass
   fun:_ZN11TBufferFile14WriteObjectAnyEPKvPK6TClass
}
{
   <insert_a_suppression_name_here>
   Memcheck:Leak
   match-leak-kinds: possible
   fun:malloc
   fun:_Znwm
   fun:_ZN5TList7AddLastEP7TObject
   fun:_ZN14TBuildRealData7InspectEP6TClassPKcS3_PKv
   fun:_ZN6TNamed11ShowMembersER16TMemberInspector
   fun:_ZNK6TClass15CallShowMembersEPvR16TMemberInspectori
   fun:_ZN6TClass13BuildRealDataEPvb
   fun:_ZN6TClass13BuildRealDataEPvb
   fun:_ZN11TBufferFile16WriteClassBufferEPK6TClassPv
   fun:_ZN13TStreamerBase8StreamerER7TBuffer
   fun:_ZN11TBufferFile16WriteObjectClassEPKvPK6TClass
   fun:_ZN11TBufferFile14WriteObjectAnyEPKvPK6TClass
}
{
   <insert_a_suppression_name_here>
   Memcheck:Leak
   match-leak-kinds: possible
   fun:malloc
   fun:_Znwm
   fun:_ZN5TList7AddLastEP7TObject
   fun:_ZN14TBuildRealData7InspectEP6TClassPKcS3_PKv
   fun:_ZN7TObject11ShowMembersER16TMemberInspector
   fun:_ZNK6TClass15CallShowMembersEPvR16TMemberInspectori
   fun:_ZN6TClass13BuildRealDataEPvb
   fun:_ZN6TClass13BuildRealDataEPvb
   fun:_ZN11TBufferFile16WriteClassBufferEPK6TClassPv
   fun:_ZN13TStreamerBase8StreamerER7TBuffer
   fun:_ZN11TBufferFile16WriteObjectClassEPKvPK6TClass
   fun:_ZN11TBufferFile14WriteObjectAnyEPKvPK6TClass
}
{
   <insert_a_suppression_name_here>
   Memcheck:Leak
   match-leak-kinds: possible
   fun:malloc
   fun:_Znwm
   fun:_ZN5TList7AddLastEP7TObject
   fun:_ZN14TBuildRealData7InspectEP6TClassPKcS3_PKv
   fun:_ZNK6TClass15CallShowMembersEPvR16TMemberInspectori
   fun:_ZN6TClass13BuildRealDataEPvb
   fun:_ZN6TClass13BuildRealDataEPvb
   fun:_ZN11TBufferFile16WriteClassBufferEPK6TClassPv
   fun:_ZN13TStreamerBase8StreamerER7TBuffer
   fun:_ZN11TBufferFile16WriteObjectClassEPKvPK6TClass
   fun:_ZN11TBufferFile14WriteObjectAnyEPKvPK6TClass
   fun:_ZN9TObjArray8StreamerER7TBuffer
}
{
   <insert_a_suppression_name_here>
   Memcheck:Leak
   match-leak-kinds: possible
   fun:malloc
   fun:_Znwm
   fun:_ZN16TStreamerElementC2EPKcS1_iiS1_
   fun:_ZN13TStreamerBaseC2EPKcS1_i
   fun:_ZN13TStreamerInfo5BuildEv
   fun:_ZN11TBufferFile16WriteClassBufferEPK6TClassPv
   fun:_ZN13TStreamerBase8StreamerER7TBuffer
   fun:_ZN11TBufferFile16WriteObjectClassEPKvPK6TClass
   fun:_ZN11TBufferFile14WriteObjectAnyEPKvPK6TClass
   fun:_ZN9TObjArray8StreamerER7TBuffer
   fun:_ZN11TBufferFile16WriteObjectClassEPKvPK6TClass
   fun:_ZN11TBufferFile14WriteObjectAnyEPKvPK6TClass
}
{
   <insert_a_suppression_name_here>
   Memcheck:Leak
   match-leak-kinds: possible
   fun:malloc
   fun:_Znwm
   fun:_ZN20TVirtualStreamerInfoC2EP6TClass
   fun:_ZN13TStreamerInfoC2EP6TClass
   fun:_ZN13TStreamerInfo7NewInfoEP6TClass
   fun:_ZNK6TClass15GetStreamerInfoEi
   fun:_ZN13TStreamerInfo5BuildEv
   fun:_ZN11TBufferFile16WriteClassBufferEPK6TClassPv
   fun:_ZN13TStreamerBase8StreamerER7TBuffer
   fun:_ZN11TBufferFile16WriteObjectClassEPKvPK6TClass
   fun:_ZN11TBufferFile14WriteObjectAnyEPKvPK6TClass
   fun:_ZN9TObjArray8StreamerER7TBuffer
}
{
   <insert_a_suppression_name_here>
   Memcheck:Leak
   match-leak-kinds: possible
   fun:malloc
   fun:_Znwm
   fun:_ZN16TStreamerElementC2EPKcS1_iiS1_
   fun:_ZN15TStreamerStringC1EPKcS1_i
   fun:_ZN13TStreamerInfo5BuildEv
   fun:_ZNK6TClass15GetStreamerInfoEi
   fun:_ZN13TStreamerInfo5BuildEv
   fun:_ZN11TBufferFile16WriteClassBufferEPK6TClassPv
   fun:_ZN13TStreamerBase8StreamerER7TBuffer
   fun:_ZN11TBufferFile16WriteObjectClassEPKvPK6TClass
   fun:_ZN11TBufferFile14WriteObjectAnyEPKvPK6TClass
   fun:_ZN9TObjArray8StreamerER7TBuffer
}
{
   <insert_a_suppression_name_here>
   Memcheck:Leak
   match-leak-kinds: possible
   fun:malloc
   fun:_Znwm
   fun:_ZN11TDataMemberC2EPvP6TClass
   fun:_ZN5TCint23CreateListOfDataMembersEP6TClass
   fun:_ZN6TClass20GetListOfDataMembersEv
   fun:_ZNK6TClass13GetDataMemberEPKc
   fun:_ZN14TBuildRealData7InspectEP6TClassPKcS3_PKv
   fun:_ZN12TStreamerSTL11ShowMembersER16TMemberInspector
   fun:_ZNK6TClass15CallShowMembersEPvR16TMemberInspectori
   fun:_ZN6TClass13BuildRealDataEPvb
   fun:_ZN11TBufferFile16WriteClassBufferEPK6TClassPv
   fun:_ZN12TStreamerSTL8StreamerER7TBuffer
}
{
   <insert_a_suppression_name_here>
   Memcheck:Leak
   match-leak-kinds: possible
   fun:malloc
   fun:_Znwm
   fun:_ZN5TList7AddLastEP7TObject
   fun:_ZN5TCint23CreateListOfDataMembersEP6TClass
   fun:_ZN6TClass20GetListOfDataMembersEv
   fun:_ZNK6TClass13GetDataMemberEPKc
   fun:_ZN14TBuildRealData7InspectEP6TClassPKcS3_PKv
   fun:_ZN12TStreamerSTL11ShowMembersER16TMemberInspector
   fun:_ZNK6TClass15CallShowMembersEPvR16TMemberInspectori
   fun:_ZN6TClass13BuildRealDataEPvb
   fun:_ZN11TBufferFile16WriteClassBufferEPK6TClassPv
   fun:_ZN12TStreamerSTL8StreamerER7TBuffer
}
{
   <insert_a_suppression_name_here>
   Memcheck:Leak
   match-leak-kinds: possible
   fun:malloc
   fun:_Znwm
   fun:_ZN5TList7AddLastEP7TObject
   fun:_ZN14TBuildRealData7InspectEP6TClassPKcS3_PKv
   fun:_ZN12TStreamerSTL11ShowMembersER16TMemberInspector
   fun:_ZNK6TClass15CallShowMembersEPvR16TMemberInspectori
   fun:_ZN6TClass13BuildRealDataEPvb
   fun:_ZN11TBufferFile16WriteClassBufferEPK6TClassPv
   fun:_ZN12TStreamerSTL8StreamerER7TBuffer
   fun:_ZN11TBufferFile16WriteObjectClassEPKvPK6TClass
   fun:_ZN11TBufferFile14WriteObjectAnyEPKvPK6TClass
   fun:_ZN9TObjArray8StreamerER7TBuffer
}
{
   <insert_a_suppression_name_here>
   Memcheck:Leak
   match-leak-kinds: possible
   fun:malloc
   fun:_Znwm
   fun:_ZN5TList7AddLastEP7TObject
   fun:_ZN14TBuildRealData7InspectEP6TClassPKcS3_PKv
   fun:_ZN16TStreamerElement11ShowMembersER16TMemberInspector
   fun:_ZNK6TClass15CallShowMembersEPvR16TMemberInspectori
   fun:_ZN6TClass13BuildRealDataEPvb
   fun:_ZN11TBufferFile16WriteClassBufferEPK6TClassPv
   fun:_ZN12TStreamerSTL8StreamerER7TBuffer
   fun:_ZN11TBufferFile16WriteObjectClassEPKvPK6TClass
   fun:_ZN11TBufferFile14WriteObjectAnyEPKvPK6TClass
   fun:_ZN9TObjArray8StreamerER7TBuffer
}
{
   <insert_a_suppression_name_here>
   Memcheck:Leak
   match-leak-kinds: possible
   fun:malloc
   fun:_Znwm
   fun:_ZN5TList7AddLastEP7TObject
   fun:_ZN14TBuildRealData7InspectEP6TClassPKcS3_PKv
   fun:_ZN6TNamed11ShowMembersER16TMemberInspector
   fun:_ZNK6TClass15CallShowMembersEPvR16TMemberInspectori
   fun:_ZN6TClass13BuildRealDataEPvb
   fun:_ZN11TBufferFile16WriteClassBufferEPK6TClassPv
   fun:_ZN12TStreamerSTL8StreamerER7TBuffer
   fun:_ZN11TBufferFile16WriteObjectClassEPKvPK6TClass
   fun:_ZN11TBufferFile14WriteObjectAnyEPKvPK6TClass
   fun:_ZN9TObjArray8StreamerER7TBuffer
}
{
   <insert_a_suppression_name_here>
   Memcheck:Leak
   match-leak-kinds: possible
   fun:malloc
   fun:_Znwm
   fun:_ZN5TList7AddLastEP7TObject
   fun:_ZN14TBuildRealData7InspectEP6TClassPKcS3_PKv
   fun:_ZN7TObject11ShowMembersER16TMemberInspector
   fun:_ZNK6TClass15CallShowMembersEPvR16TMemberInspectori
   fun:_ZN6TClass13BuildRealDataEPvb
   fun:_ZN11TBufferFile16WriteClassBufferEPK6TClassPv
   fun:_ZN12TStreamerSTL8StreamerER7TBuffer
   fun:_ZN11TBufferFile16WriteObjectClassEPKvPK6TClass
   fun:_ZN11TBufferFile14WriteObjectAnyEPKvPK6TClass
   fun:_ZN9TObjArray8StreamerER7TBuffer
}
{
   <insert_a_suppression_name_here>
   Memcheck:Leak
   match-leak-kinds: possible
   fun:malloc
   fun:_Znwm
   fun:_ZN5TList7AddLastEP7TObject
   fun:_ZN14TBuildRealData7InspectEP6TClassPKcS3_PKv
   fun:_ZNK6TClass15CallShowMembersEPvR16TMemberInspectori
   fun:_ZN6TClass13BuildRealDataEPvb
   fun:_ZN11TBufferFile16WriteClassBufferEPK6TClassPv
   fun:_ZN12TStreamerSTL8StreamerER7TBuffer
   fun:_ZN11TBufferFile16WriteObjectClassEPKvPK6TClass
   fun:_ZN11TBufferFile14WriteObjectAnyEPKvPK6TClass
   fun:_ZN9TObjArray8StreamerER7TBuffer
   fun:_ZN11TBufferFile16WriteObjectClassEPKvPK6TClass
}
{
   <insert_a_suppression_name_here>
   Memcheck:Leak
   match-leak-kinds: possible
   fun:malloc
   fun:_Znwm
   fun:_ZN16TStreamerElementC2EPKcS1_iiS1_
   fun:_ZN13TStreamerBaseC2EPKcS1_i
   fun:_ZN13TStreamerInfo5BuildEv
   fun:_ZN11TBufferFile16WriteClassBufferEPK6TClassPv
   fun:_ZN12TStreamerSTL8StreamerER7TBuffer
   fun:_ZN11TBufferFile16WriteObjectClassEPKvPK6TClass
   fun:_ZN11TBufferFile14WriteObjectAnyEPKvPK6TClass
   fun:_ZN9TObjArray8StreamerER7TBuffer
   fun:_ZN11TBufferFile16WriteObjectClassEPKvPK6TClass
   fun:_ZN11TBufferFile14WriteObjectAnyEPKvPK6TClass
}
{
   <insert_a_suppression_name_here>
   Memcheck:Leak
   match-leak-kinds: possible
   fun:malloc
   fun:_Znwm
   fun:_ZN5TList7AddLastEP7TObject
   fun:_ZN5TCint23CreateListOfDataMembersEP6TClass
   fun:_ZN6TClass20GetListOfDataMembersEv
   fun:_ZNK6TClass13GetDataMemberEPKc
   fun:_ZN14TBuildRealData7InspectEP6TClassPKcS3_PKv
   fun:_ZN18TStreamerBasicType11ShowMembersER16TMemberInspector
   fun:_ZNK6TClass15CallShowMembersEPvR16TMemberInspectori
   fun:_ZN6TClass13BuildRealDataEPvb
   fun:_ZN11TBufferFile16WriteClassBufferEPK6TClassPv
   fun:_ZN18TStreamerBasicType8StreamerER7TBuffer
}
{
   <insert_a_suppression_name_here>
   Memcheck:Leak
   match-leak-kinds: possible
   fun:malloc
   fun:_Znwm
   fun:_ZN5TList7AddLastEP7TObject
   fun:_ZN14TBuildRealData7InspectEP6TClassPKcS3_PKv
   fun:_ZN18TStreamerBasicType11ShowMembersER16TMemberInspector
   fun:_ZNK6TClass15CallShowMembersEPvR16TMemberInspectori
   fun:_ZN6TClass13BuildRealDataEPvb
   fun:_ZN11TBufferFile16WriteClassBufferEPK6TClassPv
   fun:_ZN18TStreamerBasicType8StreamerER7TBuffer
   fun:_ZN11TBufferFile16WriteObjectClassEPKvPK6TClass
   fun:_ZN11TBufferFile14WriteObjectAnyEPKvPK6TClass
   fun:_ZN9TObjArray8StreamerER7TBuffer
}
{
   <insert_a_suppression_name_here>
   Memcheck:Leak
   match-leak-kinds: possible
   fun:malloc
   fun:_Znwm
   fun:_ZN5TList7AddLastEP7TObject
   fun:_ZN14TBuildRealData7InspectEP6TClassPKcS3_PKv
   fun:_ZN16TStreamerElement11ShowMembersER16TMemberInspector
   fun:_ZNK6TClass15CallShowMembersEPvR16TMemberInspectori
   fun:_ZN6TClass13BuildRealDataEPvb
   fun:_ZN11TBufferFile16WriteClassBufferEPK6TClassPv
   fun:_ZN18TStreamerBasicType8StreamerER7TBuffer
   fun:_ZN11TBufferFile16WriteObjectClassEPKvPK6TClass
   fun:_ZN11TBufferFile14WriteObjectAnyEPKvPK6TClass
   fun:_ZN9TObjArray8StreamerER7TBuffer
}
{
   <insert_a_suppression_name_here>
   Memcheck:Leak
   match-leak-kinds: possible
   fun:malloc
   fun:_Znwm
   fun:_ZN5TList7AddLastEP7TObject
   fun:_ZN14TBuildRealData7InspectEP6TClassPKcS3_PKv
   fun:_ZN6TNamed11ShowMembersER16TMemberInspector
   fun:_ZNK6TClass15CallShowMembersEPvR16TMemberInspectori
   fun:_ZN6TClass13BuildRealDataEPvb
   fun:_ZN11TBufferFile16WriteClassBufferEPK6TClassPv
   fun:_ZN18TStreamerBasicType8StreamerER7TBuffer
   fun:_ZN11TBufferFile16WriteObjectClassEPKvPK6TClass
   fun:_ZN11TBufferFile14WriteObjectAnyEPKvPK6TClass
   fun:_ZN9TObjArray8StreamerER7TBuffer
}
{
   <insert_a_suppression_name_here>
   Memcheck:Leak
   match-leak-kinds: possible
   fun:malloc
   fun:_Znwm
   fun:_ZN5TList7AddLastEP7TObject
   fun:_ZN14TBuildRealData7InspectEP6TClassPKcS3_PKv
   fun:_ZN7TObject11ShowMembersER16TMemberInspector
   fun:_ZNK6TClass15CallShowMembersEPvR16TMemberInspectori
   fun:_ZN6TClass13BuildRealDataEPvb
   fun:_ZN11TBufferFile16WriteClassBufferEPK6TClassPv
   fun:_ZN18TStreamerBasicType8StreamerER7TBuffer
   fun:_ZN11TBufferFile16WriteObjectClassEPKvPK6TClass
   fun:_ZN11TBufferFile14WriteObjectAnyEPKvPK6TClass
   fun:_ZN9TObjArray8StreamerER7TBuffer
}
{
   <insert_a_suppression_name_here>
   Memcheck:Leak
   match-leak-kinds: possible
   fun:malloc
   fun:_Znwm
   fun:_ZN5TList7AddLastEP7TObject
   fun:_ZN14TBuildRealData7InspectEP6TClassPKcS3_PKv
   fun:_ZNK6TClass15CallShowMembersEPvR16TMemberInspectori
   fun:_ZN6TClass13BuildRealDataEPvb
   fun:_ZN11TBufferFile16WriteClassBufferEPK6TClassPv
   fun:_ZN18TStreamerBasicType8StreamerER7TBuffer
   fun:_ZN11TBufferFile16WriteObjectClassEPKvPK6TClass
   fun:_ZN11TBufferFile14WriteObjectAnyEPKvPK6TClass
   fun:_ZN9TObjArray8StreamerER7TBuffer
   fun:_ZN11TBufferFile16WriteObjectClassEPKvPK6TClass
}
{
   <insert_a_suppression_name_here>
   Memcheck:Leak
   match-leak-kinds: possible
   fun:malloc
   fun:_Znwm
   fun:_ZN20TVirtualStreamerInfoC2EP6TClass
   fun:_ZN13TStreamerInfoC2EP6TClass
   fun:_ZN11TBufferFile16WriteClassBufferEPK6TClassPv
   fun:_ZN18TStreamerBasicType8StreamerER7TBuffer
   fun:_ZN11TBufferFile16WriteObjectClassEPKvPK6TClass
   fun:_ZN11TBufferFile14WriteObjectAnyEPKvPK6TClass
   fun:_ZN9TObjArray8StreamerER7TBuffer
   fun:_ZN11TBufferFile16WriteObjectClassEPKvPK6TClass
   fun:_ZN11TBufferFile14WriteObjectAnyEPKvPK6TClass
   fun:_ZN13TStreamerInfo8StreamerER7TBuffer
}
{
   <insert_a_suppression_name_here>
   Memcheck:Leak
   match-leak-kinds: possible
   fun:malloc
   fun:_Znwm
   fun:_ZN16TStreamerElementC2EPKcS1_iiS1_
   fun:_ZN13TStreamerBaseC2EPKcS1_i
   fun:_ZN13TStreamerInfo5BuildEv
   fun:_ZN11TBufferFile16WriteClassBufferEPK6TClassPv
   fun:_ZN18TStreamerBasicType8StreamerER7TBuffer
   fun:_ZN11TBufferFile16WriteObjectClassEPKvPK6TClass
   fun:_ZN11TBufferFile14WriteObjectAnyEPKvPK6TClass
   fun:_ZN9TObjArray8StreamerER7TBuffer
   fun:_ZN11TBufferFile16WriteObjectClassEPKvPK6TClass
   fun:_ZN11TBufferFile14WriteObjectAnyEPKvPK6TClass
}
{
   <insert_a_suppression_name_here>
   Memcheck:Leak
   match-leak-kinds: possible
   fun:malloc
   fun:_Znwm
   fun:_ZNSt6vectorIN20TStreamerInfoActions17TConfiguredActionESaIS1_EE7reserveEm
   fun:_ZN20TStreamerInfoActions15TActionSequenceC2EP20TVirtualStreamerInfoj
   fun:_ZN13TStreamerInfo7CompileEv
   fun:_ZN13TStreamerInfo5BuildEv
   fun:_ZN11TBufferFile16WriteClassBufferEPK6TClassPv
   fun:_ZN18TStreamerBasicType8StreamerER7TBuffer
   fun:_ZN11TBufferFile16WriteObjectClassEPKvPK6TClass
   fun:_ZN11TBufferFile14WriteObjectAnyEPKvPK6TClass
   fun:_ZN9TObjArray8StreamerER7TBuffer
   fun:_ZN11TBufferFile16WriteObjectClassEPKvPK6TClass
}
{
   <insert_a_suppression_name_here>
   Memcheck:Leak
   match-leak-kinds: possible
   fun:malloc
   fun:_Znwm
   fun:_ZN6TClassC2EPKcsRKSt9type_infoP16TVirtualIsAProxyPFvPvR16TMemberInspectorES1_S1_iib
   fun:_ZN4ROOT11CreateClassEPKcsRKSt9type_infoP16TVirtualIsAProxyPFvPvR16TMemberInspectorES1_S1_ii
   fun:_ZNK4ROOT20TDefaultInitBehavior11CreateClassEPKcsRKSt9type_infoP16TVirtualIsAProxyPFvPvR16TMemberInspectorES2_S2_ii
   fun:_ZN4ROOT17TGenericClassInfo8GetClassEv
   fun:_ZN22TStreamerObjectPointer5ClassEv
   fun:_ZN13TStreamerInfo8StreamerER7TBuffer
   fun:_ZN11TBufferFile16WriteObjectClassEPKvPK6TClass
   fun:_ZN11TBufferFile14WriteObjectAnyEPKvPK6TClass
   fun:_ZN5TList8StreamerER7TBuffer
   fun:_ZN4TKeyC2EPK7TObjectPKciP10TDirectory
}
{
   <insert_a_suppression_name_here>
   Memcheck:Leak
   match-leak-kinds: possible
   fun:malloc
   fun:_Znwm
   fun:_ZN5TList7AddLastEP7TObject
   fun:_ZN5TCint23CreateListOfDataMembersEP6TClass
   fun:_ZN6TClass20GetListOfDataMembersEv
   fun:_ZNK6TClass13GetDataMemberEPKc
   fun:_ZN14TBuildRealData7InspectEP6TClassPKcS3_PKv
   fun:_ZN21TStreamerBasicPointer11ShowMembersER16TMemberInspector
   fun:_ZNK6TClass15CallShowMembersEPvR16TMemberInspectori
   fun:_ZN6TClass13BuildRealDataEPvb
   fun:_ZN11TBufferFile16WriteClassBufferEPK6TClassPv
   fun:_ZN21TStreamerBasicPointer8StreamerER7TBuffer
}
{
   <insert_a_suppression_name_here>
   Memcheck:Leak
   match-leak-kinds: possible
   fun:malloc
   fun:_Znwm
   fun:_ZN11TDataMemberC2EPvP6TClass
   fun:_ZN5TCint23CreateListOfDataMembersEP6TClass
   fun:_ZN6TClass20GetListOfDataMembersEv
   fun:_ZNK6TClass13GetDataMemberEPKc
   fun:_ZN14TBuildRealData7InspectEP6TClassPKcS3_PKv
   fun:_ZN21TStreamerBasicPointer11ShowMembersER16TMemberInspector
   fun:_ZNK6TClass15CallShowMembersEPvR16TMemberInspectori
   fun:_ZN6TClass13BuildRealDataEPvb
   fun:_ZN11TBufferFile16WriteClassBufferEPK6TClassPv
   fun:_ZN21TStreamerBasicPointer8StreamerER7TBuffer
}
{
   <insert_a_suppression_name_here>
   Memcheck:Leak
   match-leak-kinds: possible
   fun:malloc
   fun:_Znwm
   fun:_ZN5TList7AddLastEP7TObject
   fun:_ZN14TBuildRealData7InspectEP6TClassPKcS3_PKv
   fun:_ZN21TStreamerBasicPointer11ShowMembersER16TMemberInspector
   fun:_ZNK6TClass15CallShowMembersEPvR16TMemberInspectori
   fun:_ZN6TClass13BuildRealDataEPvb
   fun:_ZN11TBufferFile16WriteClassBufferEPK6TClassPv
   fun:_ZN21TStreamerBasicPointer8StreamerER7TBuffer
   fun:_ZN11TBufferFile16WriteObjectClassEPKvPK6TClass
   fun:_ZN11TBufferFile14WriteObjectAnyEPKvPK6TClass
   fun:_ZN9TObjArray8StreamerER7TBuffer
}
{
   <insert_a_suppression_name_here>
   Memcheck:Leak
   match-leak-kinds: possible
   fun:malloc
   fun:_Znwm
   fun:_ZN5TList7AddLastEP7TObject
   fun:_ZN14TBuildRealData7InspectEP6TClassPKcS3_PKv
   fun:_ZN16TStreamerElement11ShowMembersER16TMemberInspector
   fun:_ZNK6TClass15CallShowMembersEPvR16TMemberInspectori
   fun:_ZN6TClass13BuildRealDataEPvb
   fun:_ZN11TBufferFile16WriteClassBufferEPK6TClassPv
   fun:_ZN21TStreamerBasicPointer8StreamerER7TBuffer
   fun:_ZN11TBufferFile16WriteObjectClassEPKvPK6TClass
   fun:_ZN11TBufferFile14WriteObjectAnyEPKvPK6TClass
   fun:_ZN9TObjArray8StreamerER7TBuffer
}
{
   <insert_a_suppression_name_here>
   Memcheck:Leak
   match-leak-kinds: possible
   fun:malloc
   fun:_Znwm
   fun:_ZN5TList7AddLastEP7TObject
   fun:_ZN14TBuildRealData7InspectEP6TClassPKcS3_PKv
   fun:_ZN6TNamed11ShowMembersER16TMemberInspector
   fun:_ZNK6TClass15CallShowMembersEPvR16TMemberInspectori
   fun:_ZN6TClass13BuildRealDataEPvb
   fun:_ZN11TBufferFile16WriteClassBufferEPK6TClassPv
   fun:_ZN21TStreamerBasicPointer8StreamerER7TBuffer
   fun:_ZN11TBufferFile16WriteObjectClassEPKvPK6TClass
   fun:_ZN11TBufferFile14WriteObjectAnyEPKvPK6TClass
   fun:_ZN9TObjArray8StreamerER7TBuffer
}
{
   <insert_a_suppression_name_here>
   Memcheck:Leak
   match-leak-kinds: possible
   fun:malloc
   fun:_Znwm
   fun:_ZN5TList7AddLastEP7TObject
   fun:_ZN14TBuildRealData7InspectEP6TClassPKcS3_PKv
   fun:_ZN7TObject11ShowMembersER16TMemberInspector
   fun:_ZNK6TClass15CallShowMembersEPvR16TMemberInspectori
   fun:_ZN6TClass13BuildRealDataEPvb
   fun:_ZN11TBufferFile16WriteClassBufferEPK6TClassPv
   fun:_ZN21TStreamerBasicPointer8StreamerER7TBuffer
   fun:_ZN11TBufferFile16WriteObjectClassEPKvPK6TClass
   fun:_ZN11TBufferFile14WriteObjectAnyEPKvPK6TClass
   fun:_ZN9TObjArray8StreamerER7TBuffer
}
{
   <insert_a_suppression_name_here>
   Memcheck:Leak
   match-leak-kinds: possible
   fun:malloc
   fun:_Znwm
   fun:_ZN5TList7AddLastEP7TObject
   fun:_ZN14TBuildRealData7InspectEP6TClassPKcS3_PKv
   fun:_ZNK6TClass15CallShowMembersEPvR16TMemberInspectori
   fun:_ZN6TClass13BuildRealDataEPvb
   fun:_ZN11TBufferFile16WriteClassBufferEPK6TClassPv
   fun:_ZN21TStreamerBasicPointer8StreamerER7TBuffer
   fun:_ZN11TBufferFile16WriteObjectClassEPKvPK6TClass
   fun:_ZN11TBufferFile14WriteObjectAnyEPKvPK6TClass
   fun:_ZN9TObjArray8StreamerER7TBuffer
   fun:_ZN11TBufferFile16WriteObjectClassEPKvPK6TClass
}
{
   <insert_a_suppression_name_here>
   Memcheck:Leak
   match-leak-kinds: possible
   fun:malloc
   fun:_Znwm
   fun:_ZN20TVirtualStreamerInfoC2EP6TClass
   fun:_ZN13TStreamerInfoC2EP6TClass
   fun:_ZN11TBufferFile16WriteClassBufferEPK6TClassPv
   fun:_ZN21TStreamerBasicPointer8StreamerER7TBuffer
   fun:_ZN11TBufferFile16WriteObjectClassEPKvPK6TClass
   fun:_ZN11TBufferFile14WriteObjectAnyEPKvPK6TClass
   fun:_ZN9TObjArray8StreamerER7TBuffer
   fun:_ZN11TBufferFile16WriteObjectClassEPKvPK6TClass
   fun:_ZN11TBufferFile14WriteObjectAnyEPKvPK6TClass
   fun:_ZN13TStreamerInfo8StreamerER7TBuffer
}
{
   <insert_a_suppression_name_here>
   Memcheck:Leak
   match-leak-kinds: possible
   fun:malloc
   fun:_Znwm
   fun:_ZN16TStreamerElementC2EPKcS1_iiS1_
   fun:_ZN13TStreamerBaseC2EPKcS1_i
   fun:_ZN13TStreamerInfo5BuildEv
   fun:_ZN11TBufferFile16WriteClassBufferEPK6TClassPv
   fun:_ZN21TStreamerBasicPointer8StreamerER7TBuffer
   fun:_ZN11TBufferFile16WriteObjectClassEPKvPK6TClass
   fun:_ZN11TBufferFile14WriteObjectAnyEPKvPK6TClass
   fun:_ZN9TObjArray8StreamerER7TBuffer
   fun:_ZN11TBufferFile16WriteObjectClassEPKvPK6TClass
   fun:_ZN11TBufferFile14WriteObjectAnyEPKvPK6TClass
}
{
   <insert_a_suppression_name_here>
   Memcheck:Leak
   match-leak-kinds: possible
   fun:malloc
   fun:_Znwm
   fun:_ZN5TList7AddLastEP7TObject
   fun:_ZN14TBuildRealData7InspectEP6TClassPKcS3_PKv
   fun:_ZN16TStreamerElement11ShowMembersER16TMemberInspector
   fun:_ZNK6TClass15CallShowMembersEPvR16TMemberInspectori
   fun:_ZN6TClass13BuildRealDataEPvb
   fun:_ZN11TBufferFile16WriteClassBufferEPK6TClassPv
   fun:_ZN15TStreamerObject8StreamerER7TBuffer
   fun:_ZN11TBufferFile16WriteObjectClassEPKvPK6TClass
   fun:_ZN11TBufferFile14WriteObjectAnyEPKvPK6TClass
   fun:_ZN9TObjArray8StreamerER7TBuffer
}
{
   <insert_a_suppression_name_here>
   Memcheck:Leak
   match-leak-kinds: possible
   fun:malloc
   fun:_Znwm
   fun:_ZN5TList7AddLastEP7TObject
   fun:_ZN14TBuildRealData7InspectEP6TClassPKcS3_PKv
   fun:_ZN6TNamed11ShowMembersER16TMemberInspector
   fun:_ZNK6TClass15CallShowMembersEPvR16TMemberInspectori
   fun:_ZN6TClass13BuildRealDataEPvb
   fun:_ZN11TBufferFile16WriteClassBufferEPK6TClassPv
   fun:_ZN15TStreamerObject8StreamerER7TBuffer
   fun:_ZN11TBufferFile16WriteObjectClassEPKvPK6TClass
   fun:_ZN11TBufferFile14WriteObjectAnyEPKvPK6TClass
   fun:_ZN9TObjArray8StreamerER7TBuffer
}
{
   <insert_a_suppression_name_here>
   Memcheck:Leak
   match-leak-kinds: possible
   fun:malloc
   fun:_Znwm
   fun:_ZN5TList7AddLastEP7TObject
   fun:_ZN14TBuildRealData7InspectEP6TClassPKcS3_PKv
   fun:_ZN7TObject11ShowMembersER16TMemberInspector
   fun:_ZNK6TClass15CallShowMembersEPvR16TMemberInspectori
   fun:_ZN6TClass13BuildRealDataEPvb
   fun:_ZN11TBufferFile16WriteClassBufferEPK6TClassPv
   fun:_ZN15TStreamerObject8StreamerER7TBuffer
   fun:_ZN11TBufferFile16WriteObjectClassEPKvPK6TClass
   fun:_ZN11TBufferFile14WriteObjectAnyEPKvPK6TClass
   fun:_ZN9TObjArray8StreamerER7TBuffer
}
{
   <insert_a_suppression_name_here>
   Memcheck:Leak
   match-leak-kinds: possible
   fun:malloc
   fun:_Znwm
   fun:_ZN5TList7AddLastEP7TObject
   fun:_ZN14TBuildRealData7InspectEP6TClassPKcS3_PKv
   fun:_ZNK6TClass15CallShowMembersEPvR16TMemberInspectori
   fun:_ZN6TClass13BuildRealDataEPvb
   fun:_ZN11TBufferFile16WriteClassBufferEPK6TClassPv
   fun:_ZN15TStreamerObject8StreamerER7TBuffer
   fun:_ZN11TBufferFile16WriteObjectClassEPKvPK6TClass
   fun:_ZN11TBufferFile14WriteObjectAnyEPKvPK6TClass
   fun:_ZN9TObjArray8StreamerER7TBuffer
   fun:_ZN11TBufferFile16WriteObjectClassEPKvPK6TClass
}
{
   <insert_a_suppression_name_here>
   Memcheck:Leak
   match-leak-kinds: possible
   fun:malloc
   fun:_Znwm
   fun:_ZN5TList7AddLastEP7TObject
   fun:_ZN5TCint23CreateListOfDataMembersEP6TClass
   fun:_ZN6TClass20GetListOfDataMembersEv
   fun:_ZNK6TClass11GetCheckSumEj
   fun:_ZN13TStreamerInfo5BuildEv
   fun:_ZN11TBufferFile16WriteClassBufferEPK6TClassPv
   fun:_ZN15TStreamerObject8StreamerER7TBuffer
   fun:_ZN11TBufferFile16WriteObjectClassEPKvPK6TClass
   fun:_ZN11TBufferFile14WriteObjectAnyEPKvPK6TClass
   fun:_ZN9TObjArray8StreamerER7TBuffer
}
{
   <insert_a_suppression_name_here>
   Memcheck:Leak
   match-leak-kinds: possible
   fun:malloc
   fun:_Znwm
   fun:_ZN16TStreamerElementC2EPKcS1_iiS1_
   fun:_ZN13TStreamerBaseC2EPKcS1_i
   fun:_ZN13TStreamerInfo5BuildEv
   fun:_ZN11TBufferFile16WriteClassBufferEPK6TClassPv
   fun:_ZN15TStreamerObject8StreamerER7TBuffer
   fun:_ZN11TBufferFile16WriteObjectClassEPKvPK6TClass
   fun:_ZN11TBufferFile14WriteObjectAnyEPKvPK6TClass
   fun:_ZN9TObjArray8StreamerER7TBuffer
   fun:_ZN11TBufferFile16WriteObjectClassEPKvPK6TClass
   fun:_ZN11TBufferFile14WriteObjectAnyEPKvPK6TClass
}
{
   <insert_a_suppression_name_here>
   Memcheck:Leak
   match-leak-kinds: possible
   fun:malloc
   fun:_Znwm
   fun:_ZNSt6vectorIN20TStreamerInfoActions17TConfiguredActionESaIS1_EE7reserveEm
   fun:_ZN20TStreamerInfoActions15TActionSequenceC2EP20TVirtualStreamerInfoj
   fun:_ZN13TStreamerInfo7CompileEv
   fun:_ZN13TStreamerInfo5BuildEv
   fun:_ZN11TBufferFile16WriteClassBufferEPK6TClassPv
   fun:_ZN15TStreamerObject8StreamerER7TBuffer
   fun:_ZN11TBufferFile16WriteObjectClassEPKvPK6TClass
   fun:_ZN11TBufferFile14WriteObjectAnyEPKvPK6TClass
   fun:_ZN9TObjArray8StreamerER7TBuffer
   fun:_ZN11TBufferFile16WriteObjectClassEPKvPK6TClass
}
{
   <insert_a_suppression_name_here>
   Memcheck:Leak
   match-leak-kinds: possible
   fun:malloc
   fun:_Znwm
   fun:_ZN5TList7AddLastEP7TObject
   fun:_ZN14TBuildRealData7InspectEP6TClassPKcS3_PKv
   fun:_ZN16TStreamerElement11ShowMembersER16TMemberInspector
   fun:_ZNK6TClass15CallShowMembersEPvR16TMemberInspectori
   fun:_ZN6TClass13BuildRealDataEPvb
   fun:_ZN11TBufferFile16WriteClassBufferEPK6TClassPv
   fun:_ZN22TStreamerObjectPointer8StreamerER7TBuffer
   fun:_ZN11TBufferFile16WriteObjectClassEPKvPK6TClass
   fun:_ZN11TBufferFile14WriteObjectAnyEPKvPK6TClass
   fun:_ZN9TObjArray8StreamerER7TBuffer
}
{
   <insert_a_suppression_name_here>
   Memcheck:Leak
   match-leak-kinds: possible
   fun:malloc
   fun:_Znwm
   fun:_ZN5TList7AddLastEP7TObject
   fun:_ZN14TBuildRealData7InspectEP6TClassPKcS3_PKv
   fun:_ZN6TNamed11ShowMembersER16TMemberInspector
   fun:_ZNK6TClass15CallShowMembersEPvR16TMemberInspectori
   fun:_ZN6TClass13BuildRealDataEPvb
   fun:_ZN11TBufferFile16WriteClassBufferEPK6TClassPv
   fun:_ZN22TStreamerObjectPointer8StreamerER7TBuffer
   fun:_ZN11TBufferFile16WriteObjectClassEPKvPK6TClass
   fun:_ZN11TBufferFile14WriteObjectAnyEPKvPK6TClass
   fun:_ZN9TObjArray8StreamerER7TBuffer
}
{
   <insert_a_suppression_name_here>
   Memcheck:Leak
   match-leak-kinds: possible
   fun:malloc
   fun:_Znwm
   fun:_ZN5TList7AddLastEP7TObject
   fun:_ZN14TBuildRealData7InspectEP6TClassPKcS3_PKv
   fun:_ZN7TObject11ShowMembersER16TMemberInspector
   fun:_ZNK6TClass15CallShowMembersEPvR16TMemberInspectori
   fun:_ZN6TClass13BuildRealDataEPvb
   fun:_ZN11TBufferFile16WriteClassBufferEPK6TClassPv
   fun:_ZN22TStreamerObjectPointer8StreamerER7TBuffer
   fun:_ZN11TBufferFile16WriteObjectClassEPKvPK6TClass
   fun:_ZN11TBufferFile14WriteObjectAnyEPKvPK6TClass
   fun:_ZN9TObjArray8StreamerER7TBuffer
}
{
   <insert_a_suppression_name_here>
   Memcheck:Leak
   match-leak-kinds: possible
   fun:malloc
   fun:_Znwm
   fun:_ZN5TList7AddLastEP7TObject
   fun:_ZN14TBuildRealData7InspectEP6TClassPKcS3_PKv
   fun:_ZNK6TClass15CallShowMembersEPvR16TMemberInspectori
   fun:_ZN6TClass13BuildRealDataEPvb
   fun:_ZN11TBufferFile16WriteClassBufferEPK6TClassPv
   fun:_ZN22TStreamerObjectPointer8StreamerER7TBuffer
   fun:_ZN11TBufferFile16WriteObjectClassEPKvPK6TClass
   fun:_ZN11TBufferFile14WriteObjectAnyEPKvPK6TClass
   fun:_ZN9TObjArray8StreamerER7TBuffer
   fun:_ZN11TBufferFile16WriteObjectClassEPKvPK6TClass
}
{
   <insert_a_suppression_name_here>
   Memcheck:Leak
   match-leak-kinds: possible
   fun:malloc
   fun:_Znwm
   fun:_ZN20TVirtualStreamerInfoC2EP6TClass
   fun:_ZN13TStreamerInfoC2EP6TClass
   fun:_ZN11TBufferFile16WriteClassBufferEPK6TClassPv
   fun:_ZN22TStreamerObjectPointer8StreamerER7TBuffer
   fun:_ZN11TBufferFile16WriteObjectClassEPKvPK6TClass
   fun:_ZN11TBufferFile14WriteObjectAnyEPKvPK6TClass
   fun:_ZN9TObjArray8StreamerER7TBuffer
   fun:_ZN11TBufferFile16WriteObjectClassEPKvPK6TClass
   fun:_ZN11TBufferFile14WriteObjectAnyEPKvPK6TClass
   fun:_ZN13TStreamerInfo8StreamerER7TBuffer
}
{
   <insert_a_suppression_name_here>
   Memcheck:Leak
   match-leak-kinds: possible
   fun:malloc
   fun:_Znwm
   fun:_ZN5TList7AddLastEP7TObject
   fun:_ZN5TCint23CreateListOfDataMembersEP6TClass
   fun:_ZN6TClass20GetListOfDataMembersEv
   fun:_ZNK6TClass11GetCheckSumEj
   fun:_ZN13TStreamerInfo5BuildEv
   fun:_ZN11TBufferFile16WriteClassBufferEPK6TClassPv
   fun:_ZN22TStreamerObjectPointer8StreamerER7TBuffer
   fun:_ZN11TBufferFile16WriteObjectClassEPKvPK6TClass
   fun:_ZN11TBufferFile14WriteObjectAnyEPKvPK6TClass
   fun:_ZN9TObjArray8StreamerER7TBuffer
}
{
   <insert_a_suppression_name_here>
   Memcheck:Leak
   match-leak-kinds: possible
   fun:malloc
   fun:_Znwm
   fun:_ZN16TStreamerElementC2EPKcS1_iiS1_
   fun:_ZN13TStreamerBaseC2EPKcS1_i
   fun:_ZN13TStreamerInfo5BuildEv
   fun:_ZN11TBufferFile16WriteClassBufferEPK6TClassPv
   fun:_ZN22TStreamerObjectPointer8StreamerER7TBuffer
   fun:_ZN11TBufferFile16WriteObjectClassEPKvPK6TClass
   fun:_ZN11TBufferFile14WriteObjectAnyEPKvPK6TClass
   fun:_ZN9TObjArray8StreamerER7TBuffer
   fun:_ZN11TBufferFile16WriteObjectClassEPKvPK6TClass
   fun:_ZN11TBufferFile14WriteObjectAnyEPKvPK6TClass
}
{
   <insert_a_suppression_name_here>
   Memcheck:Leak
   match-leak-kinds: possible
   fun:malloc
   fun:_Znwm
   fun:_ZNSt6vectorIN20TStreamerInfoActions17TConfiguredActionESaIS1_EE7reserveEm
   fun:_ZN20TStreamerInfoActions15TActionSequenceC2EP20TVirtualStreamerInfoj
   fun:_ZN13TStreamerInfo7CompileEv
   fun:_ZN13TStreamerInfo5BuildEv
   fun:_ZN11TBufferFile16WriteClassBufferEPK6TClassPv
   fun:_ZN22TStreamerObjectPointer8StreamerER7TBuffer
   fun:_ZN11TBufferFile16WriteObjectClassEPKvPK6TClass
   fun:_ZN11TBufferFile14WriteObjectAnyEPKvPK6TClass
   fun:_ZN9TObjArray8StreamerER7TBuffer
   fun:_ZN11TBufferFile16WriteObjectClassEPKvPK6TClass
}
{
   <insert_a_suppression_name_here>
   Memcheck:Leak
   match-leak-kinds: possible
   fun:malloc
   fun:_Znwm
   fun:_ZN5TList7AddLastEP7TObject
   fun:_ZN14TBuildRealData7InspectEP6TClassPKcS3_PKv
   fun:_ZN16TStreamerElement11ShowMembersER16TMemberInspector
   fun:_ZNK6TClass15CallShowMembersEPvR16TMemberInspectori
   fun:_ZN6TClass13BuildRealDataEPvb
   fun:_ZN11TBufferFile16WriteClassBufferEPK6TClassPv
   fun:_ZN18TStreamerObjectAny8StreamerER7TBuffer
   fun:_ZN11TBufferFile16WriteObjectClassEPKvPK6TClass
   fun:_ZN11TBufferFile14WriteObjectAnyEPKvPK6TClass
   fun:_ZN9TObjArray8StreamerER7TBuffer
}
{
   <insert_a_suppression_name_here>
   Memcheck:Leak
   match-leak-kinds: possible
   fun:malloc
   fun:_Znwm
   fun:_ZN5TList7AddLastEP7TObject
   fun:_ZN14TBuildRealData7InspectEP6TClassPKcS3_PKv
   fun:_ZN6TNamed11ShowMembersER16TMemberInspector
   fun:_ZNK6TClass15CallShowMembersEPvR16TMemberInspectori
   fun:_ZN6TClass13BuildRealDataEPvb
   fun:_ZN11TBufferFile16WriteClassBufferEPK6TClassPv
   fun:_ZN18TStreamerObjectAny8StreamerER7TBuffer
   fun:_ZN11TBufferFile16WriteObjectClassEPKvPK6TClass
   fun:_ZN11TBufferFile14WriteObjectAnyEPKvPK6TClass
   fun:_ZN9TObjArray8StreamerER7TBuffer
}
{
   <insert_a_suppression_name_here>
   Memcheck:Leak
   match-leak-kinds: possible
   fun:malloc
   fun:_Znwm
   fun:_ZN5TList7AddLastEP7TObject
   fun:_ZN14TBuildRealData7InspectEP6TClassPKcS3_PKv
   fun:_ZN7TObject11ShowMembersER16TMemberInspector
   fun:_ZNK6TClass15CallShowMembersEPvR16TMemberInspectori
   fun:_ZN6TClass13BuildRealDataEPvb
   fun:_ZN11TBufferFile16WriteClassBufferEPK6TClassPv
   fun:_ZN18TStreamerObjectAny8StreamerER7TBuffer
   fun:_ZN11TBufferFile16WriteObjectClassEPKvPK6TClass
   fun:_ZN11TBufferFile14WriteObjectAnyEPKvPK6TClass
   fun:_ZN9TObjArray8StreamerER7TBuffer
}
{
   <insert_a_suppression_name_here>
   Memcheck:Leak
   match-leak-kinds: possible
   fun:malloc
   fun:_Znwm
   fun:_ZN5TList7AddLastEP7TObject
   fun:_ZN14TBuildRealData7InspectEP6TClassPKcS3_PKv
   fun:_ZNK6TClass15CallShowMembersEPvR16TMemberInspectori
   fun:_ZN6TClass13BuildRealDataEPvb
   fun:_ZN11TBufferFile16WriteClassBufferEPK6TClassPv
   fun:_ZN18TStreamerObjectAny8StreamerER7TBuffer
   fun:_ZN11TBufferFile16WriteObjectClassEPKvPK6TClass
   fun:_ZN11TBufferFile14WriteObjectAnyEPKvPK6TClass
   fun:_ZN9TObjArray8StreamerER7TBuffer
   fun:_ZN11TBufferFile16WriteObjectClassEPKvPK6TClass
}
{
   <insert_a_suppression_name_here>
   Memcheck:Leak
   match-leak-kinds: possible
   fun:malloc
   fun:_Znwm
   fun:_ZN20TVirtualStreamerInfoC2EP6TClass
   fun:_ZN13TStreamerInfoC2EP6TClass
   fun:_ZN11TBufferFile16WriteClassBufferEPK6TClassPv
   fun:_ZN18TStreamerObjectAny8StreamerER7TBuffer
   fun:_ZN11TBufferFile16WriteObjectClassEPKvPK6TClass
   fun:_ZN11TBufferFile14WriteObjectAnyEPKvPK6TClass
   fun:_ZN9TObjArray8StreamerER7TBuffer
   fun:_ZN11TBufferFile16WriteObjectClassEPKvPK6TClass
   fun:_ZN11TBufferFile14WriteObjectAnyEPKvPK6TClass
   fun:_ZN13TStreamerInfo8StreamerER7TBuffer
}
{
   <insert_a_suppression_name_here>
   Memcheck:Leak
   match-leak-kinds: possible
   fun:malloc
   fun:_Znwm
   fun:_ZN5TList7AddLastEP7TObject
   fun:_ZN5TCint23CreateListOfDataMembersEP6TClass
   fun:_ZN6TClass20GetListOfDataMembersEv
   fun:_ZNK6TClass11GetCheckSumEj
   fun:_ZN13TStreamerInfo5BuildEv
   fun:_ZN11TBufferFile16WriteClassBufferEPK6TClassPv
   fun:_ZN18TStreamerObjectAny8StreamerER7TBuffer
   fun:_ZN11TBufferFile16WriteObjectClassEPKvPK6TClass
   fun:_ZN11TBufferFile14WriteObjectAnyEPKvPK6TClass
   fun:_ZN9TObjArray8StreamerER7TBuffer
}
{
   <insert_a_suppression_name_here>
   Memcheck:Leak
   match-leak-kinds: possible
   fun:malloc
   fun:_Znwm
   fun:_ZN16TStreamerElementC2EPKcS1_iiS1_
   fun:_ZN13TStreamerBaseC2EPKcS1_i
   fun:_ZN13TStreamerInfo5BuildEv
   fun:_ZN11TBufferFile16WriteClassBufferEPK6TClassPv
   fun:_ZN18TStreamerObjectAny8StreamerER7TBuffer
   fun:_ZN11TBufferFile16WriteObjectClassEPKvPK6TClass
   fun:_ZN11TBufferFile14WriteObjectAnyEPKvPK6TClass
   fun:_ZN9TObjArray8StreamerER7TBuffer
   fun:_ZN11TBufferFile16WriteObjectClassEPKvPK6TClass
   fun:_ZN11TBufferFile14WriteObjectAnyEPKvPK6TClass
}
{
   <insert_a_suppression_name_here>
   Memcheck:Leak
   match-leak-kinds: possible
   fun:malloc
   fun:_Znwm
   fun:_ZNSt6vectorIN20TStreamerInfoActions17TConfiguredActionESaIS1_EE7reserveEm
   fun:_ZN20TStreamerInfoActions15TActionSequenceC2EP20TVirtualStreamerInfoj
   fun:_ZN13TStreamerInfo7CompileEv
   fun:_ZN13TStreamerInfo5BuildEv
   fun:_ZN11TBufferFile16WriteClassBufferEPK6TClassPv
   fun:_ZN18TStreamerObjectAny8StreamerER7TBuffer
   fun:_ZN11TBufferFile16WriteObjectClassEPKvPK6TClass
   fun:_ZN11TBufferFile14WriteObjectAnyEPKvPK6TClass
   fun:_ZN9TObjArray8StreamerER7TBuffer
   fun:_ZN11TBufferFile16WriteObjectClassEPKvPK6TClass
}
{
   <insert_a_suppression_name_here>
   Memcheck:Leak
   match-leak-kinds: possible
   fun:malloc
   fun:_Znwm
   fun:_ZN5TList7AddLastEP7TObject
   fun:_ZN14TBuildRealData7InspectEP6TClassPKcS3_PKv
   fun:_ZN16TStreamerElement11ShowMembersER16TMemberInspector
   fun:_ZNK6TClass15CallShowMembersEPvR16TMemberInspectori
   fun:_ZN6TClass13BuildRealDataEPvb
   fun:_ZN11TBufferFile16WriteClassBufferEPK6TClassPv
   fun:_ZN15TStreamerString8StreamerER7TBuffer
   fun:_ZN11TBufferFile16WriteObjectClassEPKvPK6TClass
   fun:_ZN11TBufferFile14WriteObjectAnyEPKvPK6TClass
   fun:_ZN9TObjArray8StreamerER7TBuffer
}
{
   <insert_a_suppression_name_here>
   Memcheck:Leak
   match-leak-kinds: possible
   fun:malloc
   fun:_Znwm
   fun:_ZN5TList7AddLastEP7TObject
   fun:_ZN14TBuildRealData7InspectEP6TClassPKcS3_PKv
   fun:_ZN6TNamed11ShowMembersER16TMemberInspector
   fun:_ZNK6TClass15CallShowMembersEPvR16TMemberInspectori
   fun:_ZN6TClass13BuildRealDataEPvb
   fun:_ZN11TBufferFile16WriteClassBufferEPK6TClassPv
   fun:_ZN15TStreamerString8StreamerER7TBuffer
   fun:_ZN11TBufferFile16WriteObjectClassEPKvPK6TClass
   fun:_ZN11TBufferFile14WriteObjectAnyEPKvPK6TClass
   fun:_ZN9TObjArray8StreamerER7TBuffer
}
{
   <insert_a_suppression_name_here>
   Memcheck:Leak
   match-leak-kinds: possible
   fun:malloc
   fun:_Znwm
   fun:_ZN5TList7AddLastEP7TObject
   fun:_ZN14TBuildRealData7InspectEP6TClassPKcS3_PKv
   fun:_ZN7TObject11ShowMembersER16TMemberInspector
   fun:_ZNK6TClass15CallShowMembersEPvR16TMemberInspectori
   fun:_ZN6TClass13BuildRealDataEPvb
   fun:_ZN11TBufferFile16WriteClassBufferEPK6TClassPv
   fun:_ZN15TStreamerString8StreamerER7TBuffer
   fun:_ZN11TBufferFile16WriteObjectClassEPKvPK6TClass
   fun:_ZN11TBufferFile14WriteObjectAnyEPKvPK6TClass
   fun:_ZN9TObjArray8StreamerER7TBuffer
}
{
   <insert_a_suppression_name_here>
   Memcheck:Leak
   match-leak-kinds: possible
   fun:malloc
   fun:_Znwm
   fun:_ZN5TList7AddLastEP7TObject
   fun:_ZN14TBuildRealData7InspectEP6TClassPKcS3_PKv
   fun:_ZNK6TClass15CallShowMembersEPvR16TMemberInspectori
   fun:_ZN6TClass13BuildRealDataEPvb
   fun:_ZN11TBufferFile16WriteClassBufferEPK6TClassPv
   fun:_ZN15TStreamerString8StreamerER7TBuffer
   fun:_ZN11TBufferFile16WriteObjectClassEPKvPK6TClass
   fun:_ZN11TBufferFile14WriteObjectAnyEPKvPK6TClass
   fun:_ZN9TObjArray8StreamerER7TBuffer
   fun:_ZN11TBufferFile16WriteObjectClassEPKvPK6TClass
}
{
   <insert_a_suppression_name_here>
   Memcheck:Leak
   match-leak-kinds: possible
   fun:malloc
   fun:_Znwm
   fun:_ZN5TList7AddLastEP7TObject
   fun:_ZN5TCint23CreateListOfDataMembersEP6TClass
   fun:_ZN6TClass20GetListOfDataMembersEv
   fun:_ZNK6TClass11GetCheckSumEj
   fun:_ZN13TStreamerInfo5BuildEv
   fun:_ZN11TBufferFile16WriteClassBufferEPK6TClassPv
   fun:_ZN15TStreamerString8StreamerER7TBuffer
   fun:_ZN11TBufferFile16WriteObjectClassEPKvPK6TClass
   fun:_ZN11TBufferFile14WriteObjectAnyEPKvPK6TClass
   fun:_ZN9TObjArray8StreamerER7TBuffer
}
{
   <insert_a_suppression_name_here>
   Memcheck:Leak
   match-leak-kinds: possible
   fun:malloc
   fun:_Znwm
   fun:_ZN16TStreamerElementC2EPKcS1_iiS1_
   fun:_ZN13TStreamerBaseC2EPKcS1_i
   fun:_ZN13TStreamerInfo5BuildEv
   fun:_ZN11TBufferFile16WriteClassBufferEPK6TClassPv
   fun:_ZN15TStreamerString8StreamerER7TBuffer
   fun:_ZN11TBufferFile16WriteObjectClassEPKvPK6TClass
   fun:_ZN11TBufferFile14WriteObjectAnyEPKvPK6TClass
   fun:_ZN9TObjArray8StreamerER7TBuffer
   fun:_ZN11TBufferFile16WriteObjectClassEPKvPK6TClass
   fun:_ZN11TBufferFile14WriteObjectAnyEPKvPK6TClass
}
{
   <insert_a_suppression_name_here>
   Memcheck:Leak
   match-leak-kinds: possible
   fun:malloc
   fun:_Znwm
   fun:_ZNSt6vectorIN20TStreamerInfoActions17TConfiguredActionESaIS1_EE7reserveEm
   fun:_ZN20TStreamerInfoActions15TActionSequenceC2EP20TVirtualStreamerInfoj
   fun:_ZN13TStreamerInfo7CompileEv
   fun:_ZN13TStreamerInfo5BuildEv
   fun:_ZN11TBufferFile16WriteClassBufferEPK6TClassPv
   fun:_ZN15TStreamerString8StreamerER7TBuffer
   fun:_ZN11TBufferFile16WriteObjectClassEPKvPK6TClass
   fun:_ZN11TBufferFile14WriteObjectAnyEPKvPK6TClass
   fun:_ZN9TObjArray8StreamerER7TBuffer
   fun:_ZN11TBufferFile16WriteObjectClassEPKvPK6TClass
}
{
   <insert_a_suppression_name_here>
   Memcheck:Leak
   match-leak-kinds: possible
   fun:malloc
   fun:_Znwm
   fun:_ZN6TNamed8SetTitleEPKc
   fun:_ZN6TClass4InitEPKcsPKSt9type_infoP16TVirtualIsAProxyPFvPvR16TMemberInspectorES1_S1_iib
   fun:_ZN6TClassC2EPKcsRKSt9type_infoP16TVirtualIsAProxyPFvPvR16TMemberInspectorES1_S1_iib
   fun:_ZN4ROOT11CreateClassEPKcsRKSt9type_infoP16TVirtualIsAProxyPFvPvR16TMemberInspectorES1_S1_ii
   fun:_ZNK4ROOT20TDefaultInitBehavior11CreateClassEPKcsRKSt9type_infoP16TVirtualIsAProxyPFvPvR16TMemberInspectorES2_S2_ii
   fun:_ZN4ROOT17TGenericClassInfo8GetClassEv
   fun:_ZN10TObjString5ClassEv
   fun:_ZNK6TClass14GetActualClassEPKv
   fun:_ZN11TBufferFile14WriteObjectAnyEPKvPK6TClass
   fun:_ZN5TList8StreamerER7TBuffer
}
{
   <insert_a_suppression_name_here>
   Memcheck:Leak
   match-leak-kinds: possible
   fun:malloc
   fun:_Znwm
   fun:_ZN5TList7AddLastEP7TObject
   fun:_ZN5TCint23CreateListOfBaseClassesEP6TClass
   fun:_ZN6TClass25GetBaseClassOffsetRecurseEPKS_
   fun:_ZN6TClass18GetBaseClassOffsetEPKS_
   fun:_ZN11TBufferFile14WriteObjectAnyEPKvPK6TClass
   fun:_ZN5TList8StreamerER7TBuffer
   fun:_ZN11TBufferFile16WriteObjectClassEPKvPK6TClass
   fun:_ZN11TBufferFile14WriteObjectAnyEPKvPK6TClass
   fun:_ZN5TList8StreamerER7TBuffer
   fun:_ZN4TKeyC2EPK7TObjectPKciP10TDirectory
}
{
   <insert_a_suppression_name_here>
   Memcheck:Leak
   match-leak-kinds: possible
   fun:malloc
   fun:_Znwm
   fun:_ZNSs9_M_mutateEmmm
   fun:_ZNSs15_M_replace_safeEmmPKcm
   fun:_ZN9TClassRef6AssignEP6TClass
   fun:_ZN10TBaseClass15GetClassPointerEb
   fun:_ZN6TClass25GetBaseClassOffsetRecurseEPKS_
   fun:_ZN6TClass18GetBaseClassOffsetEPKS_
   fun:_ZN11TBufferFile14WriteObjectAnyEPKvPK6TClass
   fun:_ZN5TList8StreamerER7TBuffer
   fun:_ZN11TBufferFile16WriteObjectClassEPKvPK6TClass
   fun:_ZN11TBufferFile14WriteObjectAnyEPKvPK6TClass
}
{
   <insert_a_suppression_name_here>
   Memcheck:Leak
   match-leak-kinds: possible
   fun:malloc
   fun:_Znwm
   fun:_ZN6TNamed8SetTitleEPKc
   fun:_ZN11TDataMemberC2EPvP6TClass
   fun:_ZN5TCint23CreateListOfDataMembersEP6TClass
   fun:_ZN6TClass20GetListOfDataMembersEv
   fun:_ZNK6TClass13GetDataMemberEPKc
   fun:_ZN14TBuildRealData7InspectEP6TClassPKcS3_PKv
   fun:_ZN10TObjString11ShowMembersER16TMemberInspector
   fun:_ZNK6TClass15CallShowMembersEPvR16TMemberInspectori
   fun:_ZN6TClass13BuildRealDataEPvb
   fun:_ZN11TBufferFile16WriteClassBufferEPK6TClassPv
}
{
   <insert_a_suppression_name_here>
   Memcheck:Leak
   match-leak-kinds: possible
   fun:malloc
   fun:_Znwm
   fun:_ZN5TList7AddLastEP7TObject
   fun:_ZN5TCint23CreateListOfDataMembersEP6TClass
   fun:_ZN6TClass20GetListOfDataMembersEv
   fun:_ZNK6TClass13GetDataMemberEPKc
   fun:_ZN14TBuildRealData7InspectEP6TClassPKcS3_PKv
   fun:_ZN10TObjString11ShowMembersER16TMemberInspector
   fun:_ZNK6TClass15CallShowMembersEPvR16TMemberInspectori
   fun:_ZN6TClass13BuildRealDataEPvb
   fun:_ZN11TBufferFile16WriteClassBufferEPK6TClassPv
   fun:_ZN11TBufferFile16WriteObjectClassEPKvPK6TClass
}
{
   <insert_a_suppression_name_here>
   Memcheck:Leak
   match-leak-kinds: possible
   fun:malloc
   fun:_Znwm
   fun:_ZN5TList7AddLastEP7TObject
   fun:_ZN14TBuildRealData7InspectEP6TClassPKcS3_PKv
   fun:_ZN10TObjString11ShowMembersER16TMemberInspector
   fun:_ZNK6TClass15CallShowMembersEPvR16TMemberInspectori
   fun:_ZN6TClass13BuildRealDataEPvb
   fun:_ZN11TBufferFile16WriteClassBufferEPK6TClassPv
   fun:_ZN11TBufferFile16WriteObjectClassEPKvPK6TClass
   fun:_ZN11TBufferFile14WriteObjectAnyEPKvPK6TClass
   fun:_ZN5TList8StreamerER7TBuffer
   fun:_ZN11TBufferFile16WriteObjectClassEPKvPK6TClass
}
{
   <insert_a_suppression_name_here>
   Memcheck:Leak
   match-leak-kinds: possible
   fun:malloc
   fun:_Znwm
   fun:_ZN5TList7AddLastEP7TObject
   fun:_ZN14TBuildRealData7InspectEP6TClassPKcS3_PKv
   fun:_ZN7TObject11ShowMembersER16TMemberInspector
   fun:_ZNK6TClass15CallShowMembersEPvR16TMemberInspectori
   fun:_ZN6TClass13BuildRealDataEPvb
   fun:_ZN11TBufferFile16WriteClassBufferEPK6TClassPv
   fun:_ZN11TBufferFile16WriteObjectClassEPKvPK6TClass
   fun:_ZN11TBufferFile14WriteObjectAnyEPKvPK6TClass
   fun:_ZN5TList8StreamerER7TBuffer
   fun:_ZN11TBufferFile16WriteObjectClassEPKvPK6TClass
}
{
   <insert_a_suppression_name_here>
   Memcheck:Leak
   match-leak-kinds: possible
   fun:malloc
   fun:_Znwm
   fun:_ZN5TList7AddLastEP7TObject
   fun:_ZN14TBuildRealData7InspectEP6TClassPKcS3_PKv
   fun:_ZNK6TClass15CallShowMembersEPvR16TMemberInspectori
   fun:_ZN6TClass13BuildRealDataEPvb
   fun:_ZN11TBufferFile16WriteClassBufferEPK6TClassPv
   fun:_ZN11TBufferFile16WriteObjectClassEPKvPK6TClass
   fun:_ZN11TBufferFile14WriteObjectAnyEPKvPK6TClass
   fun:_ZN5TList8StreamerER7TBuffer
   fun:_ZN11TBufferFile16WriteObjectClassEPKvPK6TClass
   fun:_ZN11TBufferFile14WriteObjectAnyEPKvPK6TClass
}
{
   <insert_a_suppression_name_here>
   Memcheck:Leak
   match-leak-kinds: possible
   fun:malloc
   fun:_Znwm
   fun:_ZN16TStreamerElementC2EPKcS1_iiS1_
   fun:_ZN13TStreamerBaseC2EPKcS1_i
   fun:_ZN13TStreamerInfo5BuildEv
   fun:_ZN11TBufferFile16WriteClassBufferEPK6TClassPv
   fun:_ZN11TBufferFile16WriteObjectClassEPKvPK6TClass
   fun:_ZN11TBufferFile14WriteObjectAnyEPKvPK6TClass
   fun:_ZN5TList8StreamerER7TBuffer
   fun:_ZN11TBufferFile16WriteObjectClassEPKvPK6TClass
   fun:_ZN11TBufferFile14WriteObjectAnyEPKvPK6TClass
   fun:_ZN5TList8StreamerER7TBuffer
}
{
   <insert_a_suppression_name_here>
   Memcheck:Leak
   match-leak-kinds: definite
   fun:malloc
   fun:_Znwm
   fun:G__get_linked_tagnum_fwd
   fun:G__platformMacro
   fun:G__set_stdio
   fun:G__main
   fun:G__init_cint
   fun:_ZN5TCint8ResetAllEv
   fun:_ZN5TCintC2EPKcS1_
   fun:_ZN5TROOTC2EPKcS1_PPFvvE
   fun:_GLOBAL__I_a
   fun:_ZN16ImageLoaderMachO18doModInitFunctionsERKN11ImageLoader11LinkContextE
}
{
   <insert_a_suppression_name_here>
   Memcheck:Leak
   match-leak-kinds: definite
   fun:malloc
   fun:_Znwm
   fun:G__get_linked_tagnum_fwd
   fun:G__cpp_setup_tagtableG__Base1
   fun:G__cpp_setupG__Base1
   fun:G__call_setup_funcs
   fun:_ZN25G__cpp_setup_initG__Base1C2Ev
   fun:_ZN25G__cpp_setup_initG__Base1C1Ev
   fun:__cxx_global_var_init709
   fun:_GLOBAL__I_a
   fun:_ZN16ImageLoaderMachO18doModInitFunctionsERKN11ImageLoader11LinkContextE
   fun:_ZN16ImageLoaderMachO16doInitializationERKN11ImageLoader11LinkContextE
}
{
   <insert_a_suppression_name_here>
   Memcheck:Leak
   match-leak-kinds: definite
   fun:malloc
   fun:_Znwm
   fun:G__get_linked_tagnum_fwd
   fun:G__cpp_setup_tagtableG__Base2
   fun:G__cpp_setupG__Base2
   fun:G__call_setup_funcs
   fun:_GLOBAL__I_a
   fun:_ZN16ImageLoaderMachO18doModInitFunctionsERKN11ImageLoader11LinkContextE
   fun:_ZN16ImageLoaderMachO16doInitializationERKN11ImageLoader11LinkContextE
   fun:_ZN11ImageLoader23recursiveInitializationERKNS_11LinkContextEjRNS_21InitializerTimingListE
   fun:_ZN11ImageLoader23recursiveInitializationERKNS_11LinkContextEjRNS_21InitializerTimingListE
   fun:_ZN11ImageLoader15runInitializersERKNS_11LinkContextERNS_21InitializerTimingListE
}
{
   <insert_a_suppression_name_here>
   Memcheck:Leak
   match-leak-kinds: definite
   fun:malloc
   fun:_Znwm
   fun:G__get_linked_tagnum_fwd
   fun:G__cpp_setup_tagtableG__Base3
   fun:G__cpp_setupG__Base3
   fun:G__call_setup_funcs
   fun:_GLOBAL__I_a
   fun:_ZN16ImageLoaderMachO18doModInitFunctionsERKN11ImageLoader11LinkContextE
   fun:_ZN16ImageLoaderMachO16doInitializationERKN11ImageLoader11LinkContextE
   fun:_ZN11ImageLoader23recursiveInitializationERKNS_11LinkContextEjRNS_21InitializerTimingListE
   fun:_ZN11ImageLoader23recursiveInitializationERKNS_11LinkContextEjRNS_21InitializerTimingListE
   fun:_ZN11ImageLoader15runInitializersERKNS_11LinkContextERNS_21InitializerTimingListE
}
{
   <insert_a_suppression_name_here>
   Memcheck:Leak
   match-leak-kinds: definite
   fun:malloc
   fun:_Znwm
   fun:G__get_linked_tagnum_fwd
   fun:G__cpp_setup_tagtableG__Cont
   fun:G__cpp_setupG__Cont
   fun:G__call_setup_funcs
   fun:_GLOBAL__I_a
   fun:_ZN16ImageLoaderMachO18doModInitFunctionsERKN11ImageLoader11LinkContextE
   fun:_ZN16ImageLoaderMachO16doInitializationERKN11ImageLoader11LinkContextE
   fun:_ZN11ImageLoader23recursiveInitializationERKNS_11LinkContextEjRNS_21InitializerTimingListE
   fun:_ZN11ImageLoader23recursiveInitializationERKNS_11LinkContextEjRNS_21InitializerTimingListE
   fun:_ZN11ImageLoader15runInitializersERKNS_11LinkContextERNS_21InitializerTimingListE
}
{
   <insert_a_suppression_name_here>
   Memcheck:Leak
   match-leak-kinds: definite
   fun:malloc
   fun:_Znwm
   fun:G__get_linked_tagnum_fwd
   fun:G__cpp_setup_tagtableG__Meta
   fun:G__cpp_setupG__Meta
   fun:G__call_setup_funcs
   fun:_GLOBAL__I_a
   fun:_ZN16ImageLoaderMachO18doModInitFunctionsERKN11ImageLoader11LinkContextE
   fun:_ZN16ImageLoaderMachO16doInitializationERKN11ImageLoader11LinkContextE
   fun:_ZN11ImageLoader23recursiveInitializationERKNS_11LinkContextEjRNS_21InitializerTimingListE
   fun:_ZN11ImageLoader23recursiveInitializationERKNS_11LinkContextEjRNS_21InitializerTimingListE
   fun:_ZN11ImageLoader15runInitializersERKNS_11LinkContextERNS_21InitializerTimingListE
}
{
   <insert_a_suppression_name_here>
   Memcheck:Leak
   match-leak-kinds: definite
   fun:malloc
   fun:_Znwm
   fun:G__get_linked_tagnum_fwd
   fun:G__cpp_setup_tagtableG__Zip
   fun:G__cpp_setupG__Zip
   fun:G__call_setup_funcs
   fun:_ZN23G__cpp_setup_initG__ZipC2Ev
   fun:_ZN23G__cpp_setup_initG__ZipC1Ev
   fun:__cxx_global_var_init46
   fun:_GLOBAL__I_a
   fun:_ZN16ImageLoaderMachO18doModInitFunctionsERKN11ImageLoader11LinkContextE
   fun:_ZN16ImageLoaderMachO16doInitializationERKN11ImageLoader11LinkContextE
}
{
   <insert_a_suppression_name_here>
   Memcheck:Leak
   match-leak-kinds: definite
   fun:malloc
   fun:_Znwm
   fun:G__get_linked_tagnum_fwd
   fun:G__cpp_setup_tagtableG__MetaUtils
   fun:G__cpp_setupG__MetaUtils
   fun:G__call_setup_funcs
   fun:_ZN29G__cpp_setup_initG__MetaUtilsC2Ev
   fun:_ZN29G__cpp_setup_initG__MetaUtilsC1Ev
   fun:__cxx_global_var_init25
   fun:_GLOBAL__I_a
   fun:_ZN16ImageLoaderMachO18doModInitFunctionsERKN11ImageLoader11LinkContextE
   fun:_ZN16ImageLoaderMachO16doInitializationERKN11ImageLoader11LinkContextE
}
{
   <insert_a_suppression_name_here>
   Memcheck:Leak
   match-leak-kinds: definite
   fun:malloc
   fun:_Znwm
   fun:G__get_linked_tagnum_fwd
   fun:G__cpp_setup_tagtableG__TextInput
   fun:G__cpp_setupG__TextInput
   fun:G__call_setup_funcs
   fun:_ZN29G__cpp_setup_initG__TextInputC2Ev
   fun:_ZN29G__cpp_setup_initG__TextInputC1Ev
   fun:__cxx_global_var_init13
   fun:_GLOBAL__I_a
   fun:_ZN16ImageLoaderMachO18doModInitFunctionsERKN11ImageLoader11LinkContextE
   fun:_ZN16ImageLoaderMachO16doInitializationERKN11ImageLoader11LinkContextE
}
{
   <insert_a_suppression_name_here>
   Memcheck:Leak
   match-leak-kinds: definite
   fun:malloc
   fun:_Znwm
   fun:G__get_linked_tagnum_fwd
   fun:G__cpp_setup_tagtableG__Thread
   fun:G__cpp_setupG__Thread
   fun:G__call_setup_funcs
   fun:_ZN26G__cpp_setup_initG__ThreadC2Ev
   fun:_ZN26G__cpp_setup_initG__ThreadC1Ev
   fun:__cxx_global_var_init133
   fun:_GLOBAL__I_a
   fun:_ZN16ImageLoaderMachO18doModInitFunctionsERKN11ImageLoader11LinkContextE
   fun:_ZN16ImageLoaderMachO16doInitializationERKN11ImageLoader11LinkContextE
}
{
   <insert_a_suppression_name_here>
   Memcheck:Leak
   match-leak-kinds: definite
   fun:malloc
   fun:_Znwm
   fun:G__get_linked_tagnum_fwd
   fun:G__cpp_setup_tagtableG__IO
   fun:G__cpp_setupG__IO
   fun:G__call_setup_funcs
   fun:_ZN22G__cpp_setup_initG__IOC2Ev
   fun:_ZN22G__cpp_setup_initG__IOC1Ev
   fun:__cxx_global_var_init528
   fun:_GLOBAL__I_a
   fun:_ZN16ImageLoaderMachO18doModInitFunctionsERKN11ImageLoader11LinkContextE
   fun:_ZN16ImageLoaderMachO16doInitializationERKN11ImageLoader11LinkContextE
}
{
   <insert_a_suppression_name_here>
   Memcheck:Leak
   match-leak-kinds: definite
   fun:malloc
   fun:_Znwm
   fun:G__get_linked_tagnum_fwd
   fun:G__cpp_setup_tagtableG__MathCore
   fun:G__cpp_setupG__MathCore
   fun:G__call_setup_funcs
   fun:_GLOBAL__I_a
   fun:_ZN16ImageLoaderMachO18doModInitFunctionsERKN11ImageLoader11LinkContextE
   fun:_ZN16ImageLoaderMachO16doInitializationERKN11ImageLoader11LinkContextE
   fun:_ZN11ImageLoader23recursiveInitializationERKNS_11LinkContextEjRNS_21InitializerTimingListE
   fun:_ZN11ImageLoader23recursiveInitializationERKNS_11LinkContextEjRNS_21InitializerTimingListE
   fun:_ZN11ImageLoader23recursiveInitializationERKNS_11LinkContextEjRNS_21InitializerTimingListE
}
{
   <insert_a_suppression_name_here>
   Memcheck:Leak
   match-leak-kinds: definite
   fun:malloc
   fun:_Znwm
   fun:G__get_linked_tagnum_fwd
   fun:G__cpp_setupG__MathCore
   fun:G__call_setup_funcs
   fun:_GLOBAL__I_a
   fun:_ZN16ImageLoaderMachO18doModInitFunctionsERKN11ImageLoader11LinkContextE
   fun:_ZN16ImageLoaderMachO16doInitializationERKN11ImageLoader11LinkContextE
   fun:_ZN11ImageLoader23recursiveInitializationERKNS_11LinkContextEjRNS_21InitializerTimingListE
   fun:_ZN11ImageLoader23recursiveInitializationERKNS_11LinkContextEjRNS_21InitializerTimingListE
   fun:_ZN11ImageLoader23recursiveInitializationERKNS_11LinkContextEjRNS_21InitializerTimingListE
   fun:_ZN11ImageLoader15runInitializersERKNS_11LinkContextERNS_21InitializerTimingListE
}
{
   <insert_a_suppression_name_here>
   Memcheck:Leak
   match-leak-kinds: definite
   fun:malloc
   fun:_Znwm
   fun:G__get_linked_tagnum_fwd
   fun:G__cpp_setup_tagtableG__MathFit
   fun:G__cpp_setupG__MathFit
   fun:G__call_setup_funcs
   fun:_GLOBAL__I_a
   fun:_ZN16ImageLoaderMachO18doModInitFunctionsERKN11ImageLoader11LinkContextE
   fun:_ZN16ImageLoaderMachO16doInitializationERKN11ImageLoader11LinkContextE
   fun:_ZN11ImageLoader23recursiveInitializationERKNS_11LinkContextEjRNS_21InitializerTimingListE
   fun:_ZN11ImageLoader23recursiveInitializationERKNS_11LinkContextEjRNS_21InitializerTimingListE
   fun:_ZN11ImageLoader23recursiveInitializationERKNS_11LinkContextEjRNS_21InitializerTimingListE
}
{
   <insert_a_suppression_name_here>
   Memcheck:Leak
   match-leak-kinds: definite
   fun:malloc
   fun:_Znwm
   fun:G__get_linked_tagnum_fwd
   fun:G__cpp_setup_tagtableG__Net
   fun:G__cpp_setupG__Net
   fun:G__call_setup_funcs
   fun:_ZN23G__cpp_setup_initG__NetC2Ev
   fun:_ZN23G__cpp_setup_initG__NetC1Ev
   fun:__cxx_global_var_init463
   fun:_GLOBAL__I_a
   fun:_ZN16ImageLoaderMachO18doModInitFunctionsERKN11ImageLoader11LinkContextE
   fun:_ZN16ImageLoaderMachO16doInitializationERKN11ImageLoader11LinkContextE
}
{
   <insert_a_suppression_name_here>
   Memcheck:Leak
   match-leak-kinds: definite
   fun:malloc
   fun:_Znwm
   fun:G__get_linked_tagnum_fwd
   fun:G__cpp_setup_tagtableG__Matrix
   fun:G__cpp_setupG__Matrix
   fun:G__call_setup_funcs
   fun:_ZN26G__cpp_setup_initG__MatrixC2Ev
   fun:_ZN26G__cpp_setup_initG__MatrixC1Ev
   fun:__cxx_global_var_init454
   fun:_GLOBAL__I_a
   fun:_ZN16ImageLoaderMachO18doModInitFunctionsERKN11ImageLoader11LinkContextE
   fun:_ZN16ImageLoaderMachO16doInitializationERKN11ImageLoader11LinkContextE
}
{
   <insert_a_suppression_name_here>
   Memcheck:Leak
   match-leak-kinds: definite
   fun:malloc
   fun:_Znwm
   fun:G__get_linked_tagnum_fwd
   fun:G__cpp_setup_tagtableG__Hist
   fun:G__cpp_setupG__Hist
   fun:G__call_setup_funcs
   fun:_GLOBAL__I_a
   fun:_ZN16ImageLoaderMachO18doModInitFunctionsERKN11ImageLoader11LinkContextE
   fun:_ZN16ImageLoaderMachO16doInitializationERKN11ImageLoader11LinkContextE
   fun:_ZN11ImageLoader23recursiveInitializationERKNS_11LinkContextEjRNS_21InitializerTimingListE
   fun:_ZN11ImageLoader23recursiveInitializationERKNS_11LinkContextEjRNS_21InitializerTimingListE
   fun:_ZN11ImageLoader15runInitializersERKNS_11LinkContextERNS_21InitializerTimingListE
}
{
   <insert_a_suppression_name_here>
   Memcheck:Leak
   match-leak-kinds: definite
   fun:malloc
   fun:_Znwm
   fun:G__get_linked_tagnum_fwd
   fun:G__cpp_setup_tagtableG__Graf
   fun:G__cpp_setupG__Graf
   fun:G__call_setup_funcs
   fun:_ZN24G__cpp_setup_initG__GrafC2Ev
   fun:_ZN24G__cpp_setup_initG__GrafC1Ev
   fun:__cxx_global_var_init414
   fun:_GLOBAL__I_a
   fun:_ZN16ImageLoaderMachO18doModInitFunctionsERKN11ImageLoader11LinkContextE
   fun:_ZN16ImageLoaderMachO16doInitializationERKN11ImageLoader11LinkContextE
}
{
   <insert_a_suppression_name_here>
   Memcheck:Leak
   match-leak-kinds: definite
   fun:malloc
   fun:_Znwm
   fun:G__get_linked_tagnum_fwd
   fun:G__cpp_setup_tagtableG__GPad
   fun:G__cpp_setupG__GPad
   fun:G__call_setup_funcs
   fun:_ZN24G__cpp_setup_initG__GPadC2Ev
   fun:_ZN24G__cpp_setup_initG__GPadC1Ev
   fun:__cxx_global_var_init322
   fun:_GLOBAL__I_a
   fun:_ZN16ImageLoaderMachO18doModInitFunctionsERKN11ImageLoader11LinkContextE
   fun:_ZN16ImageLoaderMachO16doInitializationERKN11ImageLoader11LinkContextE
}
{
   <insert_a_suppression_name_here>
   Memcheck:Leak
   match-leak-kinds: definite
   fun:malloc
   fun:_Znwm
   fun:G__get_linked_tagnum_fwd
   fun:G__cpp_setup_tagtableG__G3D
   fun:G__cpp_setupG__G3D
   fun:G__call_setup_funcs
   fun:_ZN23G__cpp_setup_initG__G3DC2Ev
   fun:_ZN23G__cpp_setup_initG__G3DC1Ev
   fun:__cxx_global_var_init335
   fun:_GLOBAL__I_a
   fun:_ZN16ImageLoaderMachO18doModInitFunctionsERKN11ImageLoader11LinkContextE
   fun:_ZN16ImageLoaderMachO16doInitializationERKN11ImageLoader11LinkContextE
}
{
   <insert_a_suppression_name_here>
   Memcheck:Leak
   match-leak-kinds: definite
   fun:malloc
   fun:_Znwm
   fun:G__get_linked_tagnum_fwd
   fun:G__cpp_setup_tagtableG__Tree
   fun:G__cpp_setupG__Tree
   fun:G__call_setup_funcs
   fun:_ZN24G__cpp_setup_initG__TreeC2Ev
   fun:_ZN24G__cpp_setup_initG__TreeC1Ev
   fun:__cxx_global_var_init710
   fun:_GLOBAL__I_a
   fun:_ZN16ImageLoaderMachO18doModInitFunctionsERKN11ImageLoader11LinkContextE
   fun:_ZN16ImageLoaderMachO16doInitializationERKN11ImageLoader11LinkContextE
}
{
   <insert_a_suppression_name_here>
   Memcheck:Leak
   match-leak-kinds: definite
   fun:malloc
   fun:_Znwm
   fun:G__get_linked_tagnum_fwd
   fun:G__cpp_setup_tagtableG__Rint
   fun:G__cpp_setupG__Rint
   fun:G__call_setup_funcs
   fun:_ZN24G__cpp_setup_initG__RintC2Ev
   fun:_ZN24G__cpp_setup_initG__RintC1Ev
   fun:__cxx_global_var_init69
   fun:_GLOBAL__I_a
   fun:_ZN16ImageLoaderMachO18doModInitFunctionsERKN11ImageLoader11LinkContextE
   fun:_ZN16ImageLoaderMachO16doInitializationERKN11ImageLoader11LinkContextE
}
{
   <insert_a_suppression_name_here>
   Memcheck:Leak
   match-leak-kinds: definite
   fun:malloc
   fun:_Znwm
   fun:G__get_linked_tagnum_fwd
   fun:G__cpp_setup_tagtableG__Physics
   fun:G__cpp_setupG__Physics
   fun:G__call_setup_funcs
   fun:_ZN27G__cpp_setup_initG__PhysicsC2Ev
   fun:_ZN27G__cpp_setup_initG__PhysicsC1Ev
   fun:__cxx_global_var_init235
   fun:_GLOBAL__I_a
   fun:_ZN16ImageLoaderMachO18doModInitFunctionsERKN11ImageLoader11LinkContextE
   fun:_ZN16ImageLoaderMachO16doInitializationERKN11ImageLoader11LinkContextE
}
{
   <insert_a_suppression_name_here>
   Memcheck:Leak
   match-leak-kinds: definite
   fun:malloc
   fun:_Znwm
   fun:G__get_methodhandle_noerror
   fun:G__get_methodhandle
   fun:_ZN4Cint12G__ClassInfo9GetMethodEPKcS2_PlNS0_9MatchModeENS0_15InheritanceModeE
   fun:_ZNK5TCint23ClassInfo_IsValidMethodEPvPKcS2_Pl
   fun:_ZNK6TClass8PropertyEv
   fun:_ZN6TClass13PostLoadCheckEv
   fun:_ZNK5TROOT9LoadClassEPKcb
   fun:_ZN6TClass8GetClassEPKcbb
   fun:_ZN19TGenCollectionProxy5ValueC2ERKSsb
   fun:_ZN24TEmulatedCollectionProxy12InitializeExEb
}
{
   <insert_a_suppression_name_here>
   Memcheck:Leak
   match-leak-kinds: definite
   fun:malloc
   fun:_Znwm
   fun:G__get_methodhandle_noerror
   fun:G__get_methodhandle
   fun:_ZN4Cint12G__ClassInfo9GetMethodEPKcS2_PlNS0_9MatchModeENS0_15InheritanceModeE
   fun:_ZNK5TCint23ClassInfo_IsValidMethodEPvPKcS2_Pl
   fun:_ZNK6TClass8PropertyEv
   fun:_ZN6TClass13PostLoadCheckEv
   fun:_ZNK5TROOT9LoadClassEPKcb
   fun:_ZN6TClass8GetClassEPKcbb
   fun:_ZN13TStreamerInfo5BuildEv
   fun:_ZN11TBufferFile16WriteClassBufferEPK6TClassPv
}
{
   <insert_a_suppression_name_here>
   Memcheck:Leak
   match-leak-kinds: definite
   fun:malloc
   fun:_Znwm
   fun:G__get_methodhandle_noerror
   fun:G__get_methodhandle
   fun:_ZN4Cint12G__ClassInfo9GetMethodEPKcS2_PlNS0_9MatchModeENS0_15InheritanceModeE
   fun:_ZNK5TCint23ClassInfo_IsValidMethodEPvPKcS2_Pl
   fun:_ZNK6TClass8PropertyEv
   fun:_ZN6TClass13PostLoadCheckEv
   fun:_ZNK5TROOT9LoadClassEPKcb
   fun:_ZN6TClass8GetClassEPKcbb
   fun:_ZN10TBaseClass15GetClassPointerEb
   fun:_ZN6TClass25GetBaseClassOffsetRecurseEPKS_
}
{
   <insert_a_suppression_name_here>
   Memcheck:Leak
   match-leak-kinds: possible
   fun:malloc
   fun:_Znwm
   fun:_ZNSs9_M_mutateEmmm
   fun:_ZNSs15_M_replace_safeEmmPKcm
   fun:_ZN9TClassRef6AssignEP6TClass
   fun:_ZN10TBaseClass15GetClassPointerEb
   fun:_ZN6TClass12GetBaseClassEPKS_
   fun:_ZN6TClass12GetBaseClassEPKS_
   fun:_ZNK6TClass12InheritsFromEPKS_
   fun:_ZN14TBuildRealData7InspectEP6TClassPKcS3_PKv
   fun:_ZN4ROOT21TClassRef_ShowMembersEPvR16TMemberInspector
   fun:_ZNK6TClass15CallShowMembersEPvR16TMemberInspectori
}
{
   <insert_a_suppression_name_here>
   Memcheck:Leak
   match-leak-kinds: possible
   fun:malloc
   fun:_Znwm
   fun:_ZNSs9_M_mutateEmmm
   fun:_ZNSs15_M_replace_safeEmmPKcm
   fun:_ZN19TGenCollectionProxyC2ERKN4ROOT20TCollectionProxyInfoEP6TClass
   fun:_ZN23TCollectionProxyFactory16GenExplicitProxyERKN4ROOT20TCollectionProxyInfoEP6TClass
   fun:_ZN6TClass18SetCollectionProxyERKN4ROOT20TCollectionProxyInfoE
   fun:_ZN4ROOT17TGenericClassInfo8GetClassEv
   fun:_ZNK5TROOT9LoadClassEPKcb
   fun:_ZN6TClass8GetClassEPKcbb
   fun:_ZN14TBuildRealData7InspectEP6TClassPKcS3_PKv
   fun:_ZN5Event11ShowMembersER16TMemberInspector
}
{
   <insert_a_suppression_name_here>
   Memcheck:Leak
   match-leak-kinds: definite
   fun:malloc
   fun:_Znwm
   fun:_ZN7TSystem4LoadEPKcS1_b
   fun:_ZL21G__G__Base2_275_0_122P8G__valuePKcP8G__parami
   fun:_ZN4Cint11G__CallFunc7ExecuteEPv
   fun:_GLOBAL__I_a
   fun:_ZN16ImageLoaderMachO18doModInitFunctionsERKN11ImageLoader11LinkContextE
   fun:_ZN16ImageLoaderMachO16doInitializationERKN11ImageLoader11LinkContextE
   fun:_ZN11ImageLoader23recursiveInitializationERKNS_11LinkContextEjRNS_21InitializerTimingListE
   fun:_ZN11ImageLoader15runInitializersERKNS_11LinkContextERNS_21InitializerTimingListE
   fun:_ZN4dyld15runInitializersEP11ImageLoader
   fun:dlopen
}
{
   <insert_a_suppression_name_here>
   Memcheck:Leak
   match-leak-kinds: possible
   fun:malloc
   fun:_Znwm
   fun:_ZNSs9_M_mutateEmmm
   fun:_ZNSs15_M_replace_safeEmmPKcm
   fun:_ZN19TGenCollectionProxyC2ERKN4ROOT20TCollectionProxyInfoEP6TClass
   fun:_ZN23TCollectionProxyFactory16GenExplicitProxyERKN4ROOT20TCollectionProxyInfoEP6TClass
   fun:_ZN6TClass18SetCollectionProxyERKN4ROOT20TCollectionProxyInfoE
   fun:_ZN4ROOT17TGenericClassInfo8GetClassEv
   fun:_ZNK5TROOT9LoadClassEPKcb
   fun:_ZN6TClass8GetClassEPKcbb
   fun:_ZN14TBuildRealData7InspectEP6TClassPKcS3_PKv
   fun:_ZN5Cycle11ShowMembersER16TMemberInspector
}
{
   <insert_a_suppression_name_here>
   Memcheck:Leak
   match-leak-kinds: possible
   fun:malloc
   fun:_Znwm
   fun:_ZNSs9_M_mutateEmmm
   fun:_ZNSs15_M_replace_safeEmmPKcm
   fun:_ZN19TGenCollectionProxyC2ERKN4ROOT20TCollectionProxyInfoEP6TClass
   fun:_ZN23TCollectionProxyFactory16GenExplicitProxyERKN4ROOT20TCollectionProxyInfoEP6TClass
   fun:_ZN6TClass18SetCollectionProxyERKN4ROOT20TCollectionProxyInfoE
   fun:_ZN4ROOT17TGenericClassInfo8GetClassEv
   fun:_ZNK5TROOT9LoadClassEPKcb
   fun:_ZN6TClass8GetClassEPKcbb
   fun:_ZN14TBuildRealData7InspectEP6TClassPKcS3_PKv
   fun:_ZN9TRefTable11ShowMembersER16TMemberInspector
}
{
   <insert_a_suppression_name_here>
   Memcheck:Leak
   match-leak-kinds: definite
   fun:malloc
   fun:_Znwm
   fun:_ZN11TDataMemberC2EPvP6TClass
   fun:_ZN5TCint23CreateListOfDataMembersEP6TClass
   fun:_ZN6TClass20GetListOfDataMembersEv
   fun:_ZNK6TClass13GetDataMemberEPKc
   fun:_ZN14TBuildRealData7InspectEP6TClassPKcS3_PKv
   fun:_ZN14TBranchElement11ShowMembersER16TMemberInspector
   fun:_ZNK6TClass15CallShowMembersEPvR16TMemberInspectori
   fun:_ZN6TClass13BuildRealDataEPvb
   fun:_ZN11TBufferFile16WriteClassBufferEPK6TClassPv
   fun:_ZN14TBranchElement8StreamerER7TBuffer
}
{
   <insert_a_suppression_name_here>
   Memcheck:Leak
   match-leak-kinds: possible
   fun:malloc
   fun:_Znwm
   fun:_ZN6TClass25GetBaseClassOffsetRecurseEPKS_
   fun:_ZN6TClass25GetBaseClassOffsetRecurseEPKS_
   fun:_ZN6TClass18GetBaseClassOffsetEPKS_
   fun:_ZN11TBufferFile14WriteObjectAnyEPKvPK6TClass
   fun:_ZN9TObjArray8StreamerER7TBuffer
   fun:_ZN11TBufferFile16WriteObjectClassEPKvPK6TClass
   fun:_ZN11TBufferFile14WriteObjectAnyEPKvPK6TClass
   fun:_ZN13TStreamerInfo8StreamerER7TBuffer
   fun:_ZN11TBufferFile16WriteObjectClassEPKvPK6TClass
   fun:_ZN11TBufferFile14WriteObjectAnyEPKvPK6TClass
}
{
   <insert_a_suppression_name_here>
   Memcheck:Leak
   match-leak-kinds: possible
   fun:malloc
   fun:_Znwm
   fun:_ZN6TClass25GetBaseClassOffsetRecurseEPKS_
   fun:_ZN6TClass18GetBaseClassOffsetEPKS_
   fun:_ZN11TBufferFile14WriteObjectAnyEPKvPK6TClass
   fun:_ZN5TList8StreamerER7TBuffer
   fun:_ZN11TBufferFile16WriteObjectClassEPKvPK6TClass
   fun:_ZN11TBufferFile14WriteObjectAnyEPKvPK6TClass
   fun:_ZN5TList8StreamerER7TBuffer
   fun:_ZN4TKeyC2EPK7TObjectPKciP10TDirectory
   fun:_ZN5TFile17WriteStreamerInfoEv
   fun:_ZN5TFile5CloseEPKc
}
{
   <insert_a_suppression_name_here>
   Memcheck:Leak
   match-leak-kinds: definite
   fun:malloc
   fun:_Znwm
   fun:G__loadsystemfile
   fun:_ZN5TCint4LoadEPKcb
   fun:_ZN7TSystem4LoadEPKcS1_b
   fun:_ZN7TSystem4LoadEPKcS1_b
   fun:_ZN5TROOT9LoadClassEPKcS1_b
   fun:_ZN5TCint16AutoLoadCallbackEPKcS1_
   fun:TCint_AutoLoadCallback
   fun:G__class_autoloading
   fun:G__defined_tagname
   fun:G__search_tagname
}
{
   <insert_a_suppression_name_here>
   Memcheck:Leak
   match-leak-kinds: definite
   fun:malloc
   fun:_Znwm
   fun:G__loadsystemfile
   fun:_ZN5TCint4LoadEPKcb
   fun:_ZN7TSystem4LoadEPKcS1_b
   fun:_ZN5TROOT9LoadClassEPKcS1_b
   fun:_ZN5TCint16AutoLoadCallbackEPKcS1_
   fun:TCint_AutoLoadCallback
   fun:G__class_autoloading
   fun:G__defined_tagname
   fun:G__search_tagname
   fun:G__parse_parameter_link
}
{
   <insert_a_suppression_name_here>
   Memcheck:Leak
   match-leak-kinds: definite
   fun:malloc
   fun:_Znwm
   fun:G__loadsystemfile
   fun:_ZN5TCint4LoadEPKcb
   fun:_ZN7TSystem4LoadEPKcS1_b
   fun:_ZL21G__G__Base2_275_0_122P8G__valuePKcP8G__parami
   fun:_ZN4Cint11G__CallFunc7ExecuteEPv
   fun:_GLOBAL__I_a
   fun:_ZN16ImageLoaderMachO18doModInitFunctionsERKN11ImageLoader11LinkContextE
   fun:_ZN16ImageLoaderMachO16doInitializationERKN11ImageLoader11LinkContextE
   fun:_ZN11ImageLoader23recursiveInitializationERKNS_11LinkContextEjRNS_21InitializerTimingListE
   fun:_ZN11ImageLoader15runInitializersERKNS_11LinkContextERNS_21InitializerTimingListE
}
{
   <insert_a_suppression_name_here>
   Memcheck:Leak
   match-leak-kinds: possible
   fun:malloc
   fun:_Znwm
   fun:_ZNSs9_M_mutateEmmm
   fun:_ZNSs15_M_replace_safeEmmPKcm
   fun:_ZN9TClassRef6AssignEP6TClass
   fun:_ZN10TBaseClass15GetClassPointerEb
   fun:_ZN6TClass12GetBaseClassEPKS_
   fun:_ZNK6TClass12InheritsFromEPKS_
   fun:_ZNK6TClass8PropertyEv
   fun:_ZN6TClass13PostLoadCheckEv
   fun:_ZNK5TROOT9LoadClassEPKcb
   fun:_ZN14TPluginHandler10LoadPluginEv
}
{
   <insert_a_suppression_name_here>
   Memcheck:Leak
   match-leak-kinds: possible
   fun:malloc
   fun:_Znwm
   fun:_ZN6TNamed8SetTitleEPKc
   fun:_ZN6TClass4InitEPKcsPKSt9type_infoP16TVirtualIsAProxyPFvPvR16TMemberInspectorES1_S1_iib
   fun:_ZN6TClassC2EPKcsRKSt9type_infoP16TVirtualIsAProxyPFvPvR16TMemberInspectorES1_S1_iib
   fun:_ZN4ROOT11CreateClassEPKcsRKSt9type_infoP16TVirtualIsAProxyPFvPvR16TMemberInspectorES1_S1_ii
   fun:_ZNK4ROOT20TDefaultInitBehavior11CreateClassEPKcsRKSt9type_infoP16TVirtualIsAProxyPFvPvR16TMemberInspectorES2_S2_ii
   fun:_ZN4ROOT17TGenericClassInfo8GetClassEv
   fun:_ZN12TStreamerSTL5ClassEv
   fun:_ZNK6TClass12InheritsFromEPKS_
   fun:_ZNK6TClass8PropertyEv
   fun:_ZN14TBuildRealData7InspectEP6TClassPKcS3_PKv
}
{
   <insert_a_suppression_name_here>
   Memcheck:Leak
   match-leak-kinds: possible
   fun:malloc
   fun:_Znwm
   fun:_ZN6TNamed8SetTitleEPKc
   fun:_ZN6TClass4InitEPKcsPKSt9type_infoP16TVirtualIsAProxyPFvPvR16TMemberInspectorES1_S1_iib
   fun:_ZN6TClassC2EPKcsRKSt9type_infoP16TVirtualIsAProxyPFvPvR16TMemberInspectorES1_S1_iib
   fun:_ZN4ROOT11CreateClassEPKcsRKSt9type_infoP16TVirtualIsAProxyPFvPvR16TMemberInspectorES1_S1_ii
   fun:_ZNK4ROOT20TDefaultInitBehavior11CreateClassEPKcsRKSt9type_infoP16TVirtualIsAProxyPFvPvR16TMemberInspectorES2_S2_ii
   fun:_ZN4ROOT17TGenericClassInfo8GetClassEv
   fun:_ZN13TStreamerBase5ClassEv
   fun:_ZNK6TClass12InheritsFromEPKS_
   fun:_ZNK6TClass8PropertyEv
   fun:_ZN14TBuildRealData7InspectEP6TClassPKcS3_PKv
}
{
   <insert_a_suppression_name_here>
   Memcheck:Leak
   match-leak-kinds: possible
   fun:malloc
   fun:_Znwm
   fun:_ZN6TNamed8SetTitleEPKc
   fun:_ZN6TClass4InitEPKcsPKSt9type_infoP16TVirtualIsAProxyPFvPvR16TMemberInspectorES1_S1_iib
   fun:_ZN6TClassC2EPKcsRKSt9type_infoP16TVirtualIsAProxyPFvPvR16TMemberInspectorES1_S1_iib
   fun:_ZN4ROOT11CreateClassEPKcsRKSt9type_infoP16TVirtualIsAProxyPFvPvR16TMemberInspectorES1_S1_ii
   fun:_ZNK4ROOT20TDefaultInitBehavior11CreateClassEPKcsRKSt9type_infoP16TVirtualIsAProxyPFvPvR16TMemberInspectorES2_S2_ii
   fun:_ZN4ROOT17TGenericClassInfo8GetClassEv
   fun:_ZN21TStreamerBasicPointer5ClassEv
   fun:_ZN14TBranchElement4InitEP5TTreeP7TBranchPKcP13TStreamerInfoiPciii
   fun:_ZN14TBranchElementC2EP7TBranchPKcP13TStreamerInfoiPciii
   fun:_ZN5TTree10BronchExecEPKcS1_Pvbii
}
{
   <insert_a_suppression_name_here>
   Memcheck:Leak
   match-leak-kinds: possible
   fun:malloc
   fun:_Znwm
   fun:_ZN6TNamed8SetTitleEPKc
   fun:_ZN6TClass4InitEPKcsPKSt9type_infoP16TVirtualIsAProxyPFvPvR16TMemberInspectorES1_S1_iib
   fun:_ZN6TClassC2EPKcsRKSt9type_infoP16TVirtualIsAProxyPFvPvR16TMemberInspectorES1_S1_iib
   fun:_ZN4ROOT11CreateClassEPKcsRKSt9type_infoP16TVirtualIsAProxyPFvPvR16TMemberInspectorES1_S1_ii
   fun:_ZNK4ROOT20TDefaultInitBehavior11CreateClassEPKcsRKSt9type_infoP16TVirtualIsAProxyPFvPvR16TMemberInspectorES2_S2_ii
   fun:_ZN4ROOT17TGenericClassInfo8GetClassEv
   fun:_ZN18TStreamerBasicType5ClassEv
   fun:_ZN14TBranchElement6UnrollEPKcP6TClassS3_Pciii
   fun:_ZN14TBranchElement4InitEP5TTreeP7TBranchPKcP13TStreamerInfoiPciii
   fun:_ZN14TBranchElementC2EP7TBranchPKcP13TStreamerInfoiPciii
}
{
   <insert_a_suppression_name_here>
   Memcheck:Leak
   match-leak-kinds: possible
   fun:malloc
   fun:_Znwm
   fun:_ZN16TStreamerElementC2EPKcS1_iiS1_
   fun:_ZN13TStreamerBaseC2EPKcS1_i
   fun:_ZN13TStreamerInfo5BuildEv
   fun:_ZNK6TClass15GetStreamerInfoEi
   fun:_ZN13TStreamerInfo5BuildEv
   fun:_ZN11TBufferFile16WriteClassBufferEPK6TClassPv
   fun:_ZN13TStreamerBase8StreamerER7TBuffer
   fun:_ZN11TBufferFile16WriteObjectClassEPKvPK6TClass
   fun:_ZN11TBufferFile14WriteObjectAnyEPKvPK6TClass
   fun:_ZN9TObjArray8StreamerER7TBuffer
}
{
   <insert_a_suppression_name_here>
   Memcheck:Leak
   match-leak-kinds: possible
   fun:malloc
   fun:G__memfunc_setup_imp
   fun:G__memfunc_setup
   fun:_ZL34G__setup_memfuncTStreamerBasicTypev
   fun:G__incsetup_memfunc
   fun:_ZN4Cint12G__ClassInfo9HasMethodEPKc
   fun:_ZNK5TCint19ClassInfo_HasMethodEPvPKc
   fun:_ZNK6TClass8PropertyEv
   fun:_ZNK6TClass15StreamerDefaultEPvR7TBufferPKS_
   fun:_ZN11TBufferFile16WriteObjectClassEPKvPK6TClass
   fun:_ZN11TBufferFile14WriteObjectAnyEPKvPK6TClass
   fun:_ZN9TObjArray8StreamerER7TBuffer
}
{
   <insert_a_suppression_name_here>
   Memcheck:Leak
   match-leak-kinds: possible
   fun:malloc
   fun:_Znwm
   fun:_ZN6TNamed8SetTitleEPKc
   fun:_ZN6TClass4InitEPKcsPKSt9type_infoP16TVirtualIsAProxyPFvPvR16TMemberInspectorES1_S1_iib
   fun:_ZN6TClassC2EPKcsRKSt9type_infoP16TVirtualIsAProxyPFvPvR16TMemberInspectorES1_S1_iib
   fun:_ZN4ROOT11CreateClassEPKcsRKSt9type_infoP16TVirtualIsAProxyPFvPvR16TMemberInspectorES1_S1_ii
   fun:_ZNK4ROOT20TDefaultInitBehavior11CreateClassEPKcsRKSt9type_infoP16TVirtualIsAProxyPFvPvR16TMemberInspectorES2_S2_ii
   fun:_ZN4ROOT17TGenericClassInfo8GetClassEv
   fun:_ZN22TStreamerObjectPointer5ClassEv
   fun:_ZN13TStreamerInfo8StreamerER7TBuffer
   fun:_ZN11TBufferFile16WriteObjectClassEPKvPK6TClass
   fun:_ZN11TBufferFile14WriteObjectAnyEPKvPK6TClass
}
{
   <insert_a_suppression_name_here>
   Memcheck:Leak
   match-leak-kinds: possible
   fun:malloc
   fun:_Znwm
   fun:_ZN16TStreamerElementC2EPKcS1_iiS1_
   fun:_ZN18TStreamerBasicTypeC1EPKcS1_iiS1_
   fun:_ZN13TStreamerInfo5BuildEv
   fun:_ZN11TBufferFile16WriteClassBufferEPK6TClassPv
   fun:_ZN21TStreamerBasicPointer8StreamerER7TBuffer
   fun:_ZN11TBufferFile16WriteObjectClassEPKvPK6TClass
   fun:_ZN11TBufferFile14WriteObjectAnyEPKvPK6TClass
   fun:_ZN9TObjArray8StreamerER7TBuffer
   fun:_ZN11TBufferFile16WriteObjectClassEPKvPK6TClass
   fun:_ZN11TBufferFile14WriteObjectAnyEPKvPK6TClass
}
{
   <insert_a_suppression_name_here>
   Memcheck:Leak
   match-leak-kinds: possible
   fun:malloc
   fun:_Znwm
   fun:_ZN6TNamed8SetTitleEPKc
   fun:_ZN6TClass4InitEPKcsPKSt9type_infoP16TVirtualIsAProxyPFvPvR16TMemberInspectorES1_S1_iib
   fun:_ZN6TClassC2EPKcsRKSt9type_infoP16TVirtualIsAProxyPFvPvR16TMemberInspectorES1_S1_iib
   fun:_ZN4ROOT11CreateClassEPKcsRKSt9type_infoP16TVirtualIsAProxyPFvPvR16TMemberInspectorES1_S1_ii
   fun:_ZNK4ROOT20TDefaultInitBehavior11CreateClassEPKcsRKSt9type_infoP16TVirtualIsAProxyPFvPvR16TMemberInspectorES2_S2_ii
   fun:_ZN4ROOT17TGenericClassInfo8GetClassEv
   fun:_ZN15TStreamerString5ClassEv
   fun:_ZN13TStreamerInfo8StreamerER7TBuffer
   fun:_ZN11TBufferFile16WriteObjectClassEPKvPK6TClass
   fun:_ZN11TBufferFile14WriteObjectAnyEPKvPK6TClass
}
{
   <insert_a_suppression_name_here>
   Memcheck:Leak
   match-leak-kinds: definite
   fun:malloc
   fun:G__search_tagname
   fun:G__get_linked_tagnum_fwd
   fun:G__cpp_setup_tagtableManualBase4
   fun:G__cpp_setupManualBase4
   fun:G__call_setup_funcs
   fun:G__main
   fun:G__init_cint
   fun:_ZN5TCint8ResetAllEv
   fun:_ZN5TCintC2EPKcS1_
   fun:_ZN5TROOTC2EPKcS1_PPFvvE
   fun:_GLOBAL__I_a
}
{
   <insert_a_suppression_name_here>
   Memcheck:Leak
   match-leak-kinds: definite
   fun:malloc
   fun:_Znwm
   fun:G__get_methodhandle_noerror
   fun:G__get_methodhandle
   fun:_ZN4Cint12G__ClassInfo9GetMethodEPKcS2_PlNS0_9MatchModeENS0_15InheritanceModeE
   fun:_ZNK5TCint23ClassInfo_IsValidMethodEPvPKcS2_Pl
   fun:_ZNK6TClass8PropertyEv
   fun:_ZNK6TClass15StreamerDefaultEPvR7TBufferPKS_
   fun:_ZN11TBufferFile16WriteObjectClassEPKvPK6TClass
   fun:_ZN11TBufferFile14WriteObjectAnyEPKvPK6TClass
   fun:_ZN9TObjArray8StreamerER7TBuffer
   fun:_ZN11TBufferFile14WriteFastArrayEPvPK6TClassiP15TMemberStreamer
}
{
   <insert_a_suppression_name_here>
   Memcheck:Leak
   match-leak-kinds: possible
   fun:malloc
   fun:_Znwm
   fun:_ZN12TApplicationC2EPKcPiPPcPvi
   fun:main
}
{
   <insert_a_suppression_name_here>
   Memcheck:Leak
   match-leak-kinds: possible
   fun:malloc
   fun:_Znwm
   fun:_ZN13TStreamerInfo5BuildEv
   fun:_ZNK6TClass15GetStreamerInfoEi
   fun:_ZNK6TClass12InheritsFromEPKS_
   fun:_ZNK6TClass8PropertyEv
   fun:_ZN14TBuildRealData7InspectEP6TClassPKcS3_PKv
   fun:_ZN5Cycle11ShowMembersER16TMemberInspector
   fun:_ZNK6TClass12InheritsFromEPKc
   obj:*
}
{
   <insert_a_suppression_name_here>
   Memcheck:Leak
   match-leak-kinds: possible
   fun:malloc
   fun:_Znwm
   fun:_ZN13TStreamerInfo5BuildEv
   fun:_ZNK6TClass15GetStreamerInfoEi
   fun:_ZN13TStreamerInfo14ForceWriteInfoEP5TFileb
   fun:_ZN5TTree17BuildStreamerInfoEP6TClassPvb
   fun:_ZN14TBranchElement6UnrollEPKcP6TClassS3_Pciii
   fun:_ZN14TBranchElement4InitEP5TTreeP7TBranchPKcP13TStreamerInfoiPciii
   fun:_ZN14TBranchElementC2EP7TBranchPKcP13TStreamerInfoiPciii
   fun:_ZN5TTree10BronchExecEPKcS1_Pvbii
   fun:_ZN19MidasEventProcessorC1EP5TFileP5TTreeP8Settings
   obj:*
}
{
   <insert_a_suppression_name_here>
   Memcheck:Leak
   match-leak-kinds: possible
   fun:malloc
   fun:_Znwm
   fun:_ZN13TStreamerInfo5BuildEv
   fun:_ZNK6TClass15GetStreamerInfoEi
   fun:_ZN13TStreamerInfo5BuildEv
   fun:_ZNK6TClass15GetStreamerInfoEi
   fun:_ZN11TBufferFile14WriteFastArrayEPPvPK6TClassibP15TMemberStreamer
   fun:_ZN13TStreamerInfo14WriteBufferAuxIPPcEEiR7TBufferRKT_iiii
   fun:_ZN20TStreamerInfoActions18GenericWriteActionER7TBufferPvPKNS_14TConfigurationE
   fun:_ZN11TBufferFile13ApplySequenceERKN20TStreamerInfoActions15TActionSequenceEPv
   fun:_ZN11TBufferFile16WriteClassBufferEPK6TClassPv
   fun:_ZN5TTree8StreamerER7TBuffer
}
{
   <insert_a_suppression_name_here>
   Memcheck:Leak
   match-leak-kinds: possible
   fun:malloc
   fun:_Znwm
   fun:_ZN13TStreamerInfo5BuildEv
   fun:_ZNK6TClass15GetStreamerInfoEi
   fun:_ZN11TBufferFile14WriteFastArrayEPPvPK6TClassibP15TMemberStreamer
   fun:_ZN13TStreamerInfo14WriteBufferAuxIPPcEEiR7TBufferRKT_iiii
   fun:_ZN20TStreamerInfoActions18GenericWriteActionER7TBufferPvPKNS_14TConfigurationE
   fun:_ZN11TBufferFile13ApplySequenceERKN20TStreamerInfoActions15TActionSequenceEPv
   fun:_ZN11TBufferFile16WriteClassBufferEPK6TClassPv
   fun:_ZN5TTree8StreamerER7TBuffer
   fun:_ZN4TKeyC2EPK7TObjectPKciP10TDirectory
   fun:_ZN5TFile9CreateKeyEP10TDirectoryPK7TObjectPKci
}
{
   <insert_a_suppression_name_here>
   Memcheck:Leak
   match-leak-kinds: possible
   fun:malloc
   fun:_Znwm
   fun:_ZN13TStreamerInfo7CompileEv
   fun:_ZN13TStreamerInfo5BuildEv
   fun:_ZNK6TClass15GetStreamerInfoEi
   fun:_ZN13TStreamerInfo5BuildEv
   fun:_ZN11TBufferFile16WriteClassBufferEPK6TClassPv
   fun:_ZN13TStreamerBase8StreamerER7TBuffer
   fun:_ZN11TBufferFile16WriteObjectClassEPKvPK6TClass
   fun:_ZN11TBufferFile14WriteObjectAnyEPKvPK6TClass
   fun:_ZN9TObjArray8StreamerER7TBuffer
   fun:_ZN11TBufferFile16WriteObjectClassEPKvPK6TClass
}
{
   <insert_a_suppression_name_here>
   Memcheck:Leak
   match-leak-kinds: possible
   fun:malloc
   fun:_Znwm
   fun:_ZN13TStreamerInfo7CompileEv
   fun:_ZN13TStreamerInfo5BuildEv
   fun:_ZN11TBufferFile16WriteClassBufferEPK6TClassPv
   fun:_ZN13TStreamerBase8StreamerER7TBuffer
   fun:_ZN11TBufferFile16WriteObjectClassEPKvPK6TClass
   fun:_ZN11TBufferFile14WriteObjectAnyEPKvPK6TClass
   fun:_ZN9TObjArray8StreamerER7TBuffer
   fun:_ZN11TBufferFile16WriteObjectClassEPKvPK6TClass
   fun:_ZN11TBufferFile14WriteObjectAnyEPKvPK6TClass
   fun:_ZN13TStreamerInfo8StreamerER7TBuffer
}
{
   <insert_a_suppression_name_here>
   Memcheck:Leak
   match-leak-kinds: possible
   fun:malloc
   fun:_Znwm
   fun:_ZN13TStreamerInfo7CompileEv
   fun:_ZN13TStreamerInfo5BuildEv
   fun:_ZN11TBufferFile16WriteClassBufferEPK6TClassPv
   fun:_ZN12TStreamerSTL8StreamerER7TBuffer
   fun:_ZN11TBufferFile16WriteObjectClassEPKvPK6TClass
   fun:_ZN11TBufferFile14WriteObjectAnyEPKvPK6TClass
   fun:_ZN9TObjArray8StreamerER7TBuffer
   fun:_ZN11TBufferFile16WriteObjectClassEPKvPK6TClass
   fun:_ZN11TBufferFile14WriteObjectAnyEPKvPK6TClass
   fun:_ZN13TStreamerInfo8StreamerER7TBuffer
}
{
   <insert_a_suppression_name_here>
   Memcheck:Leak
   match-leak-kinds: possible
   fun:malloc
   fun:_Znwm
   fun:_ZN13TStreamerInfo7CompileEv
   fun:_ZN13TStreamerInfo5BuildEv
   fun:_ZN11TBufferFile16WriteClassBufferEPK6TClassPv
   fun:_ZN18TStreamerBasicType8StreamerER7TBuffer
   fun:_ZN11TBufferFile16WriteObjectClassEPKvPK6TClass
   fun:_ZN11TBufferFile14WriteObjectAnyEPKvPK6TClass
   fun:_ZN9TObjArray8StreamerER7TBuffer
   fun:_ZN11TBufferFile16WriteObjectClassEPKvPK6TClass
   fun:_ZN11TBufferFile14WriteObjectAnyEPKvPK6TClass
   fun:_ZN13TStreamerInfo8StreamerER7TBuffer
}
{
   <insert_a_suppression_name_here>
   Memcheck:Leak
   match-leak-kinds: possible
   fun:malloc
   fun:_Znwm
   fun:_ZN13TStreamerInfo7CompileEv
   fun:_ZN13TStreamerInfo5BuildEv
   fun:_ZN11TBufferFile16WriteClassBufferEPK6TClassPv
   fun:_ZN21TStreamerBasicPointer8StreamerER7TBuffer
   fun:_ZN11TBufferFile16WriteObjectClassEPKvPK6TClass
   fun:_ZN11TBufferFile14WriteObjectAnyEPKvPK6TClass
   fun:_ZN9TObjArray8StreamerER7TBuffer
   fun:_ZN11TBufferFile16WriteObjectClassEPKvPK6TClass
   fun:_ZN11TBufferFile14WriteObjectAnyEPKvPK6TClass
   fun:_ZN13TStreamerInfo8StreamerER7TBuffer
}
{
   <insert_a_suppression_name_here>
   Memcheck:Leak
   match-leak-kinds: possible
   fun:malloc
   fun:_Znwm
   fun:_ZN13TStreamerInfo7CompileEv
   fun:_ZN13TStreamerInfo5BuildEv
   fun:_ZN11TBufferFile16WriteClassBufferEPK6TClassPv
   fun:_ZN15TStreamerObject8StreamerER7TBuffer
   fun:_ZN11TBufferFile16WriteObjectClassEPKvPK6TClass
   fun:_ZN11TBufferFile14WriteObjectAnyEPKvPK6TClass
   fun:_ZN9TObjArray8StreamerER7TBuffer
   fun:_ZN11TBufferFile16WriteObjectClassEPKvPK6TClass
   fun:_ZN11TBufferFile14WriteObjectAnyEPKvPK6TClass
   fun:_ZN13TStreamerInfo8StreamerER7TBuffer
}
{
   <insert_a_suppression_name_here>
   Memcheck:Leak
   match-leak-kinds: possible
   fun:malloc
   fun:_Znwm
   fun:_ZN13TStreamerInfo7CompileEv
   fun:_ZN13TStreamerInfo5BuildEv
   fun:_ZN11TBufferFile16WriteClassBufferEPK6TClassPv
   fun:_ZN22TStreamerObjectPointer8StreamerER7TBuffer
   fun:_ZN11TBufferFile16WriteObjectClassEPKvPK6TClass
   fun:_ZN11TBufferFile14WriteObjectAnyEPKvPK6TClass
   fun:_ZN9TObjArray8StreamerER7TBuffer
   fun:_ZN11TBufferFile16WriteObjectClassEPKvPK6TClass
   fun:_ZN11TBufferFile14WriteObjectAnyEPKvPK6TClass
   fun:_ZN13TStreamerInfo8StreamerER7TBuffer
}
{
   <insert_a_suppression_name_here>
   Memcheck:Leak
   match-leak-kinds: possible
   fun:malloc
   fun:_Znwm
   fun:_ZN13TStreamerInfo7CompileEv
   fun:_ZN13TStreamerInfo5BuildEv
   fun:_ZN11TBufferFile16WriteClassBufferEPK6TClassPv
   fun:_ZN18TStreamerObjectAny8StreamerER7TBuffer
   fun:_ZN11TBufferFile16WriteObjectClassEPKvPK6TClass
   fun:_ZN11TBufferFile14WriteObjectAnyEPKvPK6TClass
   fun:_ZN9TObjArray8StreamerER7TBuffer
   fun:_ZN11TBufferFile16WriteObjectClassEPKvPK6TClass
   fun:_ZN11TBufferFile14WriteObjectAnyEPKvPK6TClass
   fun:_ZN13TStreamerInfo8StreamerER7TBuffer
}
{
   <insert_a_suppression_name_here>
   Memcheck:Leak
   match-leak-kinds: possible
   fun:malloc
   fun:_Znwm
   fun:_ZN13TStreamerInfo7CompileEv
   fun:_ZN13TStreamerInfo5BuildEv
   fun:_ZN11TBufferFile16WriteClassBufferEPK6TClassPv
   fun:_ZN15TStreamerString8StreamerER7TBuffer
   fun:_ZN11TBufferFile16WriteObjectClassEPKvPK6TClass
   fun:_ZN11TBufferFile14WriteObjectAnyEPKvPK6TClass
   fun:_ZN9TObjArray8StreamerER7TBuffer
   fun:_ZN11TBufferFile16WriteObjectClassEPKvPK6TClass
   fun:_ZN11TBufferFile14WriteObjectAnyEPKvPK6TClass
   fun:_ZN13TStreamerInfo8StreamerER7TBuffer
}
{
   <insert_a_suppression_name_here>
   Memcheck:Leak
   match-leak-kinds: possible
   fun:malloc
   fun:_Znwm
   fun:_ZN13TStreamerInfo7CompileEv
   fun:_ZN13TStreamerInfo5BuildEv
   fun:_ZN11TBufferFile16WriteClassBufferEPK6TClassPv
   fun:_ZN11TBufferFile16WriteObjectClassEPKvPK6TClass
   fun:_ZN11TBufferFile14WriteObjectAnyEPKvPK6TClass
   fun:_ZN5TList8StreamerER7TBuffer
   fun:_ZN11TBufferFile16WriteObjectClassEPKvPK6TClass
   fun:_ZN11TBufferFile14WriteObjectAnyEPKvPK6TClass
   fun:_ZN5TList8StreamerER7TBuffer
   fun:_ZN4TKeyC2EPK7TObjectPKciP10TDirectory
}
{
   <insert_a_suppression_name_here>
   Memcheck:Leak
   match-leak-kinds: definite
   fun:malloc
   fun:_Znwm
   fun:G__get_linked_tagnum_fwd
   fun:G__cpp_setup_tagtableG__Math
   fun:G__cpp_setupG__Math
   fun:G__call_setup_funcs
   fun:_GLOBAL__I_a
   fun:_ZN16ImageLoaderMachO18doModInitFunctionsERKN11ImageLoader11LinkContextE
   fun:_ZN16ImageLoaderMachO16doInitializationERKN11ImageLoader11LinkContextE
   fun:_ZN11ImageLoader23recursiveInitializationERKNS_11LinkContextEjRNS_21InitializerTimingListE
   fun:_ZN11ImageLoader23recursiveInitializationERKNS_11LinkContextEjRNS_21InitializerTimingListE
   fun:_ZN11ImageLoader23recursiveInitializationERKNS_11LinkContextEjRNS_21InitializerTimingListE
}
{
   <insert_a_suppression_name_here>
   Memcheck:Leak
   match-leak-kinds: possible
   fun:malloc
   fun:_Znwm
   fun:_ZN6TClass4InitEPKcsPKSt9type_infoP16TVirtualIsAProxyPFvPvR16TMemberInspectorES1_S1_iib
   fun:_ZN6TClassC2EPKcsRKSt9type_infoP16TVirtualIsAProxyPFvPvR16TMemberInspectorES1_S1_iib
   fun:_ZN4ROOT11CreateClassEPKcsRKSt9type_infoP16TVirtualIsAProxyPFvPvR16TMemberInspectorES1_S1_ii
   fun:_ZNK4ROOT20TDefaultInitBehavior11CreateClassEPKcsRKSt9type_infoP16TVirtualIsAProxyPFvPvR16TMemberInspectorES2_S2_ii
   fun:_ZN4ROOT17TGenericClassInfo8GetClassEv
   fun:_ZN12TStreamerSTL5ClassEv
   fun:_ZNK6TClass12InheritsFromEPKS_
   fun:_ZNK6TClass8PropertyEv
   fun:_ZN14TBuildRealData7InspectEP6TClassPKcS3_PKv
   fun:_ZN5Cycle11ShowMembersER16TMemberInspector
}
{
   <insert_a_suppression_name_here>
   Memcheck:Leak
   match-leak-kinds: possible
   fun:malloc
   fun:_Znwm
   fun:_ZN6TClass4InitEPKcsPKSt9type_infoP16TVirtualIsAProxyPFvPvR16TMemberInspectorES1_S1_iib
   fun:_ZN6TClassC2EPKcsRKSt9type_infoP16TVirtualIsAProxyPFvPvR16TMemberInspectorES1_S1_iib
   fun:_ZN4ROOT11CreateClassEPKcsRKSt9type_infoP16TVirtualIsAProxyPFvPvR16TMemberInspectorES1_S1_ii
   fun:_ZNK4ROOT20TDefaultInitBehavior11CreateClassEPKcsRKSt9type_infoP16TVirtualIsAProxyPFvPvR16TMemberInspectorES2_S2_ii
   fun:_ZN4ROOT17TGenericClassInfo8GetClassEv
   fun:_ZN13TStreamerBase5ClassEv
   fun:_ZNK6TClass12InheritsFromEPKS_
   fun:_ZNK6TClass8PropertyEv
   fun:_ZN14TBuildRealData7InspectEP6TClassPKcS3_PKv
   fun:_ZN5Cycle11ShowMembersER16TMemberInspector
}
{
   <insert_a_suppression_name_here>
   Memcheck:Leak
   match-leak-kinds: possible
   fun:malloc
   fun:_Znwm
   fun:_ZN6TClass4InitEPKcsPKSt9type_infoP16TVirtualIsAProxyPFvPvR16TMemberInspectorES1_S1_iib
   fun:_ZN6TClassC2EPKcsRKSt9type_infoP16TVirtualIsAProxyPFvPvR16TMemberInspectorES1_S1_iib
   fun:_ZN4ROOT11CreateClassEPKcsRKSt9type_infoP16TVirtualIsAProxyPFvPvR16TMemberInspectorES1_S1_ii
   fun:_ZNK4ROOT20TDefaultInitBehavior11CreateClassEPKcsRKSt9type_infoP16TVirtualIsAProxyPFvPvR16TMemberInspectorES2_S2_ii
   fun:_ZN4ROOT17TGenericClassInfo8GetClassEv
   fun:_ZN16TStreamerElement5ClassEv
   fun:_ZN13TStreamerInfo5BuildEv
   fun:_ZNK6TClass15GetStreamerInfoEi
   fun:_ZN5TTree17BuildStreamerInfoEP6TClassPvb
   fun:_ZN5TTree10BronchExecEPKcS1_Pvbii
}
{
   <insert_a_suppression_name_here>
   Memcheck:Leak
   match-leak-kinds: possible
   fun:malloc
   fun:_Znwm
   fun:_ZN6TNamed8SetTitleEPKc
   fun:_ZN6TClass4InitEPKcsPKSt9type_infoP16TVirtualIsAProxyPFvPvR16TMemberInspectorES1_S1_iib
   fun:_ZN6TClassC2EPKcsRKSt9type_infoP16TVirtualIsAProxyPFvPvR16TMemberInspectorES1_S1_iib
   fun:_ZN4ROOT11CreateClassEPKcsRKSt9type_infoP16TVirtualIsAProxyPFvPvR16TMemberInspectorES1_S1_ii
   fun:_ZNK4ROOT20TDefaultInitBehavior11CreateClassEPKcsRKSt9type_infoP16TVirtualIsAProxyPFvPvR16TMemberInspectorES2_S2_ii
   fun:_ZN4ROOT17TGenericClassInfo8GetClassEv
   fun:_ZN16TStreamerElement5ClassEv
   fun:_ZN13TStreamerInfo5BuildEv
   fun:_ZNK6TClass15GetStreamerInfoEi
   fun:_ZN5TTree17BuildStreamerInfoEP6TClassPvb
}
{
   <insert_a_suppression_name_here>
   Memcheck:Leak
   match-leak-kinds: possible
   fun:malloc
   fun:_Znwm
   fun:_ZN6TClass4InitEPKcsPKSt9type_infoP16TVirtualIsAProxyPFvPvR16TMemberInspectorES1_S1_iib
   fun:_ZN6TClassC2EPKcsRKSt9type_infoP16TVirtualIsAProxyPFvPvR16TMemberInspectorES1_S1_iib
   fun:_ZN4ROOT11CreateClassEPKcsRKSt9type_infoP16TVirtualIsAProxyPFvPvR16TMemberInspectorES1_S1_ii
   fun:_ZNK4ROOT20TDefaultInitBehavior11CreateClassEPKcsRKSt9type_infoP16TVirtualIsAProxyPFvPvR16TMemberInspectorES2_S2_ii
   fun:_ZN4ROOT17TGenericClassInfo8GetClassEv
   fun:_ZN21TStreamerBasicPointer5ClassEv
   fun:_ZN14TBranchElement4InitEP5TTreeP7TBranchPKcP13TStreamerInfoiPciii
   fun:_ZN14TBranchElementC2EP7TBranchPKcP13TStreamerInfoiPciii
   fun:_ZN5TTree10BronchExecEPKcS1_Pvbii
   fun:_ZN19MidasEventProcessorC1EP5TFileP5TTreeP8Settings
}
{
   <insert_a_suppression_name_here>
   Memcheck:Leak
   match-leak-kinds: possible
   fun:malloc
   fun:_Znwm
   fun:_ZN6TClass4InitEPKcsPKSt9type_infoP16TVirtualIsAProxyPFvPvR16TMemberInspectorES1_S1_iib
   fun:_ZN6TClassC2EPKcsRKSt9type_infoP16TVirtualIsAProxyPFvPvR16TMemberInspectorES1_S1_iib
   fun:_ZN4ROOT11CreateClassEPKcsRKSt9type_infoP16TVirtualIsAProxyPFvPvR16TMemberInspectorES1_S1_ii
   fun:_ZNK4ROOT20TDefaultInitBehavior11CreateClassEPKcsRKSt9type_infoP16TVirtualIsAProxyPFvPvR16TMemberInspectorES2_S2_ii
   fun:_ZN4ROOT17TGenericClassInfo8GetClassEv
   fun:_ZN18TStreamerBasicType5ClassEv
   fun:_ZN14TBranchElement6UnrollEPKcP6TClassS3_Pciii
   fun:_ZN14TBranchElement4InitEP5TTreeP7TBranchPKcP13TStreamerInfoiPciii
   fun:_ZN14TBranchElementC2EP7TBranchPKcP13TStreamerInfoiPciii
   fun:_ZN5TTree10BronchExecEPKcS1_Pvbii
}
{
   <insert_a_suppression_name_here>
   Memcheck:Leak
   match-leak-kinds: possible
   fun:malloc
   fun:_Znwm
   fun:_ZN6TClass4InitEPKcsPKSt9type_infoP16TVirtualIsAProxyPFvPvR16TMemberInspectorES1_S1_iib
   fun:_ZN6TClassC2EPKcsRKSt9type_infoP16TVirtualIsAProxyPFvPvR16TMemberInspectorES1_S1_iib
   fun:_ZN4ROOT11CreateClassEPKcsRKSt9type_infoP16TVirtualIsAProxyPFvPvR16TMemberInspectorES1_S1_ii
   fun:_ZNK4ROOT20TDefaultInitBehavior11CreateClassEPKcsRKSt9type_infoP16TVirtualIsAProxyPFvPvR16TMemberInspectorES2_S2_ii
   fun:_ZN4ROOT17TGenericClassInfo8GetClassEv
   fun:_ZN15TStreamerObject5ClassEv
   fun:_ZN14TBranchElement6UnrollEPKcP6TClassS3_Pciii
   fun:_ZN14TBranchElement4InitEP5TTreeP7TBranchPKcP13TStreamerInfoiPciii
   fun:_ZN14TBranchElementC2EP7TBranchPKcP13TStreamerInfoiPciii
   fun:_ZN5TTree10BronchExecEPKcS1_Pvbii
}
{
   <insert_a_suppression_name_here>
   Memcheck:Leak
   match-leak-kinds: possible
   fun:malloc
   fun:_Znwm
   fun:_ZN6TClass4InitEPKcsPKSt9type_infoP16TVirtualIsAProxyPFvPvR16TMemberInspectorES1_S1_iib
   fun:_ZN6TClassC2EPKcsRKSt9type_infoP16TVirtualIsAProxyPFvPvR16TMemberInspectorES1_S1_iib
   fun:_ZN4ROOT11CreateClassEPKcsRKSt9type_infoP16TVirtualIsAProxyPFvPvR16TMemberInspectorES1_S1_ii
   fun:_ZNK4ROOT20TDefaultInitBehavior11CreateClassEPKcsRKSt9type_infoP16TVirtualIsAProxyPFvPvR16TMemberInspectorES2_S2_ii
   fun:_ZN4ROOT17TGenericClassInfo8GetClassEv
   fun:_ZN18TStreamerObjectAny5ClassEv
   fun:_ZN14TBranchElement6UnrollEPKcP6TClassS3_Pciii
   fun:_ZN14TBranchElement4InitEP5TTreeP7TBranchPKcP13TStreamerInfoiPciii
   fun:_ZN14TBranchElementC2EP7TBranchPKcP13TStreamerInfoiPciii
   fun:_ZN5TTree10BronchExecEPKcS1_Pvbii
}
{
   <insert_a_suppression_name_here>
   Memcheck:Leak
   match-leak-kinds: possible
   fun:malloc
   fun:_Znwm
   fun:_ZN6TNamed8SetTitleEPKc
   fun:_ZN6TClass4InitEPKcsPKSt9type_infoP16TVirtualIsAProxyPFvPvR16TMemberInspectorES1_S1_iib
   fun:_ZN6TClassC2EPKcsRKSt9type_infoP16TVirtualIsAProxyPFvPvR16TMemberInspectorES1_S1_iib
   fun:_ZN4ROOT11CreateClassEPKcsRKSt9type_infoP16TVirtualIsAProxyPFvPvR16TMemberInspectorES1_S1_ii
   fun:_ZNK4ROOT20TDefaultInitBehavior11CreateClassEPKcsRKSt9type_infoP16TVirtualIsAProxyPFvPvR16TMemberInspectorES2_S2_ii
   fun:_ZN4ROOT17TGenericClassInfo8GetClassEv
   fun:_ZN18TStreamerObjectAny5ClassEv
   fun:_ZN14TBranchElement6UnrollEPKcP6TClassS3_Pciii
   fun:_ZN14TBranchElement4InitEP5TTreeP7TBranchPKcP13TStreamerInfoiPciii
   fun:_ZN14TBranchElementC2EP7TBranchPKcP13TStreamerInfoiPciii
}
{
   <insert_a_suppression_name_here>
   Memcheck:Leak
   match-leak-kinds: possible
   fun:malloc
   fun:_Znwm
   fun:_ZN13TStreamerInfoC2EP6TClass
   fun:_ZN11TBufferFile16WriteClassBufferEPK6TClassPv
   fun:_ZN13TStreamerBase8StreamerER7TBuffer
   fun:_ZN11TBufferFile16WriteObjectClassEPKvPK6TClass
   fun:_ZN11TBufferFile14WriteObjectAnyEPKvPK6TClass
   fun:_ZN9TObjArray8StreamerER7TBuffer
   fun:_ZN11TBufferFile16WriteObjectClassEPKvPK6TClass
   fun:_ZN11TBufferFile14WriteObjectAnyEPKvPK6TClass
   fun:_ZN13TStreamerInfo8StreamerER7TBuffer
   fun:_ZN11TBufferFile16WriteObjectClassEPKvPK6TClass
}
{
   <insert_a_suppression_name_here>
   Memcheck:Leak
   match-leak-kinds: possible
   fun:malloc
   fun:_Znwm
   fun:_ZN13TStreamerInfoC2EP6TClass
   fun:_ZN13TStreamerInfo7NewInfoEP6TClass
   fun:_ZNK6TClass15GetStreamerInfoEi
   fun:_ZN13TStreamerInfo5BuildEv
   fun:_ZN11TBufferFile16WriteClassBufferEPK6TClassPv
   fun:_ZN13TStreamerBase8StreamerER7TBuffer
   fun:_ZN11TBufferFile16WriteObjectClassEPKvPK6TClass
   fun:_ZN11TBufferFile14WriteObjectAnyEPKvPK6TClass
   fun:_ZN9TObjArray8StreamerER7TBuffer
   fun:_ZN11TBufferFile16WriteObjectClassEPKvPK6TClass
}
{
   <insert_a_suppression_name_here>
   Memcheck:Leak
   match-leak-kinds: possible
   fun:malloc
   fun:_Znwm
   fun:_ZNSt6vectorIN20TStreamerInfoActions17TConfiguredActionESaIS1_EE7reserveEm
   fun:_ZN20TStreamerInfoActions15TActionSequenceC2EP20TVirtualStreamerInfoj
   fun:_ZN13TStreamerInfo7CompileEv
   fun:_ZN13TStreamerInfo5BuildEv
   fun:_ZN11TBufferFile16WriteClassBufferEPK6TClassPv
   fun:_ZN13TStreamerBase8StreamerER7TBuffer
   fun:_ZN11TBufferFile16WriteObjectClassEPKvPK6TClass
   fun:_ZN11TBufferFile14WriteObjectAnyEPKvPK6TClass
   fun:_ZN9TObjArray8StreamerER7TBuffer
   fun:_ZN11TBufferFile16WriteObjectClassEPKvPK6TClass
}
{
   <insert_a_suppression_name_here>
   Memcheck:Leak
   match-leak-kinds: possible
   fun:malloc
   fun:_Znwm
   fun:_ZN13TStreamerInfoC2EP6TClass
   fun:_ZN11TBufferFile16WriteClassBufferEPK6TClassPv
   fun:_ZN12TStreamerSTL8StreamerER7TBuffer
   fun:_ZN11TBufferFile16WriteObjectClassEPKvPK6TClass
   fun:_ZN11TBufferFile14WriteObjectAnyEPKvPK6TClass
   fun:_ZN9TObjArray8StreamerER7TBuffer
   fun:_ZN11TBufferFile16WriteObjectClassEPKvPK6TClass
   fun:_ZN11TBufferFile14WriteObjectAnyEPKvPK6TClass
   fun:_ZN13TStreamerInfo8StreamerER7TBuffer
   fun:_ZN11TBufferFile16WriteObjectClassEPKvPK6TClass
}
{
   <insert_a_suppression_name_here>
   Memcheck:Leak
   match-leak-kinds: possible
   fun:malloc
   fun:_Znwm
   fun:_ZN6TNamed8SetTitleEPKc
   fun:_ZN11TDataMemberC2EPvP6TClass
   fun:_ZN5TCint23CreateListOfDataMembersEP6TClass
   fun:_ZN6TClass20GetListOfDataMembersEv
   fun:_ZNK6TClass13GetDataMemberEPKc
   fun:_ZN14TBuildRealData7InspectEP6TClassPKcS3_PKv
   fun:_ZN18TStreamerBasicType11ShowMembersER16TMemberInspector
   fun:_ZNK6TClass15CallShowMembersEPvR16TMemberInspectori
   fun:_ZN6TClass13BuildRealDataEPvb
   fun:_ZN11TBufferFile16WriteClassBufferEPK6TClassPv
}
{
   <insert_a_suppression_name_here>
   Memcheck:Leak
   match-leak-kinds: possible
   fun:malloc
   fun:_Znwm
   fun:_ZN13TStreamerInfoC2EP6TClass
   fun:_ZN11TBufferFile16WriteClassBufferEPK6TClassPv
   fun:_ZN18TStreamerBasicType8StreamerER7TBuffer
   fun:_ZN11TBufferFile16WriteObjectClassEPKvPK6TClass
   fun:_ZN11TBufferFile14WriteObjectAnyEPKvPK6TClass
   fun:_ZN9TObjArray8StreamerER7TBuffer
   fun:_ZN11TBufferFile16WriteObjectClassEPKvPK6TClass
   fun:_ZN11TBufferFile14WriteObjectAnyEPKvPK6TClass
   fun:_ZN13TStreamerInfo8StreamerER7TBuffer
   fun:_ZN11TBufferFile16WriteObjectClassEPKvPK6TClass
}
{
   <insert_a_suppression_name_here>
   Memcheck:Leak
   match-leak-kinds: possible
   fun:malloc
   fun:_Znwm
   fun:_ZN6TClass4InitEPKcsPKSt9type_infoP16TVirtualIsAProxyPFvPvR16TMemberInspectorES1_S1_iib
   fun:_ZN6TClassC2EPKcsRKSt9type_infoP16TVirtualIsAProxyPFvPvR16TMemberInspectorES1_S1_iib
   fun:_ZN4ROOT11CreateClassEPKcsRKSt9type_infoP16TVirtualIsAProxyPFvPvR16TMemberInspectorES1_S1_ii
   fun:_ZNK4ROOT20TDefaultInitBehavior11CreateClassEPKcsRKSt9type_infoP16TVirtualIsAProxyPFvPvR16TMemberInspectorES2_S2_ii
   fun:_ZN4ROOT17TGenericClassInfo8GetClassEv
   fun:_ZN22TStreamerObjectPointer5ClassEv
   fun:_ZN13TStreamerInfo8StreamerER7TBuffer
   fun:_ZN11TBufferFile16WriteObjectClassEPKvPK6TClass
   fun:_ZN11TBufferFile14WriteObjectAnyEPKvPK6TClass
   fun:_ZN5TList8StreamerER7TBuffer
}
{
   <insert_a_suppression_name_here>
   Memcheck:Leak
   match-leak-kinds: possible
   fun:malloc
   fun:_Znwm
   fun:_ZN13TStreamerInfoC2EP6TClass
   fun:_ZN11TBufferFile16WriteClassBufferEPK6TClassPv
   fun:_ZN21TStreamerBasicPointer8StreamerER7TBuffer
   fun:_ZN11TBufferFile16WriteObjectClassEPKvPK6TClass
   fun:_ZN11TBufferFile14WriteObjectAnyEPKvPK6TClass
   fun:_ZN9TObjArray8StreamerER7TBuffer
   fun:_ZN11TBufferFile16WriteObjectClassEPKvPK6TClass
   fun:_ZN11TBufferFile14WriteObjectAnyEPKvPK6TClass
   fun:_ZN13TStreamerInfo8StreamerER7TBuffer
   fun:_ZN11TBufferFile16WriteObjectClassEPKvPK6TClass
}
{
   <insert_a_suppression_name_here>
   Memcheck:Leak
   match-leak-kinds: possible
   fun:malloc
   fun:_Znwm
   fun:_ZN13TStreamerInfoC2EP6TClass
   fun:_ZN11TBufferFile16WriteClassBufferEPK6TClassPv
   fun:_ZN15TStreamerObject8StreamerER7TBuffer
   fun:_ZN11TBufferFile16WriteObjectClassEPKvPK6TClass
   fun:_ZN11TBufferFile14WriteObjectAnyEPKvPK6TClass
   fun:_ZN9TObjArray8StreamerER7TBuffer
   fun:_ZN11TBufferFile16WriteObjectClassEPKvPK6TClass
   fun:_ZN11TBufferFile14WriteObjectAnyEPKvPK6TClass
   fun:_ZN13TStreamerInfo8StreamerER7TBuffer
   fun:_ZN11TBufferFile16WriteObjectClassEPKvPK6TClass
}
{
   <insert_a_suppression_name_here>
   Memcheck:Leak
   match-leak-kinds: possible
   fun:malloc
   fun:_Znwm
   fun:_ZN13TStreamerInfoC2EP6TClass
   fun:_ZN11TBufferFile16WriteClassBufferEPK6TClassPv
   fun:_ZN22TStreamerObjectPointer8StreamerER7TBuffer
   fun:_ZN11TBufferFile16WriteObjectClassEPKvPK6TClass
   fun:_ZN11TBufferFile14WriteObjectAnyEPKvPK6TClass
   fun:_ZN9TObjArray8StreamerER7TBuffer
   fun:_ZN11TBufferFile16WriteObjectClassEPKvPK6TClass
   fun:_ZN11TBufferFile14WriteObjectAnyEPKvPK6TClass
   fun:_ZN13TStreamerInfo8StreamerER7TBuffer
   fun:_ZN11TBufferFile16WriteObjectClassEPKvPK6TClass
}
{
   <insert_a_suppression_name_here>
   Memcheck:Leak
   match-leak-kinds: possible
   fun:malloc
   fun:_Znwm
   fun:_ZN13TStreamerInfoC2EP6TClass
   fun:_ZN11TBufferFile16WriteClassBufferEPK6TClassPv
   fun:_ZN18TStreamerObjectAny8StreamerER7TBuffer
   fun:_ZN11TBufferFile16WriteObjectClassEPKvPK6TClass
   fun:_ZN11TBufferFile14WriteObjectAnyEPKvPK6TClass
   fun:_ZN9TObjArray8StreamerER7TBuffer
   fun:_ZN11TBufferFile16WriteObjectClassEPKvPK6TClass
   fun:_ZN11TBufferFile14WriteObjectAnyEPKvPK6TClass
   fun:_ZN13TStreamerInfo8StreamerER7TBuffer
   fun:_ZN11TBufferFile16WriteObjectClassEPKvPK6TClass
}
{
   <insert_a_suppression_name_here>
   Memcheck:Leak
   match-leak-kinds: possible
   fun:malloc
   fun:_Znwm
   fun:_ZN6TClass4InitEPKcsPKSt9type_infoP16TVirtualIsAProxyPFvPvR16TMemberInspectorES1_S1_iib
   fun:_ZN6TClassC2EPKcsRKSt9type_infoP16TVirtualIsAProxyPFvPvR16TMemberInspectorES1_S1_iib
   fun:_ZN4ROOT11CreateClassEPKcsRKSt9type_infoP16TVirtualIsAProxyPFvPvR16TMemberInspectorES1_S1_ii
   fun:_ZNK4ROOT20TDefaultInitBehavior11CreateClassEPKcsRKSt9type_infoP16TVirtualIsAProxyPFvPvR16TMemberInspectorES2_S2_ii
   fun:_ZN4ROOT17TGenericClassInfo8GetClassEv
   fun:_ZN15TStreamerString5ClassEv
   fun:_ZN13TStreamerInfo8StreamerER7TBuffer
   fun:_ZN11TBufferFile16WriteObjectClassEPKvPK6TClass
   fun:_ZN11TBufferFile14WriteObjectAnyEPKvPK6TClass
   fun:_ZN5TList8StreamerER7TBuffer
}
{
   <insert_a_suppression_name_here>
   Memcheck:Leak
   match-leak-kinds: possible
   fun:malloc
   fun:_Znwm
   fun:_ZN13TStreamerInfoC2EP6TClass
   fun:_ZN11TBufferFile16WriteClassBufferEPK6TClassPv
   fun:_ZN15TStreamerString8StreamerER7TBuffer
   fun:_ZN11TBufferFile16WriteObjectClassEPKvPK6TClass
   fun:_ZN11TBufferFile14WriteObjectAnyEPKvPK6TClass
   fun:_ZN9TObjArray8StreamerER7TBuffer
   fun:_ZN11TBufferFile16WriteObjectClassEPKvPK6TClass
   fun:_ZN11TBufferFile14WriteObjectAnyEPKvPK6TClass
   fun:_ZN13TStreamerInfo8StreamerER7TBuffer
   fun:_ZN11TBufferFile16WriteObjectClassEPKvPK6TClass
}
{
   <insert_a_suppression_name_here>
   Memcheck:Leak
   match-leak-kinds: possible
   fun:malloc
   fun:_Znwm
   fun:_ZN13TStreamerInfoC2EP6TClass
   fun:_ZN11TBufferFile16WriteClassBufferEPK6TClassPv
   fun:_ZN11TBufferFile16WriteObjectClassEPKvPK6TClass
   fun:_ZN11TBufferFile14WriteObjectAnyEPKvPK6TClass
   fun:_ZN5TList8StreamerER7TBuffer
   fun:_ZN11TBufferFile16WriteObjectClassEPKvPK6TClass
   fun:_ZN11TBufferFile14WriteObjectAnyEPKvPK6TClass
   fun:_ZN5TList8StreamerER7TBuffer
   fun:_ZN4TKeyC2EPK7TObjectPKciP10TDirectory
   fun:_ZN5TFile17WriteStreamerInfoEv
}
{
   <insert_a_suppression_name_here>
   Memcheck:Leak
   match-leak-kinds: possible
   fun:malloc
   fun:_Znwm
   fun:_ZNSt6vectorIN20TStreamerInfoActions17TConfiguredActionESaIS1_EE7reserveEm
   fun:_ZN20TStreamerInfoActions15TActionSequenceC2EP20TVirtualStreamerInfoj
   fun:_ZN13TStreamerInfo7CompileEv
   fun:_ZN13TStreamerInfo5BuildEv
   fun:_ZN11TBufferFile16WriteClassBufferEPK6TClassPv
   fun:_ZN11TBufferFile16WriteObjectClassEPKvPK6TClass
   fun:_ZN11TBufferFile14WriteObjectAnyEPKvPK6TClass
   fun:_ZN5TList8StreamerER7TBuffer
   fun:_ZN11TBufferFile16WriteObjectClassEPKvPK6TClass
   fun:_ZN11TBufferFile14WriteObjectAnyEPKvPK6TClass
}
{
   <insert_a_suppression_name_here>
   Memcheck:Leak
   match-leak-kinds: possible
   fun:malloc
   fun:_Znwm
   fun:_ZN6TNamed8SetTitleEPKc
   fun:_ZN11TDataMemberC2EPvP6TClass
   fun:_ZN5TCint23CreateListOfDataMembersEP6TClass
   fun:_ZN6TClass20GetListOfDataMembersEv
   fun:_ZNK6TClass13GetDataMemberEPKc
   fun:_ZN14TBuildRealData7InspectEP6TClassPKcS3_PKv
   fun:_ZN12TStreamerSTL11ShowMembersER16TMemberInspector
   fun:_ZNK6TClass15CallShowMembersEPvR16TMemberInspectori
   fun:_ZN6TClass13BuildRealDataEPvb
   fun:_ZN11TBufferFile16WriteClassBufferEPK6TClassPv
}
{
   <insert_a_suppression_name_here>
   Memcheck:Leak
   match-leak-kinds: possible
   fun:malloc
   fun:_Znwm
   fun:_ZN16TStreamerElementC2EPKcS1_iiS1_
   fun:_ZN18TStreamerBasicTypeC1EPKcS1_iiS1_
   fun:_ZN13TStreamerInfo5BuildEv
   fun:_ZN11TBufferFile16WriteClassBufferEPK6TClassPv
   fun:_ZN12TStreamerSTL8StreamerER7TBuffer
   fun:_ZN11TBufferFile16WriteObjectClassEPKvPK6TClass
   fun:_ZN11TBufferFile14WriteObjectAnyEPKvPK6TClass
   fun:_ZN9TObjArray8StreamerER7TBuffer
   fun:_ZN11TBufferFile16WriteObjectClassEPKvPK6TClass
   fun:_ZN11TBufferFile14WriteObjectAnyEPKvPK6TClass
}
{
   <insert_a_suppression_name_here>
   Memcheck:Leak
   match-leak-kinds: definite
   fun:malloc
   fun:_Znwm
   fun:G__get_linked_tagnum_fwd
   fun:G__cpp_setup_tagtableManualTree2
   fun:G__cpp_setupManualTree2
   fun:G__call_setup_funcs
   fun:_GLOBAL__I_a
   fun:_ZN16ImageLoaderMachO18doModInitFunctionsERKN11ImageLoader11LinkContextE
   fun:_ZN16ImageLoaderMachO16doInitializationERKN11ImageLoader11LinkContextE
   fun:_ZN11ImageLoader23recursiveInitializationERKNS_11LinkContextEjRNS_21InitializerTimingListE
   fun:_ZN11ImageLoader23recursiveInitializationERKNS_11LinkContextEjRNS_21InitializerTimingListE
   fun:_ZN11ImageLoader15runInitializersERKNS_11LinkContextERNS_21InitializerTimingListE
}
{
   <insert_a_suppression_name_here>
   Memcheck:Leak
   match-leak-kinds: definite
   fun:malloc
   fun:_Znwm
   fun:G__get_methodhandle_noerror
   fun:G__get_methodhandle
   fun:_ZN4Cint12G__ClassInfo9GetMethodEPKcS2_PlNS0_9MatchModeENS0_15InheritanceModeE
   fun:_ZNK5TCint23ClassInfo_IsValidMethodEPvPKcS2_Pl
   fun:_ZNK6TClass8PropertyEv
   fun:_ZN6TClass13PostLoadCheckEv
   fun:_ZNK5TROOT9LoadClassEPKcb
   fun:_ZN6TClass8GetClassEPKcbb
   fun:_ZN10TBaseClass15GetClassPointerEb
   fun:_ZN6TClass12GetBaseClassEPKS_
}
{
   <insert_a_suppression_name_here>
   Memcheck:Leak
   match-leak-kinds: possible
   fun:malloc
   fun:_Znwm
   fun:_ZN14TBuildRealData7InspectEP6TClassPKcS3_PKv
   fun:_ZN13TStreamerBase11ShowMembersER16TMemberInspector
   fun:_ZNK6TClass15CallShowMembersEPvR16TMemberInspectori
   fun:_ZN6TClass13BuildRealDataEPvb
   fun:_ZN11TBufferFile16WriteClassBufferEPK6TClassPv
   fun:_ZN13TStreamerBase8StreamerER7TBuffer
   fun:_ZN11TBufferFile16WriteObjectClassEPKvPK6TClass
   fun:_ZN11TBufferFile14WriteObjectAnyEPKvPK6TClass
   fun:_ZN9TObjArray8StreamerER7TBuffer
   fun:_ZN11TBufferFile16WriteObjectClassEPKvPK6TClass
}
{
   <insert_a_suppression_name_here>
   Memcheck:Leak
   match-leak-kinds: possible
   fun:malloc
   fun:_Znwm
   fun:_ZN14TBuildRealData7InspectEP6TClassPKcS3_PKv
   fun:_ZN16TStreamerElement11ShowMembersER16TMemberInspector
   fun:_ZNK6TClass15CallShowMembersEPvR16TMemberInspectori
   fun:_ZN6TClass13BuildRealDataEPvb
   fun:_ZN11TBufferFile16WriteClassBufferEPK6TClassPv
   fun:_ZN13TStreamerBase8StreamerER7TBuffer
   fun:_ZN11TBufferFile16WriteObjectClassEPKvPK6TClass
   fun:_ZN11TBufferFile14WriteObjectAnyEPKvPK6TClass
   fun:_ZN9TObjArray8StreamerER7TBuffer
   fun:_ZN11TBufferFile16WriteObjectClassEPKvPK6TClass
}
{
   <insert_a_suppression_name_here>
   Memcheck:Leak
   match-leak-kinds: possible
   fun:malloc
   fun:_Znwm
   fun:_ZN14TBuildRealData7InspectEP6TClassPKcS3_PKv
   fun:_ZN6TNamed11ShowMembersER16TMemberInspector
   fun:_ZNK6TClass15CallShowMembersEPvR16TMemberInspectori
   fun:_ZN6TClass13BuildRealDataEPvb
   fun:_ZN11TBufferFile16WriteClassBufferEPK6TClassPv
   fun:_ZN13TStreamerBase8StreamerER7TBuffer
   fun:_ZN11TBufferFile16WriteObjectClassEPKvPK6TClass
   fun:_ZN11TBufferFile14WriteObjectAnyEPKvPK6TClass
   fun:_ZN9TObjArray8StreamerER7TBuffer
   fun:_ZN11TBufferFile16WriteObjectClassEPKvPK6TClass
}
{
   <insert_a_suppression_name_here>
   Memcheck:Leak
   match-leak-kinds: possible
   fun:malloc
   fun:_Znwm
   fun:_ZN14TBuildRealData7InspectEP6TClassPKcS3_PKv
   fun:_ZN7TObject11ShowMembersER16TMemberInspector
   fun:_ZNK6TClass15CallShowMembersEPvR16TMemberInspectori
   fun:_ZN6TClass13BuildRealDataEPvb
   fun:_ZN11TBufferFile16WriteClassBufferEPK6TClassPv
   fun:_ZN13TStreamerBase8StreamerER7TBuffer
   fun:_ZN11TBufferFile16WriteObjectClassEPKvPK6TClass
   fun:_ZN11TBufferFile14WriteObjectAnyEPKvPK6TClass
   fun:_ZN9TObjArray8StreamerER7TBuffer
   fun:_ZN11TBufferFile16WriteObjectClassEPKvPK6TClass
}
{
   <insert_a_suppression_name_here>
   Memcheck:Leak
   match-leak-kinds: possible
   fun:malloc
   fun:_Znwm
   fun:_ZN14TBuildRealData7InspectEP6TClassPKcS3_PKv
   fun:_ZNK6TClass15CallShowMembersEPvR16TMemberInspectori
   fun:_ZN6TClass13BuildRealDataEPvb
   fun:_ZN11TBufferFile16WriteClassBufferEPK6TClassPv
   fun:_ZN13TStreamerBase8StreamerER7TBuffer
   fun:_ZN11TBufferFile16WriteObjectClassEPKvPK6TClass
   fun:_ZN11TBufferFile14WriteObjectAnyEPKvPK6TClass
   fun:_ZN9TObjArray8StreamerER7TBuffer
   fun:_ZN11TBufferFile16WriteObjectClassEPKvPK6TClass
   fun:_ZN11TBufferFile14WriteObjectAnyEPKvPK6TClass
}
{
   <insert_a_suppression_name_here>
   Memcheck:Leak
   match-leak-kinds: possible
   fun:malloc
   fun:_Znwm
   fun:_ZN14TBuildRealData7InspectEP6TClassPKcS3_PKv
   fun:_ZN16TStreamerElement11ShowMembersER16TMemberInspector
   fun:_ZNK6TClass15CallShowMembersEPvR16TMemberInspectori
   fun:_ZN6TClass13BuildRealDataEPvb
   fun:_ZN6TClass13BuildRealDataEPvb
   fun:_ZN11TBufferFile16WriteClassBufferEPK6TClassPv
   fun:_ZN13TStreamerBase8StreamerER7TBuffer
   fun:_ZN11TBufferFile16WriteObjectClassEPKvPK6TClass
   fun:_ZN11TBufferFile14WriteObjectAnyEPKvPK6TClass
   fun:_ZN9TObjArray8StreamerER7TBuffer
}
{
   <insert_a_suppression_name_here>
   Memcheck:Leak
   match-leak-kinds: possible
   fun:malloc
   fun:_Znwm
   fun:_ZN14TBuildRealData7InspectEP6TClassPKcS3_PKv
   fun:_ZN6TNamed11ShowMembersER16TMemberInspector
   fun:_ZNK6TClass15CallShowMembersEPvR16TMemberInspectori
   fun:_ZN6TClass13BuildRealDataEPvb
   fun:_ZN6TClass13BuildRealDataEPvb
   fun:_ZN11TBufferFile16WriteClassBufferEPK6TClassPv
   fun:_ZN13TStreamerBase8StreamerER7TBuffer
   fun:_ZN11TBufferFile16WriteObjectClassEPKvPK6TClass
   fun:_ZN11TBufferFile14WriteObjectAnyEPKvPK6TClass
   fun:_ZN9TObjArray8StreamerER7TBuffer
}
{
   <insert_a_suppression_name_here>
   Memcheck:Leak
   match-leak-kinds: possible
   fun:malloc
   fun:_Znwm
   fun:_ZN14TBuildRealData7InspectEP6TClassPKcS3_PKv
   fun:_ZN7TObject11ShowMembersER16TMemberInspector
   fun:_ZNK6TClass15CallShowMembersEPvR16TMemberInspectori
   fun:_ZN6TClass13BuildRealDataEPvb
   fun:_ZN6TClass13BuildRealDataEPvb
   fun:_ZN11TBufferFile16WriteClassBufferEPK6TClassPv
   fun:_ZN13TStreamerBase8StreamerER7TBuffer
   fun:_ZN11TBufferFile16WriteObjectClassEPKvPK6TClass
   fun:_ZN11TBufferFile14WriteObjectAnyEPKvPK6TClass
   fun:_ZN9TObjArray8StreamerER7TBuffer
}
{
   <insert_a_suppression_name_here>
   Memcheck:Leak
   match-leak-kinds: possible
   fun:malloc
   fun:_Znwm
   fun:_ZN14TBuildRealData7InspectEP6TClassPKcS3_PKv
   fun:_ZNK6TClass15CallShowMembersEPvR16TMemberInspectori
   fun:_ZN6TClass13BuildRealDataEPvb
   fun:_ZN6TClass13BuildRealDataEPvb
   fun:_ZN11TBufferFile16WriteClassBufferEPK6TClassPv
   fun:_ZN13TStreamerBase8StreamerER7TBuffer
   fun:_ZN11TBufferFile16WriteObjectClassEPKvPK6TClass
   fun:_ZN11TBufferFile14WriteObjectAnyEPKvPK6TClass
   fun:_ZN9TObjArray8StreamerER7TBuffer
   fun:_ZN11TBufferFile16WriteObjectClassEPKvPK6TClass
}
{
   <insert_a_suppression_name_here>
   Memcheck:Leak
   match-leak-kinds: possible
   fun:malloc
   fun:_Znwm
   fun:_ZN14TBuildRealData7InspectEP6TClassPKcS3_PKv
   fun:_ZN12TStreamerSTL11ShowMembersER16TMemberInspector
   fun:_ZNK6TClass15CallShowMembersEPvR16TMemberInspectori
   fun:_ZN6TClass13BuildRealDataEPvb
   fun:_ZN11TBufferFile16WriteClassBufferEPK6TClassPv
   fun:_ZN12TStreamerSTL8StreamerER7TBuffer
   fun:_ZN11TBufferFile16WriteObjectClassEPKvPK6TClass
   fun:_ZN11TBufferFile14WriteObjectAnyEPKvPK6TClass
   fun:_ZN9TObjArray8StreamerER7TBuffer
   fun:_ZN11TBufferFile16WriteObjectClassEPKvPK6TClass
}
{
   <insert_a_suppression_name_here>
   Memcheck:Leak
   match-leak-kinds: possible
   fun:malloc
   fun:_Znwm
   fun:_ZN14TBuildRealData7InspectEP6TClassPKcS3_PKv
   fun:_ZN16TStreamerElement11ShowMembersER16TMemberInspector
   fun:_ZNK6TClass15CallShowMembersEPvR16TMemberInspectori
   fun:_ZN6TClass13BuildRealDataEPvb
   fun:_ZN11TBufferFile16WriteClassBufferEPK6TClassPv
   fun:_ZN12TStreamerSTL8StreamerER7TBuffer
   fun:_ZN11TBufferFile16WriteObjectClassEPKvPK6TClass
   fun:_ZN11TBufferFile14WriteObjectAnyEPKvPK6TClass
   fun:_ZN9TObjArray8StreamerER7TBuffer
   fun:_ZN11TBufferFile16WriteObjectClassEPKvPK6TClass
}
{
   <insert_a_suppression_name_here>
   Memcheck:Leak
   match-leak-kinds: possible
   fun:malloc
   fun:_Znwm
   fun:_ZN14TBuildRealData7InspectEP6TClassPKcS3_PKv
   fun:_ZN6TNamed11ShowMembersER16TMemberInspector
   fun:_ZNK6TClass15CallShowMembersEPvR16TMemberInspectori
   fun:_ZN6TClass13BuildRealDataEPvb
   fun:_ZN11TBufferFile16WriteClassBufferEPK6TClassPv
   fun:_ZN12TStreamerSTL8StreamerER7TBuffer
   fun:_ZN11TBufferFile16WriteObjectClassEPKvPK6TClass
   fun:_ZN11TBufferFile14WriteObjectAnyEPKvPK6TClass
   fun:_ZN9TObjArray8StreamerER7TBuffer
   fun:_ZN11TBufferFile16WriteObjectClassEPKvPK6TClass
}
{
   <insert_a_suppression_name_here>
   Memcheck:Leak
   match-leak-kinds: possible
   fun:malloc
   fun:_Znwm
   fun:_ZN14TBuildRealData7InspectEP6TClassPKcS3_PKv
   fun:_ZN7TObject11ShowMembersER16TMemberInspector
   fun:_ZNK6TClass15CallShowMembersEPvR16TMemberInspectori
   fun:_ZN6TClass13BuildRealDataEPvb
   fun:_ZN11TBufferFile16WriteClassBufferEPK6TClassPv
   fun:_ZN12TStreamerSTL8StreamerER7TBuffer
   fun:_ZN11TBufferFile16WriteObjectClassEPKvPK6TClass
   fun:_ZN11TBufferFile14WriteObjectAnyEPKvPK6TClass
   fun:_ZN9TObjArray8StreamerER7TBuffer
   fun:_ZN11TBufferFile16WriteObjectClassEPKvPK6TClass
}
{
   <insert_a_suppression_name_here>
   Memcheck:Leak
   match-leak-kinds: possible
   fun:malloc
   fun:_Znwm
   fun:_ZN14TBuildRealData7InspectEP6TClassPKcS3_PKv
   fun:_ZNK6TClass15CallShowMembersEPvR16TMemberInspectori
   fun:_ZN6TClass13BuildRealDataEPvb
   fun:_ZN11TBufferFile16WriteClassBufferEPK6TClassPv
   fun:_ZN12TStreamerSTL8StreamerER7TBuffer
   fun:_ZN11TBufferFile16WriteObjectClassEPKvPK6TClass
   fun:_ZN11TBufferFile14WriteObjectAnyEPKvPK6TClass
   fun:_ZN9TObjArray8StreamerER7TBuffer
   fun:_ZN11TBufferFile16WriteObjectClassEPKvPK6TClass
   fun:_ZN11TBufferFile14WriteObjectAnyEPKvPK6TClass
}
{
   <insert_a_suppression_name_here>
   Memcheck:Leak
   match-leak-kinds: possible
   fun:malloc
   fun:_Znwm
   fun:_ZN14TBuildRealData7InspectEP6TClassPKcS3_PKv
   fun:_ZN18TStreamerBasicType11ShowMembersER16TMemberInspector
   fun:_ZNK6TClass15CallShowMembersEPvR16TMemberInspectori
   fun:_ZN6TClass13BuildRealDataEPvb
   fun:_ZN11TBufferFile16WriteClassBufferEPK6TClassPv
   fun:_ZN18TStreamerBasicType8StreamerER7TBuffer
   fun:_ZN11TBufferFile16WriteObjectClassEPKvPK6TClass
   fun:_ZN11TBufferFile14WriteObjectAnyEPKvPK6TClass
   fun:_ZN9TObjArray8StreamerER7TBuffer
   fun:_ZN11TBufferFile16WriteObjectClassEPKvPK6TClass
}
{
   <insert_a_suppression_name_here>
   Memcheck:Leak
   match-leak-kinds: possible
   fun:malloc
   fun:_Znwm
   fun:_ZN14TBuildRealData7InspectEP6TClassPKcS3_PKv
   fun:_ZN16TStreamerElement11ShowMembersER16TMemberInspector
   fun:_ZNK6TClass15CallShowMembersEPvR16TMemberInspectori
   fun:_ZN6TClass13BuildRealDataEPvb
   fun:_ZN11TBufferFile16WriteClassBufferEPK6TClassPv
   fun:_ZN18TStreamerBasicType8StreamerER7TBuffer
   fun:_ZN11TBufferFile16WriteObjectClassEPKvPK6TClass
   fun:_ZN11TBufferFile14WriteObjectAnyEPKvPK6TClass
   fun:_ZN9TObjArray8StreamerER7TBuffer
   fun:_ZN11TBufferFile16WriteObjectClassEPKvPK6TClass
}
{
   <insert_a_suppression_name_here>
   Memcheck:Leak
   match-leak-kinds: possible
   fun:malloc
   fun:_Znwm
   fun:_ZN14TBuildRealData7InspectEP6TClassPKcS3_PKv
   fun:_ZN6TNamed11ShowMembersER16TMemberInspector
   fun:_ZNK6TClass15CallShowMembersEPvR16TMemberInspectori
   fun:_ZN6TClass13BuildRealDataEPvb
   fun:_ZN11TBufferFile16WriteClassBufferEPK6TClassPv
   fun:_ZN18TStreamerBasicType8StreamerER7TBuffer
   fun:_ZN11TBufferFile16WriteObjectClassEPKvPK6TClass
   fun:_ZN11TBufferFile14WriteObjectAnyEPKvPK6TClass
   fun:_ZN9TObjArray8StreamerER7TBuffer
   fun:_ZN11TBufferFile16WriteObjectClassEPKvPK6TClass
}
{
   <insert_a_suppression_name_here>
   Memcheck:Leak
   match-leak-kinds: possible
   fun:malloc
   fun:_Znwm
   fun:_ZN14TBuildRealData7InspectEP6TClassPKcS3_PKv
   fun:_ZN7TObject11ShowMembersER16TMemberInspector
   fun:_ZNK6TClass15CallShowMembersEPvR16TMemberInspectori
   fun:_ZN6TClass13BuildRealDataEPvb
   fun:_ZN11TBufferFile16WriteClassBufferEPK6TClassPv
   fun:_ZN18TStreamerBasicType8StreamerER7TBuffer
   fun:_ZN11TBufferFile16WriteObjectClassEPKvPK6TClass
   fun:_ZN11TBufferFile14WriteObjectAnyEPKvPK6TClass
   fun:_ZN9TObjArray8StreamerER7TBuffer
   fun:_ZN11TBufferFile16WriteObjectClassEPKvPK6TClass
}
{
   <insert_a_suppression_name_here>
   Memcheck:Leak
   match-leak-kinds: possible
   fun:malloc
   fun:_Znwm
   fun:_ZN14TBuildRealData7InspectEP6TClassPKcS3_PKv
   fun:_ZNK6TClass15CallShowMembersEPvR16TMemberInspectori
   fun:_ZN6TClass13BuildRealDataEPvb
   fun:_ZN11TBufferFile16WriteClassBufferEPK6TClassPv
   fun:_ZN18TStreamerBasicType8StreamerER7TBuffer
   fun:_ZN11TBufferFile16WriteObjectClassEPKvPK6TClass
   fun:_ZN11TBufferFile14WriteObjectAnyEPKvPK6TClass
   fun:_ZN9TObjArray8StreamerER7TBuffer
   fun:_ZN11TBufferFile16WriteObjectClassEPKvPK6TClass
   fun:_ZN11TBufferFile14WriteObjectAnyEPKvPK6TClass
}
{
   <insert_a_suppression_name_here>
   Memcheck:Leak
   match-leak-kinds: possible
   fun:malloc
   fun:_Znwm
   fun:_ZN14TBuildRealData7InspectEP6TClassPKcS3_PKv
   fun:_ZN21TStreamerBasicPointer11ShowMembersER16TMemberInspector
   fun:_ZNK6TClass15CallShowMembersEPvR16TMemberInspectori
   fun:_ZN6TClass13BuildRealDataEPvb
   fun:_ZN11TBufferFile16WriteClassBufferEPK6TClassPv
   fun:_ZN21TStreamerBasicPointer8StreamerER7TBuffer
   fun:_ZN11TBufferFile16WriteObjectClassEPKvPK6TClass
   fun:_ZN11TBufferFile14WriteObjectAnyEPKvPK6TClass
   fun:_ZN9TObjArray8StreamerER7TBuffer
   fun:_ZN11TBufferFile16WriteObjectClassEPKvPK6TClass
}
{
   <insert_a_suppression_name_here>
   Memcheck:Leak
   match-leak-kinds: possible
   fun:malloc
   fun:_Znwm
   fun:_ZN14TBuildRealData7InspectEP6TClassPKcS3_PKv
   fun:_ZN16TStreamerElement11ShowMembersER16TMemberInspector
   fun:_ZNK6TClass15CallShowMembersEPvR16TMemberInspectori
   fun:_ZN6TClass13BuildRealDataEPvb
   fun:_ZN11TBufferFile16WriteClassBufferEPK6TClassPv
   fun:_ZN21TStreamerBasicPointer8StreamerER7TBuffer
   fun:_ZN11TBufferFile16WriteObjectClassEPKvPK6TClass
   fun:_ZN11TBufferFile14WriteObjectAnyEPKvPK6TClass
   fun:_ZN9TObjArray8StreamerER7TBuffer
   fun:_ZN11TBufferFile16WriteObjectClassEPKvPK6TClass
}
{
   <insert_a_suppression_name_here>
   Memcheck:Leak
   match-leak-kinds: possible
   fun:malloc
   fun:_Znwm
   fun:_ZN14TBuildRealData7InspectEP6TClassPKcS3_PKv
   fun:_ZN6TNamed11ShowMembersER16TMemberInspector
   fun:_ZNK6TClass15CallShowMembersEPvR16TMemberInspectori
   fun:_ZN6TClass13BuildRealDataEPvb
   fun:_ZN11TBufferFile16WriteClassBufferEPK6TClassPv
   fun:_ZN21TStreamerBasicPointer8StreamerER7TBuffer
   fun:_ZN11TBufferFile16WriteObjectClassEPKvPK6TClass
   fun:_ZN11TBufferFile14WriteObjectAnyEPKvPK6TClass
   fun:_ZN9TObjArray8StreamerER7TBuffer
   fun:_ZN11TBufferFile16WriteObjectClassEPKvPK6TClass
}
{
   <insert_a_suppression_name_here>
   Memcheck:Leak
   match-leak-kinds: possible
   fun:malloc
   fun:_Znwm
   fun:_ZN14TBuildRealData7InspectEP6TClassPKcS3_PKv
   fun:_ZN7TObject11ShowMembersER16TMemberInspector
   fun:_ZNK6TClass15CallShowMembersEPvR16TMemberInspectori
   fun:_ZN6TClass13BuildRealDataEPvb
   fun:_ZN11TBufferFile16WriteClassBufferEPK6TClassPv
   fun:_ZN21TStreamerBasicPointer8StreamerER7TBuffer
   fun:_ZN11TBufferFile16WriteObjectClassEPKvPK6TClass
   fun:_ZN11TBufferFile14WriteObjectAnyEPKvPK6TClass
   fun:_ZN9TObjArray8StreamerER7TBuffer
   fun:_ZN11TBufferFile16WriteObjectClassEPKvPK6TClass
}
{
   <insert_a_suppression_name_here>
   Memcheck:Leak
   match-leak-kinds: possible
   fun:malloc
   fun:_Znwm
   fun:_ZN14TBuildRealData7InspectEP6TClassPKcS3_PKv
   fun:_ZNK6TClass15CallShowMembersEPvR16TMemberInspectori
   fun:_ZN6TClass13BuildRealDataEPvb
   fun:_ZN11TBufferFile16WriteClassBufferEPK6TClassPv
   fun:_ZN21TStreamerBasicPointer8StreamerER7TBuffer
   fun:_ZN11TBufferFile16WriteObjectClassEPKvPK6TClass
   fun:_ZN11TBufferFile14WriteObjectAnyEPKvPK6TClass
   fun:_ZN9TObjArray8StreamerER7TBuffer
   fun:_ZN11TBufferFile16WriteObjectClassEPKvPK6TClass
   fun:_ZN11TBufferFile14WriteObjectAnyEPKvPK6TClass
}
{
   <insert_a_suppression_name_here>
   Memcheck:Leak
   match-leak-kinds: possible
   fun:malloc
   fun:_Znwm
   fun:_ZN14TBuildRealData7InspectEP6TClassPKcS3_PKv
   fun:_ZN16TStreamerElement11ShowMembersER16TMemberInspector
   fun:_ZNK6TClass15CallShowMembersEPvR16TMemberInspectori
   fun:_ZN6TClass13BuildRealDataEPvb
   fun:_ZN11TBufferFile16WriteClassBufferEPK6TClassPv
   fun:_ZN15TStreamerObject8StreamerER7TBuffer
   fun:_ZN11TBufferFile16WriteObjectClassEPKvPK6TClass
   fun:_ZN11TBufferFile14WriteObjectAnyEPKvPK6TClass
   fun:_ZN9TObjArray8StreamerER7TBuffer
   fun:_ZN11TBufferFile16WriteObjectClassEPKvPK6TClass
}
{
   <insert_a_suppression_name_here>
   Memcheck:Leak
   match-leak-kinds: possible
   fun:malloc
   fun:_Znwm
   fun:_ZN14TBuildRealData7InspectEP6TClassPKcS3_PKv
   fun:_ZN6TNamed11ShowMembersER16TMemberInspector
   fun:_ZNK6TClass15CallShowMembersEPvR16TMemberInspectori
   fun:_ZN6TClass13BuildRealDataEPvb
   fun:_ZN11TBufferFile16WriteClassBufferEPK6TClassPv
   fun:_ZN15TStreamerObject8StreamerER7TBuffer
   fun:_ZN11TBufferFile16WriteObjectClassEPKvPK6TClass
   fun:_ZN11TBufferFile14WriteObjectAnyEPKvPK6TClass
   fun:_ZN9TObjArray8StreamerER7TBuffer
   fun:_ZN11TBufferFile16WriteObjectClassEPKvPK6TClass
}
{
   <insert_a_suppression_name_here>
   Memcheck:Leak
   match-leak-kinds: possible
   fun:malloc
   fun:_Znwm
   fun:_ZN14TBuildRealData7InspectEP6TClassPKcS3_PKv
   fun:_ZN7TObject11ShowMembersER16TMemberInspector
   fun:_ZNK6TClass15CallShowMembersEPvR16TMemberInspectori
   fun:_ZN6TClass13BuildRealDataEPvb
   fun:_ZN11TBufferFile16WriteClassBufferEPK6TClassPv
   fun:_ZN15TStreamerObject8StreamerER7TBuffer
   fun:_ZN11TBufferFile16WriteObjectClassEPKvPK6TClass
   fun:_ZN11TBufferFile14WriteObjectAnyEPKvPK6TClass
   fun:_ZN9TObjArray8StreamerER7TBuffer
   fun:_ZN11TBufferFile16WriteObjectClassEPKvPK6TClass
}
{
   <insert_a_suppression_name_here>
   Memcheck:Leak
   match-leak-kinds: possible
   fun:malloc
   fun:_Znwm
   fun:_ZN14TBuildRealData7InspectEP6TClassPKcS3_PKv
   fun:_ZNK6TClass15CallShowMembersEPvR16TMemberInspectori
   fun:_ZN6TClass13BuildRealDataEPvb
   fun:_ZN11TBufferFile16WriteClassBufferEPK6TClassPv
   fun:_ZN15TStreamerObject8StreamerER7TBuffer
   fun:_ZN11TBufferFile16WriteObjectClassEPKvPK6TClass
   fun:_ZN11TBufferFile14WriteObjectAnyEPKvPK6TClass
   fun:_ZN9TObjArray8StreamerER7TBuffer
   fun:_ZN11TBufferFile16WriteObjectClassEPKvPK6TClass
   fun:_ZN11TBufferFile14WriteObjectAnyEPKvPK6TClass
}
{
   <insert_a_suppression_name_here>
   Memcheck:Leak
   match-leak-kinds: possible
   fun:malloc
   fun:_Znwm
   fun:_ZN14TBuildRealData7InspectEP6TClassPKcS3_PKv
   fun:_ZN16TStreamerElement11ShowMembersER16TMemberInspector
   fun:_ZNK6TClass15CallShowMembersEPvR16TMemberInspectori
   fun:_ZN6TClass13BuildRealDataEPvb
   fun:_ZN11TBufferFile16WriteClassBufferEPK6TClassPv
   fun:_ZN22TStreamerObjectPointer8StreamerER7TBuffer
   fun:_ZN11TBufferFile16WriteObjectClassEPKvPK6TClass
   fun:_ZN11TBufferFile14WriteObjectAnyEPKvPK6TClass
   fun:_ZN9TObjArray8StreamerER7TBuffer
   fun:_ZN11TBufferFile16WriteObjectClassEPKvPK6TClass
}
{
   <insert_a_suppression_name_here>
   Memcheck:Leak
   match-leak-kinds: possible
   fun:malloc
   fun:_Znwm
   fun:_ZN14TBuildRealData7InspectEP6TClassPKcS3_PKv
   fun:_ZN6TNamed11ShowMembersER16TMemberInspector
   fun:_ZNK6TClass15CallShowMembersEPvR16TMemberInspectori
   fun:_ZN6TClass13BuildRealDataEPvb
   fun:_ZN11TBufferFile16WriteClassBufferEPK6TClassPv
   fun:_ZN22TStreamerObjectPointer8StreamerER7TBuffer
   fun:_ZN11TBufferFile16WriteObjectClassEPKvPK6TClass
   fun:_ZN11TBufferFile14WriteObjectAnyEPKvPK6TClass
   fun:_ZN9TObjArray8StreamerER7TBuffer
   fun:_ZN11TBufferFile16WriteObjectClassEPKvPK6TClass
}
{
   <insert_a_suppression_name_here>
   Memcheck:Leak
   match-leak-kinds: possible
   fun:malloc
   fun:_Znwm
   fun:_ZN14TBuildRealData7InspectEP6TClassPKcS3_PKv
   fun:_ZN7TObject11ShowMembersER16TMemberInspector
   fun:_ZNK6TClass15CallShowMembersEPvR16TMemberInspectori
   fun:_ZN6TClass13BuildRealDataEPvb
   fun:_ZN11TBufferFile16WriteClassBufferEPK6TClassPv
   fun:_ZN22TStreamerObjectPointer8StreamerER7TBuffer
   fun:_ZN11TBufferFile16WriteObjectClassEPKvPK6TClass
   fun:_ZN11TBufferFile14WriteObjectAnyEPKvPK6TClass
   fun:_ZN9TObjArray8StreamerER7TBuffer
   fun:_ZN11TBufferFile16WriteObjectClassEPKvPK6TClass
}
{
   <insert_a_suppression_name_here>
   Memcheck:Leak
   match-leak-kinds: possible
   fun:malloc
   fun:_Znwm
   fun:_ZN14TBuildRealData7InspectEP6TClassPKcS3_PKv
   fun:_ZNK6TClass15CallShowMembersEPvR16TMemberInspectori
   fun:_ZN6TClass13BuildRealDataEPvb
   fun:_ZN11TBufferFile16WriteClassBufferEPK6TClassPv
   fun:_ZN22TStreamerObjectPointer8StreamerER7TBuffer
   fun:_ZN11TBufferFile16WriteObjectClassEPKvPK6TClass
   fun:_ZN11TBufferFile14WriteObjectAnyEPKvPK6TClass
   fun:_ZN9TObjArray8StreamerER7TBuffer
   fun:_ZN11TBufferFile16WriteObjectClassEPKvPK6TClass
   fun:_ZN11TBufferFile14WriteObjectAnyEPKvPK6TClass
}
{
   <insert_a_suppression_name_here>
   Memcheck:Leak
   match-leak-kinds: possible
   fun:malloc
   fun:_Znwm
   fun:_ZN14TBuildRealData7InspectEP6TClassPKcS3_PKv
   fun:_ZN16TStreamerElement11ShowMembersER16TMemberInspector
   fun:_ZNK6TClass15CallShowMembersEPvR16TMemberInspectori
   fun:_ZN6TClass13BuildRealDataEPvb
   fun:_ZN11TBufferFile16WriteClassBufferEPK6TClassPv
   fun:_ZN18TStreamerObjectAny8StreamerER7TBuffer
   fun:_ZN11TBufferFile16WriteObjectClassEPKvPK6TClass
   fun:_ZN11TBufferFile14WriteObjectAnyEPKvPK6TClass
   fun:_ZN9TObjArray8StreamerER7TBuffer
   fun:_ZN11TBufferFile16WriteObjectClassEPKvPK6TClass
}
{
   <insert_a_suppression_name_here>
   Memcheck:Leak
   match-leak-kinds: possible
   fun:malloc
   fun:_Znwm
   fun:_ZN14TBuildRealData7InspectEP6TClassPKcS3_PKv
   fun:_ZN6TNamed11ShowMembersER16TMemberInspector
   fun:_ZNK6TClass15CallShowMembersEPvR16TMemberInspectori
   fun:_ZN6TClass13BuildRealDataEPvb
   fun:_ZN11TBufferFile16WriteClassBufferEPK6TClassPv
   fun:_ZN18TStreamerObjectAny8StreamerER7TBuffer
   fun:_ZN11TBufferFile16WriteObjectClassEPKvPK6TClass
   fun:_ZN11TBufferFile14WriteObjectAnyEPKvPK6TClass
   fun:_ZN9TObjArray8StreamerER7TBuffer
   fun:_ZN11TBufferFile16WriteObjectClassEPKvPK6TClass
}
{
   <insert_a_suppression_name_here>
   Memcheck:Leak
   match-leak-kinds: possible
   fun:malloc
   fun:_Znwm
   fun:_ZN14TBuildRealData7InspectEP6TClassPKcS3_PKv
   fun:_ZN7TObject11ShowMembersER16TMemberInspector
   fun:_ZNK6TClass15CallShowMembersEPvR16TMemberInspectori
   fun:_ZN6TClass13BuildRealDataEPvb
   fun:_ZN11TBufferFile16WriteClassBufferEPK6TClassPv
   fun:_ZN18TStreamerObjectAny8StreamerER7TBuffer
   fun:_ZN11TBufferFile16WriteObjectClassEPKvPK6TClass
   fun:_ZN11TBufferFile14WriteObjectAnyEPKvPK6TClass
   fun:_ZN9TObjArray8StreamerER7TBuffer
   fun:_ZN11TBufferFile16WriteObjectClassEPKvPK6TClass
}
{
   <insert_a_suppression_name_here>
   Memcheck:Leak
   match-leak-kinds: possible
   fun:malloc
   fun:_Znwm
   fun:_ZN14TBuildRealData7InspectEP6TClassPKcS3_PKv
   fun:_ZNK6TClass15CallShowMembersEPvR16TMemberInspectori
   fun:_ZN6TClass13BuildRealDataEPvb
   fun:_ZN11TBufferFile16WriteClassBufferEPK6TClassPv
   fun:_ZN18TStreamerObjectAny8StreamerER7TBuffer
   fun:_ZN11TBufferFile16WriteObjectClassEPKvPK6TClass
   fun:_ZN11TBufferFile14WriteObjectAnyEPKvPK6TClass
   fun:_ZN9TObjArray8StreamerER7TBuffer
   fun:_ZN11TBufferFile16WriteObjectClassEPKvPK6TClass
   fun:_ZN11TBufferFile14WriteObjectAnyEPKvPK6TClass
}
{
   <insert_a_suppression_name_here>
   Memcheck:Leak
   match-leak-kinds: possible
   fun:malloc
   fun:_Znwm
   fun:_ZN14TBuildRealData7InspectEP6TClassPKcS3_PKv
   fun:_ZN16TStreamerElement11ShowMembersER16TMemberInspector
   fun:_ZNK6TClass15CallShowMembersEPvR16TMemberInspectori
   fun:_ZN6TClass13BuildRealDataEPvb
   fun:_ZN11TBufferFile16WriteClassBufferEPK6TClassPv
   fun:_ZN15TStreamerString8StreamerER7TBuffer
   fun:_ZN11TBufferFile16WriteObjectClassEPKvPK6TClass
   fun:_ZN11TBufferFile14WriteObjectAnyEPKvPK6TClass
   fun:_ZN9TObjArray8StreamerER7TBuffer
   fun:_ZN11TBufferFile16WriteObjectClassEPKvPK6TClass
}
{
   <insert_a_suppression_name_here>
   Memcheck:Leak
   match-leak-kinds: possible
   fun:malloc
   fun:_Znwm
   fun:_ZN14TBuildRealData7InspectEP6TClassPKcS3_PKv
   fun:_ZN6TNamed11ShowMembersER16TMemberInspector
   fun:_ZNK6TClass15CallShowMembersEPvR16TMemberInspectori
   fun:_ZN6TClass13BuildRealDataEPvb
   fun:_ZN11TBufferFile16WriteClassBufferEPK6TClassPv
   fun:_ZN15TStreamerString8StreamerER7TBuffer
   fun:_ZN11TBufferFile16WriteObjectClassEPKvPK6TClass
   fun:_ZN11TBufferFile14WriteObjectAnyEPKvPK6TClass
   fun:_ZN9TObjArray8StreamerER7TBuffer
   fun:_ZN11TBufferFile16WriteObjectClassEPKvPK6TClass
}
{
   <insert_a_suppression_name_here>
   Memcheck:Leak
   match-leak-kinds: possible
   fun:malloc
   fun:_Znwm
   fun:_ZN14TBuildRealData7InspectEP6TClassPKcS3_PKv
   fun:_ZN7TObject11ShowMembersER16TMemberInspector
   fun:_ZNK6TClass15CallShowMembersEPvR16TMemberInspectori
   fun:_ZN6TClass13BuildRealDataEPvb
   fun:_ZN11TBufferFile16WriteClassBufferEPK6TClassPv
   fun:_ZN15TStreamerString8StreamerER7TBuffer
   fun:_ZN11TBufferFile16WriteObjectClassEPKvPK6TClass
   fun:_ZN11TBufferFile14WriteObjectAnyEPKvPK6TClass
   fun:_ZN9TObjArray8StreamerER7TBuffer
   fun:_ZN11TBufferFile16WriteObjectClassEPKvPK6TClass
}
{
   <insert_a_suppression_name_here>
   Memcheck:Leak
   match-leak-kinds: possible
   fun:malloc
   fun:_Znwm
   fun:_ZN14TBuildRealData7InspectEP6TClassPKcS3_PKv
   fun:_ZNK6TClass15CallShowMembersEPvR16TMemberInspectori
   fun:_ZN6TClass13BuildRealDataEPvb
   fun:_ZN11TBufferFile16WriteClassBufferEPK6TClassPv
   fun:_ZN15TStreamerString8StreamerER7TBuffer
   fun:_ZN11TBufferFile16WriteObjectClassEPKvPK6TClass
   fun:_ZN11TBufferFile14WriteObjectAnyEPKvPK6TClass
   fun:_ZN9TObjArray8StreamerER7TBuffer
   fun:_ZN11TBufferFile16WriteObjectClassEPKvPK6TClass
   fun:_ZN11TBufferFile14WriteObjectAnyEPKvPK6TClass
}
{
   <insert_a_suppression_name_here>
   Memcheck:Leak
   match-leak-kinds: possible
   fun:malloc
   fun:_Znwm
   fun:_ZN14TBuildRealData7InspectEP6TClassPKcS3_PKv
   fun:_ZN10TObjString11ShowMembersER16TMemberInspector
   fun:_ZNK6TClass15CallShowMembersEPvR16TMemberInspectori
   fun:_ZN6TClass13BuildRealDataEPvb
   fun:_ZN11TBufferFile16WriteClassBufferEPK6TClassPv
   fun:_ZN11TBufferFile16WriteObjectClassEPKvPK6TClass
   fun:_ZN11TBufferFile14WriteObjectAnyEPKvPK6TClass
   fun:_ZN5TList8StreamerER7TBuffer
   fun:_ZN11TBufferFile16WriteObjectClassEPKvPK6TClass
   fun:_ZN11TBufferFile14WriteObjectAnyEPKvPK6TClass
}
{
   <insert_a_suppression_name_here>
   Memcheck:Leak
   match-leak-kinds: possible
   fun:malloc
   fun:_Znwm
   fun:_ZN14TBuildRealData7InspectEP6TClassPKcS3_PKv
   fun:_ZN7TObject11ShowMembersER16TMemberInspector
   fun:_ZNK6TClass15CallShowMembersEPvR16TMemberInspectori
   fun:_ZN6TClass13BuildRealDataEPvb
   fun:_ZN11TBufferFile16WriteClassBufferEPK6TClassPv
   fun:_ZN11TBufferFile16WriteObjectClassEPKvPK6TClass
   fun:_ZN11TBufferFile14WriteObjectAnyEPKvPK6TClass
   fun:_ZN5TList8StreamerER7TBuffer
   fun:_ZN11TBufferFile16WriteObjectClassEPKvPK6TClass
   fun:_ZN11TBufferFile14WriteObjectAnyEPKvPK6TClass
}
{
   <insert_a_suppression_name_here>
   Memcheck:Leak
   match-leak-kinds: possible
   fun:malloc
   fun:_Znwm
   fun:_ZN14TBuildRealData7InspectEP6TClassPKcS3_PKv
   fun:_ZNK6TClass15CallShowMembersEPvR16TMemberInspectori
   fun:_ZN6TClass13BuildRealDataEPvb
   fun:_ZN11TBufferFile16WriteClassBufferEPK6TClassPv
   fun:_ZN11TBufferFile16WriteObjectClassEPKvPK6TClass
   fun:_ZN11TBufferFile14WriteObjectAnyEPKvPK6TClass
   fun:_ZN5TList8StreamerER7TBuffer
   fun:_ZN11TBufferFile16WriteObjectClassEPKvPK6TClass
   fun:_ZN11TBufferFile14WriteObjectAnyEPKvPK6TClass
   fun:_ZN5TList8StreamerER7TBuffer
}
{
   <insert_a_suppression_name_here>
   Memcheck:Leak
   match-leak-kinds: possible
   fun:malloc
   fun:_Znwm
   fun:_ZN5TCint23CreateListOfBaseClassesEP6TClass
   fun:_ZN6TClass25GetBaseClassOffsetRecurseEPKS_
   fun:_ZN6TClass25GetBaseClassOffsetRecurseEPKS_
   fun:_ZN6TClass18GetBaseClassOffsetEPKS_
   fun:_ZN11TBufferFile14WriteObjectAnyEPKvPK6TClass
   fun:_ZN9TObjArray8StreamerER7TBuffer
   fun:_ZN11TBufferFile16WriteObjectClassEPKvPK6TClass
   fun:_ZN11TBufferFile14WriteObjectAnyEPKvPK6TClass
   fun:_ZN13TStreamerInfo8StreamerER7TBuffer
   fun:_ZN11TBufferFile16WriteObjectClassEPKvPK6TClass
}
{
   <insert_a_suppression_name_here>
   Memcheck:Leak
   match-leak-kinds: possible
   fun:malloc
   fun:_Znwm
   fun:_ZN6TClass13BuildRealDataEPvb
   fun:_ZN11TBufferFile16WriteClassBufferEPK6TClassPv
   fun:_ZN13TStreamerBase8StreamerER7TBuffer
   fun:_ZN11TBufferFile16WriteObjectClassEPKvPK6TClass
   fun:_ZN11TBufferFile14WriteObjectAnyEPKvPK6TClass
   fun:_ZN9TObjArray8StreamerER7TBuffer
   fun:_ZN11TBufferFile16WriteObjectClassEPKvPK6TClass
   fun:_ZN11TBufferFile14WriteObjectAnyEPKvPK6TClass
   fun:_ZN13TStreamerInfo8StreamerER7TBuffer
   fun:_ZN11TBufferFile16WriteObjectClassEPKvPK6TClass
}
{
   <insert_a_suppression_name_here>
   Memcheck:Leak
   match-leak-kinds: possible
   fun:malloc
   fun:_Znwm
   fun:_ZN5TCint23CreateListOfDataMembersEP6TClass
   fun:_ZN6TClass20GetListOfDataMembersEv
   fun:_ZNK6TClass13GetDataMemberEPKc
   fun:_ZN14TBuildRealData7InspectEP6TClassPKcS3_PKv
   fun:_ZN13TStreamerBase11ShowMembersER16TMemberInspector
   fun:_ZNK6TClass15CallShowMembersEPvR16TMemberInspectori
   fun:_ZN6TClass13BuildRealDataEPvb
   fun:_ZN11TBufferFile16WriteClassBufferEPK6TClassPv
   fun:_ZN13TStreamerBase8StreamerER7TBuffer
   fun:_ZN11TBufferFile16WriteObjectClassEPKvPK6TClass
}
{
   <insert_a_suppression_name_here>
   Memcheck:Leak
   match-leak-kinds: possible
   fun:malloc
   fun:_Znwm
   fun:_ZN5TCint23CreateListOfDataMembersEP6TClass
   fun:_ZN6TClass20GetListOfDataMembersEv
   fun:_ZNK6TClass13GetDataMemberEPKc
   fun:_ZN14TBuildRealData7InspectEP6TClassPKcS3_PKv
   fun:_ZN16TStreamerElement11ShowMembersER16TMemberInspector
   fun:_ZNK6TClass15CallShowMembersEPvR16TMemberInspectori
   fun:_ZN6TClass13BuildRealDataEPvb
   fun:_ZN11TBufferFile16WriteClassBufferEPK6TClassPv
   fun:_ZN13TStreamerBase8StreamerER7TBuffer
   fun:_ZN11TBufferFile16WriteObjectClassEPKvPK6TClass
}
{
   <insert_a_suppression_name_here>
   Memcheck:Leak
   match-leak-kinds: possible
   fun:malloc
   fun:_Znwm
   fun:_ZN6TClass13BuildRealDataEPvb
   fun:_ZN6TClass13BuildRealDataEPvb
   fun:_ZN11TBufferFile16WriteClassBufferEPK6TClassPv
   fun:_ZN13TStreamerBase8StreamerER7TBuffer
   fun:_ZN11TBufferFile16WriteObjectClassEPKvPK6TClass
   fun:_ZN11TBufferFile14WriteObjectAnyEPKvPK6TClass
   fun:_ZN9TObjArray8StreamerER7TBuffer
   fun:_ZN11TBufferFile16WriteObjectClassEPKvPK6TClass
   fun:_ZN11TBufferFile14WriteObjectAnyEPKvPK6TClass
   fun:_ZN13TStreamerInfo8StreamerER7TBuffer
}
{
   <insert_a_suppression_name_here>
   Memcheck:Leak
   match-leak-kinds: possible
   fun:malloc
   fun:_Znwm
   fun:_ZN6TClass13BuildRealDataEPvb
   fun:_ZN11TBufferFile16WriteClassBufferEPK6TClassPv
   fun:_ZN12TStreamerSTL8StreamerER7TBuffer
   fun:_ZN11TBufferFile16WriteObjectClassEPKvPK6TClass
   fun:_ZN11TBufferFile14WriteObjectAnyEPKvPK6TClass
   fun:_ZN9TObjArray8StreamerER7TBuffer
   fun:_ZN11TBufferFile16WriteObjectClassEPKvPK6TClass
   fun:_ZN11TBufferFile14WriteObjectAnyEPKvPK6TClass
   fun:_ZN13TStreamerInfo8StreamerER7TBuffer
   fun:_ZN11TBufferFile16WriteObjectClassEPKvPK6TClass
}
{
   <insert_a_suppression_name_here>
   Memcheck:Leak
   match-leak-kinds: possible
   fun:malloc
   fun:_Znwm
   fun:_ZN5TCint23CreateListOfDataMembersEP6TClass
   fun:_ZN6TClass20GetListOfDataMembersEv
   fun:_ZNK6TClass13GetDataMemberEPKc
   fun:_ZN14TBuildRealData7InspectEP6TClassPKcS3_PKv
   fun:_ZN12TStreamerSTL11ShowMembersER16TMemberInspector
   fun:_ZNK6TClass15CallShowMembersEPvR16TMemberInspectori
   fun:_ZN6TClass13BuildRealDataEPvb
   fun:_ZN11TBufferFile16WriteClassBufferEPK6TClassPv
   fun:_ZN12TStreamerSTL8StreamerER7TBuffer
   fun:_ZN11TBufferFile16WriteObjectClassEPKvPK6TClass
}
{
   <insert_a_suppression_name_here>
   Memcheck:Leak
   match-leak-kinds: possible
   fun:malloc
   fun:_Znwm
   fun:_ZN6TClass13BuildRealDataEPvb
   fun:_ZN11TBufferFile16WriteClassBufferEPK6TClassPv
   fun:_ZN18TStreamerBasicType8StreamerER7TBuffer
   fun:_ZN11TBufferFile16WriteObjectClassEPKvPK6TClass
   fun:_ZN11TBufferFile14WriteObjectAnyEPKvPK6TClass
   fun:_ZN9TObjArray8StreamerER7TBuffer
   fun:_ZN11TBufferFile16WriteObjectClassEPKvPK6TClass
   fun:_ZN11TBufferFile14WriteObjectAnyEPKvPK6TClass
   fun:_ZN13TStreamerInfo8StreamerER7TBuffer
   fun:_ZN11TBufferFile16WriteObjectClassEPKvPK6TClass
}
{
   <insert_a_suppression_name_here>
   Memcheck:Leak
   match-leak-kinds: possible
   fun:malloc
   fun:_Znwm
   fun:_ZN5TCint23CreateListOfDataMembersEP6TClass
   fun:_ZN6TClass20GetListOfDataMembersEv
   fun:_ZNK6TClass13GetDataMemberEPKc
   fun:_ZN14TBuildRealData7InspectEP6TClassPKcS3_PKv
   fun:_ZN18TStreamerBasicType11ShowMembersER16TMemberInspector
   fun:_ZNK6TClass15CallShowMembersEPvR16TMemberInspectori
   fun:_ZN6TClass13BuildRealDataEPvb
   fun:_ZN11TBufferFile16WriteClassBufferEPK6TClassPv
   fun:_ZN18TStreamerBasicType8StreamerER7TBuffer
   fun:_ZN11TBufferFile16WriteObjectClassEPKvPK6TClass
}
{
   <insert_a_suppression_name_here>
   Memcheck:Leak
   match-leak-kinds: possible
   fun:malloc
   fun:_Znwm
   fun:_ZN6TClass13BuildRealDataEPvb
   fun:_ZN11TBufferFile16WriteClassBufferEPK6TClassPv
   fun:_ZN21TStreamerBasicPointer8StreamerER7TBuffer
   fun:_ZN11TBufferFile16WriteObjectClassEPKvPK6TClass
   fun:_ZN11TBufferFile14WriteObjectAnyEPKvPK6TClass
   fun:_ZN9TObjArray8StreamerER7TBuffer
   fun:_ZN11TBufferFile16WriteObjectClassEPKvPK6TClass
   fun:_ZN11TBufferFile14WriteObjectAnyEPKvPK6TClass
   fun:_ZN13TStreamerInfo8StreamerER7TBuffer
   fun:_ZN11TBufferFile16WriteObjectClassEPKvPK6TClass
}
{
   <insert_a_suppression_name_here>
   Memcheck:Leak
   match-leak-kinds: possible
   fun:malloc
   fun:_Znwm
   fun:_ZN5TCint23CreateListOfDataMembersEP6TClass
   fun:_ZN6TClass20GetListOfDataMembersEv
   fun:_ZNK6TClass13GetDataMemberEPKc
   fun:_ZN14TBuildRealData7InspectEP6TClassPKcS3_PKv
   fun:_ZN21TStreamerBasicPointer11ShowMembersER16TMemberInspector
   fun:_ZNK6TClass15CallShowMembersEPvR16TMemberInspectori
   fun:_ZN6TClass13BuildRealDataEPvb
   fun:_ZN11TBufferFile16WriteClassBufferEPK6TClassPv
   fun:_ZN21TStreamerBasicPointer8StreamerER7TBuffer
   fun:_ZN11TBufferFile16WriteObjectClassEPKvPK6TClass
}
{
   <insert_a_suppression_name_here>
   Memcheck:Leak
   match-leak-kinds: possible
   fun:malloc
   fun:_Znwm
   fun:_ZN6TClass13BuildRealDataEPvb
   fun:_ZN11TBufferFile16WriteClassBufferEPK6TClassPv
   fun:_ZN15TStreamerObject8StreamerER7TBuffer
   fun:_ZN11TBufferFile16WriteObjectClassEPKvPK6TClass
   fun:_ZN11TBufferFile14WriteObjectAnyEPKvPK6TClass
   fun:_ZN9TObjArray8StreamerER7TBuffer
   fun:_ZN11TBufferFile16WriteObjectClassEPKvPK6TClass
   fun:_ZN11TBufferFile14WriteObjectAnyEPKvPK6TClass
   fun:_ZN13TStreamerInfo8StreamerER7TBuffer
   fun:_ZN11TBufferFile16WriteObjectClassEPKvPK6TClass
}
{
   <insert_a_suppression_name_here>
   Memcheck:Leak
   match-leak-kinds: possible
   fun:malloc
   fun:_Znwm
   fun:_ZN5TCint23CreateListOfDataMembersEP6TClass
   fun:_ZN6TClass20GetListOfDataMembersEv
   fun:_ZNK6TClass11GetCheckSumEj
   fun:_ZN13TStreamerInfo5BuildEv
   fun:_ZN11TBufferFile16WriteClassBufferEPK6TClassPv
   fun:_ZN15TStreamerObject8StreamerER7TBuffer
   fun:_ZN11TBufferFile16WriteObjectClassEPKvPK6TClass
   fun:_ZN11TBufferFile14WriteObjectAnyEPKvPK6TClass
   fun:_ZN9TObjArray8StreamerER7TBuffer
   fun:_ZN11TBufferFile16WriteObjectClassEPKvPK6TClass
}
{
   <insert_a_suppression_name_here>
   Memcheck:Leak
   match-leak-kinds: possible
   fun:malloc
   fun:_Znwm
   fun:_ZN6TClass20GetListOfDataMembersEv
   fun:_ZNK6TClass11GetCheckSumEj
   fun:_ZN13TStreamerInfo5BuildEv
   fun:_ZN11TBufferFile16WriteClassBufferEPK6TClassPv
   fun:_ZN15TStreamerObject8StreamerER7TBuffer
   fun:_ZN11TBufferFile16WriteObjectClassEPKvPK6TClass
   fun:_ZN11TBufferFile14WriteObjectAnyEPKvPK6TClass
   fun:_ZN9TObjArray8StreamerER7TBuffer
   fun:_ZN11TBufferFile16WriteObjectClassEPKvPK6TClass
   fun:_ZN11TBufferFile14WriteObjectAnyEPKvPK6TClass
}
{
   <insert_a_suppression_name_here>
   Memcheck:Leak
   match-leak-kinds: possible
   fun:malloc
   fun:_Znwm
   fun:_ZN6TClass13BuildRealDataEPvb
   fun:_ZN11TBufferFile16WriteClassBufferEPK6TClassPv
   fun:_ZN22TStreamerObjectPointer8StreamerER7TBuffer
   fun:_ZN11TBufferFile16WriteObjectClassEPKvPK6TClass
   fun:_ZN11TBufferFile14WriteObjectAnyEPKvPK6TClass
   fun:_ZN9TObjArray8StreamerER7TBuffer
   fun:_ZN11TBufferFile16WriteObjectClassEPKvPK6TClass
   fun:_ZN11TBufferFile14WriteObjectAnyEPKvPK6TClass
   fun:_ZN13TStreamerInfo8StreamerER7TBuffer
   fun:_ZN11TBufferFile16WriteObjectClassEPKvPK6TClass
}
{
   <insert_a_suppression_name_here>
   Memcheck:Leak
   match-leak-kinds: possible
   fun:malloc
   fun:_Znwm
   fun:_ZN5TCint23CreateListOfDataMembersEP6TClass
   fun:_ZN6TClass20GetListOfDataMembersEv
   fun:_ZNK6TClass11GetCheckSumEj
   fun:_ZN13TStreamerInfo5BuildEv
   fun:_ZN11TBufferFile16WriteClassBufferEPK6TClassPv
   fun:_ZN22TStreamerObjectPointer8StreamerER7TBuffer
   fun:_ZN11TBufferFile16WriteObjectClassEPKvPK6TClass
   fun:_ZN11TBufferFile14WriteObjectAnyEPKvPK6TClass
   fun:_ZN9TObjArray8StreamerER7TBuffer
   fun:_ZN11TBufferFile16WriteObjectClassEPKvPK6TClass
}
{
   <insert_a_suppression_name_here>
   Memcheck:Leak
   match-leak-kinds: possible
   fun:malloc
   fun:_Znwm
   fun:_ZN6TClass20GetListOfDataMembersEv
   fun:_ZNK6TClass11GetCheckSumEj
   fun:_ZN13TStreamerInfo5BuildEv
   fun:_ZN11TBufferFile16WriteClassBufferEPK6TClassPv
   fun:_ZN22TStreamerObjectPointer8StreamerER7TBuffer
   fun:_ZN11TBufferFile16WriteObjectClassEPKvPK6TClass
   fun:_ZN11TBufferFile14WriteObjectAnyEPKvPK6TClass
   fun:_ZN9TObjArray8StreamerER7TBuffer
   fun:_ZN11TBufferFile16WriteObjectClassEPKvPK6TClass
   fun:_ZN11TBufferFile14WriteObjectAnyEPKvPK6TClass
}
{
   <insert_a_suppression_name_here>
   Memcheck:Leak
   match-leak-kinds: possible
   fun:malloc
   fun:_Znwm
   fun:_ZN6TClass13BuildRealDataEPvb
   fun:_ZN11TBufferFile16WriteClassBufferEPK6TClassPv
   fun:_ZN18TStreamerObjectAny8StreamerER7TBuffer
   fun:_ZN11TBufferFile16WriteObjectClassEPKvPK6TClass
   fun:_ZN11TBufferFile14WriteObjectAnyEPKvPK6TClass
   fun:_ZN9TObjArray8StreamerER7TBuffer
   fun:_ZN11TBufferFile16WriteObjectClassEPKvPK6TClass
   fun:_ZN11TBufferFile14WriteObjectAnyEPKvPK6TClass
   fun:_ZN13TStreamerInfo8StreamerER7TBuffer
   fun:_ZN11TBufferFile16WriteObjectClassEPKvPK6TClass
}
{
   <insert_a_suppression_name_here>
   Memcheck:Leak
   match-leak-kinds: possible
   fun:malloc
   fun:_Znwm
   fun:_ZN5TCint23CreateListOfDataMembersEP6TClass
   fun:_ZN6TClass20GetListOfDataMembersEv
   fun:_ZNK6TClass11GetCheckSumEj
   fun:_ZN13TStreamerInfo5BuildEv
   fun:_ZN11TBufferFile16WriteClassBufferEPK6TClassPv
   fun:_ZN18TStreamerObjectAny8StreamerER7TBuffer
   fun:_ZN11TBufferFile16WriteObjectClassEPKvPK6TClass
   fun:_ZN11TBufferFile14WriteObjectAnyEPKvPK6TClass
   fun:_ZN9TObjArray8StreamerER7TBuffer
   fun:_ZN11TBufferFile16WriteObjectClassEPKvPK6TClass
}
{
   <insert_a_suppression_name_here>
   Memcheck:Leak
   match-leak-kinds: possible
   fun:malloc
   fun:_Znwm
   fun:_ZN6TClass20GetListOfDataMembersEv
   fun:_ZNK6TClass11GetCheckSumEj
   fun:_ZN13TStreamerInfo5BuildEv
   fun:_ZN11TBufferFile16WriteClassBufferEPK6TClassPv
   fun:_ZN18TStreamerObjectAny8StreamerER7TBuffer
   fun:_ZN11TBufferFile16WriteObjectClassEPKvPK6TClass
   fun:_ZN11TBufferFile14WriteObjectAnyEPKvPK6TClass
   fun:_ZN9TObjArray8StreamerER7TBuffer
   fun:_ZN11TBufferFile16WriteObjectClassEPKvPK6TClass
   fun:_ZN11TBufferFile14WriteObjectAnyEPKvPK6TClass
}
{
   <insert_a_suppression_name_here>
   Memcheck:Leak
   match-leak-kinds: possible
   fun:malloc
   fun:_Znwm
   fun:_ZN6TClass13BuildRealDataEPvb
   fun:_ZN11TBufferFile16WriteClassBufferEPK6TClassPv
   fun:_ZN15TStreamerString8StreamerER7TBuffer
   fun:_ZN11TBufferFile16WriteObjectClassEPKvPK6TClass
   fun:_ZN11TBufferFile14WriteObjectAnyEPKvPK6TClass
   fun:_ZN9TObjArray8StreamerER7TBuffer
   fun:_ZN11TBufferFile16WriteObjectClassEPKvPK6TClass
   fun:_ZN11TBufferFile14WriteObjectAnyEPKvPK6TClass
   fun:_ZN13TStreamerInfo8StreamerER7TBuffer
   fun:_ZN11TBufferFile16WriteObjectClassEPKvPK6TClass
}
{
   <insert_a_suppression_name_here>
   Memcheck:Leak
   match-leak-kinds: possible
   fun:malloc
   fun:_Znwm
   fun:_ZN5TCint23CreateListOfDataMembersEP6TClass
   fun:_ZN6TClass20GetListOfDataMembersEv
   fun:_ZNK6TClass11GetCheckSumEj
   fun:_ZN13TStreamerInfo5BuildEv
   fun:_ZN11TBufferFile16WriteClassBufferEPK6TClassPv
   fun:_ZN15TStreamerString8StreamerER7TBuffer
   fun:_ZN11TBufferFile16WriteObjectClassEPKvPK6TClass
   fun:_ZN11TBufferFile14WriteObjectAnyEPKvPK6TClass
   fun:_ZN9TObjArray8StreamerER7TBuffer
   fun:_ZN11TBufferFile16WriteObjectClassEPKvPK6TClass
}
{
   <insert_a_suppression_name_here>
   Memcheck:Leak
   match-leak-kinds: possible
   fun:malloc
   fun:_Znwm
   fun:_ZN6TClass20GetListOfDataMembersEv
   fun:_ZNK6TClass11GetCheckSumEj
   fun:_ZN13TStreamerInfo5BuildEv
   fun:_ZN11TBufferFile16WriteClassBufferEPK6TClassPv
   fun:_ZN15TStreamerString8StreamerER7TBuffer
   fun:_ZN11TBufferFile16WriteObjectClassEPKvPK6TClass
   fun:_ZN11TBufferFile14WriteObjectAnyEPKvPK6TClass
   fun:_ZN9TObjArray8StreamerER7TBuffer
   fun:_ZN11TBufferFile16WriteObjectClassEPKvPK6TClass
   fun:_ZN11TBufferFile14WriteObjectAnyEPKvPK6TClass
}
{
   <insert_a_suppression_name_here>
   Memcheck:Leak
   match-leak-kinds: possible
   fun:malloc
   fun:_Znwm
   fun:_ZN5TCint23CreateListOfBaseClassesEP6TClass
   fun:_ZN6TClass25GetBaseClassOffsetRecurseEPKS_
   fun:_ZN6TClass18GetBaseClassOffsetEPKS_
   fun:_ZN11TBufferFile14WriteObjectAnyEPKvPK6TClass
   fun:_ZN5TList8StreamerER7TBuffer
   fun:_ZN11TBufferFile16WriteObjectClassEPKvPK6TClass
   fun:_ZN11TBufferFile14WriteObjectAnyEPKvPK6TClass
   fun:_ZN5TList8StreamerER7TBuffer
   fun:_ZN4TKeyC2EPK7TObjectPKciP10TDirectory
   fun:_ZN5TFile17WriteStreamerInfoEv
}
{
   <insert_a_suppression_name_here>
   Memcheck:Leak
   match-leak-kinds: possible
   fun:malloc
   fun:_Znwm
   fun:_ZN6TClass13BuildRealDataEPvb
   fun:_ZN11TBufferFile16WriteClassBufferEPK6TClassPv
   fun:_ZN11TBufferFile16WriteObjectClassEPKvPK6TClass
   fun:_ZN11TBufferFile14WriteObjectAnyEPKvPK6TClass
   fun:_ZN5TList8StreamerER7TBuffer
   fun:_ZN11TBufferFile16WriteObjectClassEPKvPK6TClass
   fun:_ZN11TBufferFile14WriteObjectAnyEPKvPK6TClass
   fun:_ZN5TList8StreamerER7TBuffer
   fun:_ZN4TKeyC2EPK7TObjectPKciP10TDirectory
   fun:_ZN5TFile17WriteStreamerInfoEv
}
{
   <insert_a_suppression_name_here>
   Memcheck:Leak
   match-leak-kinds: possible
   fun:malloc
   fun:_Znwm
   fun:_ZN5TCint23CreateListOfDataMembersEP6TClass
   fun:_ZN6TClass20GetListOfDataMembersEv
   fun:_ZNK6TClass13GetDataMemberEPKc
   fun:_ZN14TBuildRealData7InspectEP6TClassPKcS3_PKv
   fun:_ZN10TObjString11ShowMembersER16TMemberInspector
   fun:_ZNK6TClass15CallShowMembersEPvR16TMemberInspectori
   fun:_ZN6TClass13BuildRealDataEPvb
   fun:_ZN11TBufferFile16WriteClassBufferEPK6TClassPv
   fun:_ZN11TBufferFile16WriteObjectClassEPKvPK6TClass
   fun:_ZN11TBufferFile14WriteObjectAnyEPKvPK6TClass
}
{
   <insert_a_suppression_name_here>
   Memcheck:Leak
   match-leak-kinds: definite
   fun:malloc
   fun:_Znwm
   fun:_ZN12TApplicationC2EPKcPiPPcPvi
   fun:main
}
{
   <insert_a_suppression_name_here>
   Memcheck:Leak
   match-leak-kinds: definite
   fun:malloc
   fun:_Znwm
   fun:G__get_linked_tagnum_fwd
   fun:G__cpp_setup_tagtableManualBase4
   fun:G__cpp_setupManualBase4
   fun:G__call_setup_funcs
   fun:G__main
   fun:G__init_cint
   fun:_ZN5TCint8ResetAllEv
   fun:_ZN5TCintC2EPKcS1_
   fun:_ZN5TROOTC2EPKcS1_PPFvvE
   fun:_GLOBAL__I_a
}
{
   <insert_a_suppression_name_here>
   Memcheck:Leak
   match-leak-kinds: definite
   fun:malloc
   fun:_Znwm
   fun:G__get_linked_tagnum_fwd
   fun:G__cpp_setup_tagtableG__Unix
   fun:G__cpp_setupG__Unix
   fun:G__call_setup_funcs
   fun:_ZN24G__cpp_setup_initG__UnixC2Ev
   fun:_ZN24G__cpp_setup_initG__UnixC1Ev
   fun:__cxx_global_var_init51
   fun:_GLOBAL__I_a
   fun:_ZN16ImageLoaderMachO18doModInitFunctionsERKN11ImageLoader11LinkContextE
   fun:_ZN16ImageLoaderMachO16doInitializationERKN11ImageLoader11LinkContextE
}
{
   <insert_a_suppression_name_here>
   Memcheck:Leak
   match-leak-kinds: definite
   fun:malloc
   fun:_Znwm
   fun:G__get_linked_tagnum_fwd
   fun:G__cpp_setup_tagtableG__PostScript
   fun:G__cpp_setupG__PostScript
   fun:G__call_setup_funcs
   fun:_ZN30G__cpp_setup_initG__PostScriptC2Ev
   fun:_ZN30G__cpp_setup_initG__PostScriptC1Ev
   fun:__cxx_global_var_init131
   fun:_GLOBAL__I_a
   fun:_ZN16ImageLoaderMachO18doModInitFunctionsERKN11ImageLoader11LinkContextE
   fun:_ZN16ImageLoaderMachO16doInitializationERKN11ImageLoader11LinkContextE
}
{
   <insert_a_suppression_name_here>
   Memcheck:Leak
   match-leak-kinds: definite
   fun:malloc
   fun:_Znwm
   fun:G__get_linked_tagnum_fwd
   fun:G__cpp_setup_tagtable
   fun:G__shl_load
   fun:G__loadfile
   fun:G__loadsystemfile
   fun:_ZN5TCint4LoadEPKcb
   fun:_ZN7TSystem4LoadEPKcS1_b
   fun:_ZN7TSystem4LoadEPKcS1_b
   fun:_ZN5TROOT9LoadClassEPKcS1_b
   fun:_ZN5TCint16AutoLoadCallbackEPKcS1_
}
{
   <insert_a_suppression_name_here>
   Memcheck:Leak
   match-leak-kinds: definite
   fun:malloc
   fun:_Znwm
   fun:G__get_linked_tagnum_fwd
   fun:G__cpp_setup_tagtable
   fun:G__shl_load
   fun:G__loadfile
   fun:G__loadsystemfile
   fun:_ZN5TCint4LoadEPKcb
   fun:_ZN7TSystem4LoadEPKcS1_b
   fun:_ZN5TROOT9LoadClassEPKcS1_b
   fun:_ZN5TCint16AutoLoadCallbackEPKcS1_
   fun:TCint_AutoLoadCallback
}
{
   <insert_a_suppression_name_here>
   Memcheck:Leak
   match-leak-kinds: definite
   fun:malloc
   fun:G__search_tagname
   fun:G__define_struct
   fun:G__exec_statement
   fun:G__loadfile
   fun:G__include_file
   fun:G__exec_statement
   fun:G__exec_tempfile_core
   fun:G__exec_tempfile_fp
   fun:G__process_cmd
   fun:_ZN5TCint11ProcessLineEPKcPN12TInterpreter10EErrorCodeE
   fun:_ZN5TCintC2EPKcS1_
}
{
   <insert_a_suppression_name_here>
   Memcheck:Leak
   match-leak-kinds: possible
   fun:malloc
   fun:_Znwm
   fun:_ZNSs9_M_mutateEmmm
   fun:_ZNSs15_M_replace_safeEmmPKcm
   fun:_ZN9TClassRef6AssignEP6TClass
   fun:_ZN10TBaseClass15GetClassPointerEb
   fun:_ZN6TClass25GetBaseClassOffsetRecurseEPKS_
   fun:_ZN6TClass18GetBaseClassOffsetEPKS_
   fun:_ZN11TBufferFile14WriteObjectAnyEPKvPK6TClass
   fun:_ZN9TObjArray8StreamerER7TBuffer
   fun:_ZN11TBufferFile14WriteFastArrayEPvPK6TClassiP15TMemberStreamer
   fun:_ZN13TStreamerInfo14WriteBufferAuxIPPcEEiR7TBufferRKT_iiii
}
{
   <insert_a_suppression_name_here>
   Memcheck:Leak
   match-leak-kinds: possible
   fun:malloc
   fun:_Znwm
   fun:_ZN16TStreamerElementC2EPKcS1_iiS1_
   fun:_ZN18TStreamerBasicTypeC1EPKcS1_iiS1_
   fun:_ZN13TStreamerInfo5BuildEv
   fun:_ZN11TBufferFile16WriteClassBufferEPK6TClassPv
   fun:_ZN13TStreamerBase8StreamerER7TBuffer
   fun:_ZN11TBufferFile16WriteObjectClassEPKvPK6TClass
   fun:_ZN11TBufferFile14WriteObjectAnyEPKvPK6TClass
   fun:_ZN9TObjArray8StreamerER7TBuffer
   fun:_ZN11TBufferFile16WriteObjectClassEPKvPK6TClass
   fun:_ZN11TBufferFile14WriteObjectAnyEPKvPK6TClass
}
{
   <insert_a_suppression_name_here>
   Memcheck:Leak
   match-leak-kinds: possible
   fun:malloc
   fun:_Znwm
   fun:_ZNSt6vectorIN20TStreamerInfoActions17TConfiguredActionESaIS1_EE7reserveEm
   fun:_ZN20TStreamerInfoActions15TActionSequenceC2EP20TVirtualStreamerInfoj
   fun:_ZN13TStreamerInfo7CompileEv
   fun:_ZN13TStreamerInfo5BuildEv
   fun:_ZN11TBufferFile16WriteClassBufferEPK6TClassPv
   fun:_ZN12TStreamerSTL8StreamerER7TBuffer
   fun:_ZN11TBufferFile16WriteObjectClassEPKvPK6TClass
   fun:_ZN11TBufferFile14WriteObjectAnyEPKvPK6TClass
   fun:_ZN9TObjArray8StreamerER7TBuffer
   fun:_ZN11TBufferFile16WriteObjectClassEPKvPK6TClass
}
{
   <insert_a_suppression_name_here>
   Memcheck:Leak
   match-leak-kinds: possible
   fun:malloc
   fun:_Znwm
   fun:_ZN16TStreamerElementC2EPKcS1_iiS1_
   fun:_ZN15TStreamerStringC1EPKcS1_i
   fun:_ZN13TStreamerInfo5BuildEv
   fun:_ZN11TBufferFile16WriteClassBufferEPK6TClassPv
   fun:_ZN21TStreamerBasicPointer8StreamerER7TBuffer
   fun:_ZN11TBufferFile16WriteObjectClassEPKvPK6TClass
   fun:_ZN11TBufferFile14WriteObjectAnyEPKvPK6TClass
   fun:_ZN9TObjArray8StreamerER7TBuffer
   fun:_ZN11TBufferFile16WriteObjectClassEPKvPK6TClass
   fun:_ZN11TBufferFile14WriteObjectAnyEPKvPK6TClass
}
{
   <insert_a_suppression_name_here>
   Memcheck:Leak
   match-leak-kinds: possible
   fun:malloc
   fun:_Znwm
   fun:_ZN13TStreamerInfo5BuildEv
   fun:_ZN11TBufferFile16WriteClassBufferEPK6TClassPv
   fun:_ZN18TStreamerBasicType8StreamerER7TBuffer
   fun:_ZN11TBufferFile16WriteObjectClassEPKvPK6TClass
   fun:_ZN11TBufferFile14WriteObjectAnyEPKvPK6TClass
   fun:_ZN9TObjArray8StreamerER7TBuffer
   fun:_ZN11TBufferFile16WriteObjectClassEPKvPK6TClass
   fun:_ZN11TBufferFile14WriteObjectAnyEPKvPK6TClass
   fun:_ZN13TStreamerInfo8StreamerER7TBuffer
   fun:_ZN11TBufferFile16WriteObjectClassEPKvPK6TClass
}
{
   <insert_a_suppression_name_here>
   Memcheck:Leak
   match-leak-kinds: possible
   fun:malloc
   fun:_Znwm
   fun:_ZN13TStreamerInfo5BuildEv
   fun:_ZN11TBufferFile16WriteClassBufferEPK6TClassPv
   fun:_ZN15TStreamerObject8StreamerER7TBuffer
   fun:_ZN11TBufferFile16WriteObjectClassEPKvPK6TClass
   fun:_ZN11TBufferFile14WriteObjectAnyEPKvPK6TClass
   fun:_ZN9TObjArray8StreamerER7TBuffer
   fun:_ZN11TBufferFile16WriteObjectClassEPKvPK6TClass
   fun:_ZN11TBufferFile14WriteObjectAnyEPKvPK6TClass
   fun:_ZN13TStreamerInfo8StreamerER7TBuffer
   fun:_ZN11TBufferFile16WriteObjectClassEPKvPK6TClass
}
{
   <insert_a_suppression_name_here>
   Memcheck:Leak
   match-leak-kinds: possible
   fun:malloc
   fun:_Znwm
   fun:_ZN13TStreamerInfo5BuildEv
   fun:_ZN11TBufferFile16WriteClassBufferEPK6TClassPv
   fun:_ZN22TStreamerObjectPointer8StreamerER7TBuffer
   fun:_ZN11TBufferFile16WriteObjectClassEPKvPK6TClass
   fun:_ZN11TBufferFile14WriteObjectAnyEPKvPK6TClass
   fun:_ZN9TObjArray8StreamerER7TBuffer
   fun:_ZN11TBufferFile16WriteObjectClassEPKvPK6TClass
   fun:_ZN11TBufferFile14WriteObjectAnyEPKvPK6TClass
   fun:_ZN13TStreamerInfo8StreamerER7TBuffer
   fun:_ZN11TBufferFile16WriteObjectClassEPKvPK6TClass
}
{
   <insert_a_suppression_name_here>
   Memcheck:Leak
   match-leak-kinds: possible
   fun:malloc
   fun:_Znwm
   fun:_ZN13TStreamerInfo5BuildEv
   fun:_ZN11TBufferFile16WriteClassBufferEPK6TClassPv
   fun:_ZN18TStreamerObjectAny8StreamerER7TBuffer
   fun:_ZN11TBufferFile16WriteObjectClassEPKvPK6TClass
   fun:_ZN11TBufferFile14WriteObjectAnyEPKvPK6TClass
   fun:_ZN9TObjArray8StreamerER7TBuffer
   fun:_ZN11TBufferFile16WriteObjectClassEPKvPK6TClass
   fun:_ZN11TBufferFile14WriteObjectAnyEPKvPK6TClass
   fun:_ZN13TStreamerInfo8StreamerER7TBuffer
   fun:_ZN11TBufferFile16WriteObjectClassEPKvPK6TClass
}
{
   <insert_a_suppression_name_here>
   Memcheck:Leak
   match-leak-kinds: possible
   fun:malloc
   fun:_Znwm
   fun:_ZN13TStreamerInfo5BuildEv
   fun:_ZN11TBufferFile16WriteClassBufferEPK6TClassPv
   fun:_ZN15TStreamerString8StreamerER7TBuffer
   fun:_ZN11TBufferFile16WriteObjectClassEPKvPK6TClass
   fun:_ZN11TBufferFile14WriteObjectAnyEPKvPK6TClass
   fun:_ZN9TObjArray8StreamerER7TBuffer
   fun:_ZN11TBufferFile16WriteObjectClassEPKvPK6TClass
   fun:_ZN11TBufferFile14WriteObjectAnyEPKvPK6TClass
   fun:_ZN13TStreamerInfo8StreamerER7TBuffer
   fun:_ZN11TBufferFile16WriteObjectClassEPKvPK6TClass
}
{
   <insert_a_suppression_name_here>
   Memcheck:Leak
   match-leak-kinds: possible
   fun:malloc
   fun:_Znwm
   fun:_ZNSs9_M_mutateEmmm
   fun:_ZNSs15_M_replace_safeEmmPKcm
   fun:_ZN9TClassRef6AssignEP6TClass
   fun:_ZN10TBaseClass15GetClassPointerEb
   fun:_ZN6TClass12GetBaseClassEPKS_
   fun:_ZNK6TClass12InheritsFromEPKS_
   fun:_ZN14TBuildRealData7InspectEP6TClassPKcS3_PKv
   fun:_ZN9TObjArray11ShowMembersER16TMemberInspector
   fun:_ZN16TMemberInspector13InspectMemberI9TObjArrayEEvRT_PKc
   fun:_ZN5TTree11ShowMembersER16TMemberInspector
}
{
   <insert_a_suppression_name_here>
   Memcheck:Leak
   match-leak-kinds: possible
   fun:malloc
   fun:_Znwm
   fun:_ZN14TBranchElement6UnrollEPKcP6TClassS3_Pciii
   fun:_ZN14TBranchElement4InitEP5TTreeP7TBranchPKcP13TStreamerInfoiPciii
   fun:_ZN14TBranchElementC2EP7TBranchPKcP13TStreamerInfoiPciii
   fun:_ZN5TTree10BronchExecEPKcS1_Pvbii
   fun:_ZN19MidasEventProcessorC1EP5TFileP5TTreeP8Settings
   obj:*
}
{
   <insert_a_suppression_name_here>
   Memcheck:Leak
   match-leak-kinds: possible
   fun:malloc
   fun:_Znwm
   fun:_ZN14TBranchElement6UnrollEPKcP6TClassS3_Pciii
   fun:_ZN14TBranchElement6UnrollEPKcP6TClassS3_Pciii
   fun:_ZN14TBranchElement4InitEP5TTreeP7TBranchPKcP13TStreamerInfoiPciii
   fun:_ZN14TBranchElementC2EP7TBranchPKcP13TStreamerInfoiPciii
   fun:_ZN5TTree10BronchExecEPKcS1_Pvbii
   fun:_ZN19MidasEventProcessorC1EP5TFileP5TTreeP8Settings
   obj:*
}
{
   <insert_a_suppression_name_here>
   Memcheck:Leak
   match-leak-kinds: possible
   fun:malloc
   fun:_Znwm
   fun:_ZN13TStreamerInfo5BuildEv
   fun:_ZN11TBufferFile16WriteClassBufferEPK6TClassPv
   fun:_ZN10TBranchRef8StreamerER7TBuffer
   fun:_ZN11TBufferFile16WriteObjectClassEPKvPK6TClass
   fun:_ZN11TBufferFile14WriteObjectAnyEPKvPK6TClass
   fun:_ZN11TBufferFile14WriteFastArrayEPPvPK6TClassibP15TMemberStreamer
   fun:_ZN13TStreamerInfo14WriteBufferAuxIPPcEEiR7TBufferRKT_iiii
   fun:_ZN20TStreamerInfoActions18GenericWriteActionER7TBufferPvPKNS_14TConfigurationE
   fun:_ZN11TBufferFile13ApplySequenceERKN20TStreamerInfoActions15TActionSequenceEPv
   fun:_ZN11TBufferFile16WriteClassBufferEPK6TClassPv
}
{
   <insert_a_suppression_name_here>
   Memcheck:Leak
   match-leak-kinds: possible
   fun:malloc
   fun:_Znwm
   fun:_ZN9TObjArrayC2Eii
   fun:_ZN6TClass4InitEPKcsPKSt9type_infoP16TVirtualIsAProxyPFvPvR16TMemberInspectorES1_S1_iib
   fun:_ZN6TClassC2EPKcsRKSt9type_infoP16TVirtualIsAProxyPFvPvR16TMemberInspectorES1_S1_iib
   fun:_ZN4ROOT11CreateClassEPKcsRKSt9type_infoP16TVirtualIsAProxyPFvPvR16TMemberInspectorES1_S1_ii
   fun:_ZNK4ROOT20TDefaultInitBehavior11CreateClassEPKcsRKSt9type_infoP16TVirtualIsAProxyPFvPvR16TMemberInspectorES2_S2_ii
   fun:_ZN4ROOT17TGenericClassInfo8GetClassEv
   fun:_ZN10TObjString5ClassEv
   fun:_ZNK6TClass14GetActualClassEPKv
   fun:_ZN11TBufferFile14WriteObjectAnyEPKvPK6TClass
   fun:_ZN5TList8StreamerER7TBuffer
}
{
   <insert_a_suppression_name_here>
   Memcheck:Leak
   match-leak-kinds: definite
   fun:malloc
   fun:_owned_ptr_alloc
   fun:setenv
   fun:_ZL10DylibAddedPK11mach_headerl
   fun:_ZN4dyld19registerAddCallbackEPFvPK11mach_headerlE
   fun:_dyld_register_func_for_add_image
   fun:_ZN11TUnixSystem4InitEv
   fun:_ZN5TROOT10InitSystemEv
   fun:_ZN5TROOTC2EPKcS1_PPFvvE
   fun:_GLOBAL__I_a
   fun:_ZN16ImageLoaderMachO18doModInitFunctionsERKN11ImageLoader11LinkContextE
   fun:_ZN16ImageLoaderMachO16doInitializationERKN11ImageLoader11LinkContextE
}
{
   <insert_a_suppression_name_here>
   Memcheck:Leak
   match-leak-kinds: possible
   fun:malloc
   fun:_Znwm
   fun:_ZN5TCint17UpdateListOfTypesEv
   fun:_ZN12TApplicationC2EPKcPiPPcPvi
   fun:main
}
{
   <insert_a_suppression_name_here>
   Memcheck:Leak
   match-leak-kinds: possible
   fun:malloc
   fun:_Znwm
   fun:_ZN9TObjArrayC2Eii
   fun:_ZN6TClass4InitEPKcsPKSt9type_infoP16TVirtualIsAProxyPFvPvR16TMemberInspectorES1_S1_iib
   fun:_ZN6TClassC2EPKcsRKSt9type_infoP16TVirtualIsAProxyPFvPvR16TMemberInspectorES1_S1_iib
   fun:_ZN4ROOT11CreateClassEPKcsRKSt9type_infoP16TVirtualIsAProxyPFvPvR16TMemberInspectorES1_S1_ii
   fun:_ZNK4ROOT20TDefaultInitBehavior11CreateClassEPKcsRKSt9type_infoP16TVirtualIsAProxyPFvPvR16TMemberInspectorES2_S2_ii
   fun:_ZN4ROOT17TGenericClassInfo8GetClassEv
   fun:_ZN21TStreamerBasicPointer5ClassEv
   fun:_ZN14TBranchElement4InitEP5TTreeP7TBranchPKcP13TStreamerInfoiPciii
   fun:_ZN14TBranchElementC2EP7TBranchPKcP13TStreamerInfoiPciii
   fun:_ZN5TTree10BronchExecEPKcS1_Pvbii
}
{
   <insert_a_suppression_name_here>
   Memcheck:Leak
   match-leak-kinds: possible
   fun:malloc
   fun:_Znwm
   fun:_ZN9TObjArrayC2Eii
   fun:_ZN6TClass4InitEPKcsPKSt9type_infoP16TVirtualIsAProxyPFvPvR16TMemberInspectorES1_S1_iib
   fun:_ZN6TClassC2EPKcsRKSt9type_infoP16TVirtualIsAProxyPFvPvR16TMemberInspectorES1_S1_iib
   fun:_ZN4ROOT11CreateClassEPKcsRKSt9type_infoP16TVirtualIsAProxyPFvPvR16TMemberInspectorES1_S1_ii
   fun:_ZNK4ROOT20TDefaultInitBehavior11CreateClassEPKcsRKSt9type_infoP16TVirtualIsAProxyPFvPvR16TMemberInspectorES2_S2_ii
   fun:_ZN4ROOT17TGenericClassInfo8GetClassEv
   fun:_ZN18TStreamerBasicType5ClassEv
   fun:_ZN14TBranchElement6UnrollEPKcP6TClassS3_Pciii
   fun:_ZN14TBranchElement4InitEP5TTreeP7TBranchPKcP13TStreamerInfoiPciii
   fun:_ZN14TBranchElementC2EP7TBranchPKcP13TStreamerInfoiPciii
}
{
   <insert_a_suppression_name_here>
   Memcheck:Leak
   match-leak-kinds: possible
   fun:malloc
   fun:_Znwm
   fun:_ZN9TObjArrayC2Eii
   fun:_ZN6TClass4InitEPKcsPKSt9type_infoP16TVirtualIsAProxyPFvPvR16TMemberInspectorES1_S1_iib
   fun:_ZN6TClassC2EPKcsRKSt9type_infoP16TVirtualIsAProxyPFvPvR16TMemberInspectorES1_S1_iib
   fun:_ZN4ROOT11CreateClassEPKcsRKSt9type_infoP16TVirtualIsAProxyPFvPvR16TMemberInspectorES1_S1_ii
   fun:_ZNK4ROOT20TDefaultInitBehavior11CreateClassEPKcsRKSt9type_infoP16TVirtualIsAProxyPFvPvR16TMemberInspectorES2_S2_ii
   fun:_ZN4ROOT17TGenericClassInfo8GetClassEv
   fun:_ZN15TStreamerObject5ClassEv
   fun:_ZN14TBranchElement6UnrollEPKcP6TClassS3_Pciii
   fun:_ZN14TBranchElement4InitEP5TTreeP7TBranchPKcP13TStreamerInfoiPciii
   fun:_ZN14TBranchElementC2EP7TBranchPKcP13TStreamerInfoiPciii
}
{
   <insert_a_suppression_name_here>
   Memcheck:Leak
   match-leak-kinds: possible
   fun:malloc
   fun:_Znwm
   fun:_ZN9TObjArrayC2Eii
   fun:_ZN6TClass4InitEPKcsPKSt9type_infoP16TVirtualIsAProxyPFvPvR16TMemberInspectorES1_S1_iib
   fun:_ZN6TClassC2EPKcsRKSt9type_infoP16TVirtualIsAProxyPFvPvR16TMemberInspectorES1_S1_iib
   fun:_ZN4ROOT11CreateClassEPKcsRKSt9type_infoP16TVirtualIsAProxyPFvPvR16TMemberInspectorES1_S1_ii
   fun:_ZNK4ROOT20TDefaultInitBehavior11CreateClassEPKcsRKSt9type_infoP16TVirtualIsAProxyPFvPvR16TMemberInspectorES2_S2_ii
   fun:_ZN4ROOT17TGenericClassInfo8GetClassEv
   fun:_ZN18TStreamerObjectAny5ClassEv
   fun:_ZN14TBranchElement6UnrollEPKcP6TClassS3_Pciii
   fun:_ZN14TBranchElement4InitEP5TTreeP7TBranchPKcP13TStreamerInfoiPciii
   fun:_ZN14TBranchElementC2EP7TBranchPKcP13TStreamerInfoiPciii
}
{
   <insert_a_suppression_name_here>
   Memcheck:Leak
   match-leak-kinds: possible
   fun:malloc
   fun:_Znwm
   fun:_ZN9TObjArrayC2Eii
   fun:_ZN6TClass4InitEPKcsPKSt9type_infoP16TVirtualIsAProxyPFvPvR16TMemberInspectorES1_S1_iib
   fun:_ZN6TClassC2EPKcsRKSt9type_infoP16TVirtualIsAProxyPFvPvR16TMemberInspectorES1_S1_iib
   fun:_ZN4ROOT11CreateClassEPKcsRKSt9type_infoP16TVirtualIsAProxyPFvPvR16TMemberInspectorES1_S1_ii
   fun:_ZNK4ROOT20TDefaultInitBehavior11CreateClassEPKcsRKSt9type_infoP16TVirtualIsAProxyPFvPvR16TMemberInspectorES2_S2_ii
   fun:_ZN4ROOT17TGenericClassInfo8GetClassEv
   fun:_ZN22TStreamerObjectPointer5ClassEv
   fun:_ZN13TStreamerInfo8StreamerER7TBuffer
   fun:_ZN11TBufferFile16WriteObjectClassEPKvPK6TClass
   fun:_ZN11TBufferFile14WriteObjectAnyEPKvPK6TClass
}
{
   <insert_a_suppression_name_here>
   Memcheck:Leak
   match-leak-kinds: possible
   fun:malloc
   fun:_Znwm
   fun:_ZN9TObjArrayC2Eii
   fun:_ZN6TClass4InitEPKcsPKSt9type_infoP16TVirtualIsAProxyPFvPvR16TMemberInspectorES1_S1_iib
   fun:_ZN6TClassC2EPKcsRKSt9type_infoP16TVirtualIsAProxyPFvPvR16TMemberInspectorES1_S1_iib
   fun:_ZN4ROOT11CreateClassEPKcsRKSt9type_infoP16TVirtualIsAProxyPFvPvR16TMemberInspectorES1_S1_ii
   fun:_ZNK4ROOT20TDefaultInitBehavior11CreateClassEPKcsRKSt9type_infoP16TVirtualIsAProxyPFvPvR16TMemberInspectorES2_S2_ii
   fun:_ZN4ROOT17TGenericClassInfo8GetClassEv
   fun:_ZN15TStreamerString5ClassEv
   fun:_ZN13TStreamerInfo8StreamerER7TBuffer
   fun:_ZN11TBufferFile16WriteObjectClassEPKvPK6TClass
   fun:_ZN11TBufferFile14WriteObjectAnyEPKvPK6TClass
}
{
   <insert_a_suppression_name_here>
   Memcheck:Leak
   match-leak-kinds: definite
   fun:malloc
   fun:ConnectToServer
   fun:DNSServiceCreateConnection
   fun:_mdns_search
   fun:mdns_hostbyname
   fun:search_host_byname
   fun:gethostbyname
   fun:_ZN11TUnixSystem13GetHostByNameEPKc
   fun:_ZN5TUUID17GetNodeIdentifierEv
   fun:_ZN5TUUIDC2Ev
   fun:_ZN10TProcessID12AddProcessIDEv
   fun:_ZN5TROOTC2EPKcS1_PPFvvE
}
{
   <insert_a_suppression_name_here>
   Memcheck:Leak
   match-leak-kinds: definite
   fun:malloc
   fun:G__search_tagname
   fun:G__get_linked_tagnum_fwd
   fun:G__cpp_setup_tagtableG__Unix
   fun:G__cpp_setupG__Unix
   fun:G__call_setup_funcs
   fun:_ZN24G__cpp_setup_initG__UnixC2Ev
   fun:_ZN24G__cpp_setup_initG__UnixC1Ev
   fun:__cxx_global_var_init51
   fun:_GLOBAL__I_a
   fun:_ZN16ImageLoaderMachO18doModInitFunctionsERKN11ImageLoader11LinkContextE
   fun:_ZN16ImageLoaderMachO16doInitializationERKN11ImageLoader11LinkContextE
}
{
   <insert_a_suppression_name_here>
   Memcheck:Leak
   match-leak-kinds: possible
   fun:malloc
   fun:_Znwm
   fun:_ZNSs9_M_mutateEmmm
   fun:_ZNSs15_M_replace_safeEmmPKcm
   fun:_ZN9TClassRefC1EP6TClass
   fun:_ZN19TGenCollectionProxyC2ERKN4ROOT20TCollectionProxyInfoEP6TClass
   fun:_ZN23TCollectionProxyFactory16GenExplicitProxyERKN4ROOT20TCollectionProxyInfoEP6TClass
   fun:_ZN6TClass18SetCollectionProxyERKN4ROOT20TCollectionProxyInfoE
   fun:_ZN4ROOT17TGenericClassInfo8GetClassEv
   fun:_ZNK5TROOT9LoadClassEPKcb
   fun:_ZN6TClass8GetClassEPKcbb
   fun:_ZN14TBuildRealData7InspectEP6TClassPKcS3_PKv
}
{
   <insert_a_suppression_name_here>
   Memcheck:Leak
   match-leak-kinds: possible
   fun:malloc
   fun:_Znwm
   fun:_ZNSs9_M_mutateEmmm
   fun:_ZNSs15_M_replace_safeEmmPKcm
   fun:_ZN9TClassRefC1EP6TClass
   fun:_ZN19TGenCollectionProxyC2ERKN4ROOT20TCollectionProxyInfoEP6TClass
   fun:_ZN22TGenCollectionStreamerC1ERKN4ROOT20TCollectionProxyInfoEP6TClass
   fun:_ZN23TCollectionProxyFactory24GenExplicitClassStreamerERKN4ROOT20TCollectionProxyInfoEP6TClass
   fun:_ZN6TClass18SetCollectionProxyERKN4ROOT20TCollectionProxyInfoE
   fun:_ZN4ROOT17TGenericClassInfo8GetClassEv
   fun:_ZNK5TROOT9LoadClassEPKcb
   fun:_ZN6TClass8GetClassEPKcbb
}
{
   <insert_a_suppression_name_here>
   Memcheck:Leak
   match-leak-kinds: possible
   fun:malloc
   fun:_Znwm
   fun:_ZNSs9_M_mutateEmmm
   fun:_ZNSs15_M_replace_safeEmmPKcm
   fun:_ZN19TGenCollectionProxyC2ERKN4ROOT20TCollectionProxyInfoEP6TClass
   fun:_ZN22TGenCollectionStreamerC1ERKN4ROOT20TCollectionProxyInfoEP6TClass
   fun:_ZN23TCollectionProxyFactory24GenExplicitClassStreamerERKN4ROOT20TCollectionProxyInfoEP6TClass
   fun:_ZN6TClass18SetCollectionProxyERKN4ROOT20TCollectionProxyInfoE
   fun:_ZN4ROOT17TGenericClassInfo8GetClassEv
   fun:_ZNK5TROOT9LoadClassEPKcb
   fun:_ZN6TClass8GetClassEPKcbb
   fun:_ZN14TBuildRealData7InspectEP6TClassPKcS3_PKv
}
{
   <insert_a_suppression_name_here>
   Memcheck:Leak
   match-leak-kinds: possible
   fun:malloc
   fun:_Znwm
   fun:_ZN9TObjArrayC2Eii
   fun:_ZN6TClass4InitEPKcsPKSt9type_infoP16TVirtualIsAProxyPFvPvR16TMemberInspectorES1_S1_iib
   fun:_ZN6TClassC2EPKcsRKSt9type_infoP16TVirtualIsAProxyPFvPvR16TMemberInspectorES1_S1_iib
   fun:_ZN4ROOT11CreateClassEPKcsRKSt9type_infoP16TVirtualIsAProxyPFvPvR16TMemberInspectorES1_S1_ii
   fun:_ZNK4ROOT20TDefaultInitBehavior11CreateClassEPKcsRKSt9type_infoP16TVirtualIsAProxyPFvPvR16TMemberInspectorES2_S2_ii
   fun:_ZN4ROOT17TGenericClassInfo8GetClassEv
   fun:_ZN12TStreamerSTL5ClassEv
   fun:_ZNK6TClass12InheritsFromEPKS_
   fun:_ZNK6TClass8PropertyEv
   fun:_ZN14TBuildRealData7InspectEP6TClassPKcS3_PKv
}
{
   <insert_a_suppression_name_here>
   Memcheck:Leak
   match-leak-kinds: possible
   fun:malloc
   fun:_Znwm
   fun:_ZN9TObjArrayC2Eii
   fun:_ZN6TClass4InitEPKcsPKSt9type_infoP16TVirtualIsAProxyPFvPvR16TMemberInspectorES1_S1_iib
   fun:_ZN6TClassC2EPKcsRKSt9type_infoP16TVirtualIsAProxyPFvPvR16TMemberInspectorES1_S1_iib
   fun:_ZN4ROOT11CreateClassEPKcsRKSt9type_infoP16TVirtualIsAProxyPFvPvR16TMemberInspectorES1_S1_ii
   fun:_ZNK4ROOT20TDefaultInitBehavior11CreateClassEPKcsRKSt9type_infoP16TVirtualIsAProxyPFvPvR16TMemberInspectorES2_S2_ii
   fun:_ZN4ROOT17TGenericClassInfo8GetClassEv
   fun:_ZN13TStreamerBase5ClassEv
   fun:_ZNK6TClass12InheritsFromEPKS_
   fun:_ZNK6TClass8PropertyEv
   fun:_ZN14TBuildRealData7InspectEP6TClassPKcS3_PKv
}
{
   <insert_a_suppression_name_here>
   Memcheck:Leak
   match-leak-kinds: possible
   fun:malloc
   fun:_Znwm
   fun:_ZN9TObjArrayC2Eii
   fun:_ZN6TClass4InitEPKcsPKSt9type_infoP16TVirtualIsAProxyPFvPvR16TMemberInspectorES1_S1_iib
   fun:_ZN6TClassC2EPKcsRKSt9type_infoP16TVirtualIsAProxyPFvPvR16TMemberInspectorES1_S1_iib
   fun:_ZN4ROOT11CreateClassEPKcsRKSt9type_infoP16TVirtualIsAProxyPFvPvR16TMemberInspectorES1_S1_ii
   fun:_ZNK4ROOT20TDefaultInitBehavior11CreateClassEPKcsRKSt9type_infoP16TVirtualIsAProxyPFvPvR16TMemberInspectorES2_S2_ii
   fun:_ZN4ROOT17TGenericClassInfo8GetClassEv
   fun:_ZN16TStreamerElement5ClassEv
   fun:_ZN13TStreamerInfo5BuildEv
   fun:_ZNK6TClass15GetStreamerInfoEi
   fun:_ZN5TTree17BuildStreamerInfoEP6TClassPvb
}
{
   <insert_a_suppression_name_here>
   Memcheck:Leak
   match-leak-kinds: possible
   fun:malloc
   fun:_Znwm
   fun:_ZN9TObjArrayC2Eii
   fun:_ZN13TStreamerInfoC2EP6TClass
   fun:_ZN11TBufferFile16WriteClassBufferEPK6TClassPv
   fun:_ZN13TStreamerBase8StreamerER7TBuffer
   fun:_ZN11TBufferFile16WriteObjectClassEPKvPK6TClass
   fun:_ZN11TBufferFile14WriteObjectAnyEPKvPK6TClass
   fun:_ZN9TObjArray8StreamerER7TBuffer
   fun:_ZN11TBufferFile16WriteObjectClassEPKvPK6TClass
   fun:_ZN11TBufferFile14WriteObjectAnyEPKvPK6TClass
   fun:_ZN13TStreamerInfo8StreamerER7TBuffer
}
{
   <insert_a_suppression_name_here>
   Memcheck:Leak
   match-leak-kinds: possible
   fun:malloc
   fun:_Znwm
   fun:_ZN9TObjArrayC2Eii
   fun:_ZN13TStreamerInfoC2EP6TClass
   fun:_ZN13TStreamerInfo7NewInfoEP6TClass
   fun:_ZNK6TClass15GetStreamerInfoEi
   fun:_ZN13TStreamerInfo5BuildEv
   fun:_ZN11TBufferFile16WriteClassBufferEPK6TClassPv
   fun:_ZN13TStreamerBase8StreamerER7TBuffer
   fun:_ZN11TBufferFile16WriteObjectClassEPKvPK6TClass
   fun:_ZN11TBufferFile14WriteObjectAnyEPKvPK6TClass
   fun:_ZN9TObjArray8StreamerER7TBuffer
}
{
   <insert_a_suppression_name_here>
   Memcheck:Leak
   match-leak-kinds: possible
   fun:malloc
   fun:_Znwm
   fun:_ZN9TObjArrayC2Eii
   fun:_ZN13TStreamerInfoC2EP6TClass
   fun:_ZN11TBufferFile16WriteClassBufferEPK6TClassPv
   fun:_ZN12TStreamerSTL8StreamerER7TBuffer
   fun:_ZN11TBufferFile16WriteObjectClassEPKvPK6TClass
   fun:_ZN11TBufferFile14WriteObjectAnyEPKvPK6TClass
   fun:_ZN9TObjArray8StreamerER7TBuffer
   fun:_ZN11TBufferFile16WriteObjectClassEPKvPK6TClass
   fun:_ZN11TBufferFile14WriteObjectAnyEPKvPK6TClass
   fun:_ZN13TStreamerInfo8StreamerER7TBuffer
}
{
   <insert_a_suppression_name_here>
   Memcheck:Leak
   match-leak-kinds: possible
   fun:malloc
   fun:_Znwm
   fun:_ZN9TObjArrayC2Eii
   fun:_ZN13TStreamerInfoC2EP6TClass
   fun:_ZN11TBufferFile16WriteClassBufferEPK6TClassPv
   fun:_ZN18TStreamerBasicType8StreamerER7TBuffer
   fun:_ZN11TBufferFile16WriteObjectClassEPKvPK6TClass
   fun:_ZN11TBufferFile14WriteObjectAnyEPKvPK6TClass
   fun:_ZN9TObjArray8StreamerER7TBuffer
   fun:_ZN11TBufferFile16WriteObjectClassEPKvPK6TClass
   fun:_ZN11TBufferFile14WriteObjectAnyEPKvPK6TClass
   fun:_ZN13TStreamerInfo8StreamerER7TBuffer
}
{
   <insert_a_suppression_name_here>
   Memcheck:Leak
   match-leak-kinds: possible
   fun:malloc
   fun:_Znwm
   fun:_ZN9TObjArrayC2Eii
   fun:_ZN13TStreamerInfoC2EP6TClass
   fun:_ZN11TBufferFile16WriteClassBufferEPK6TClassPv
   fun:_ZN21TStreamerBasicPointer8StreamerER7TBuffer
   fun:_ZN11TBufferFile16WriteObjectClassEPKvPK6TClass
   fun:_ZN11TBufferFile14WriteObjectAnyEPKvPK6TClass
   fun:_ZN9TObjArray8StreamerER7TBuffer
   fun:_ZN11TBufferFile16WriteObjectClassEPKvPK6TClass
   fun:_ZN11TBufferFile14WriteObjectAnyEPKvPK6TClass
   fun:_ZN13TStreamerInfo8StreamerER7TBuffer
}
{
   <insert_a_suppression_name_here>
   Memcheck:Leak
   match-leak-kinds: possible
   fun:malloc
   fun:_Znwm
   fun:_ZNSt6vectorIN20TStreamerInfoActions17TConfiguredActionESaIS1_EE7reserveEm
   fun:_ZN20TStreamerInfoActions15TActionSequenceC2EP20TVirtualStreamerInfoj
   fun:_ZN13TStreamerInfo7CompileEv
   fun:_ZN13TStreamerInfo5BuildEv
   fun:_ZN11TBufferFile16WriteClassBufferEPK6TClassPv
   fun:_ZN21TStreamerBasicPointer8StreamerER7TBuffer
   fun:_ZN11TBufferFile16WriteObjectClassEPKvPK6TClass
   fun:_ZN11TBufferFile14WriteObjectAnyEPKvPK6TClass
   fun:_ZN9TObjArray8StreamerER7TBuffer
   fun:_ZN11TBufferFile16WriteObjectClassEPKvPK6TClass
}
{
   <insert_a_suppression_name_here>
   Memcheck:Leak
   match-leak-kinds: possible
   fun:malloc
   fun:_Znwm
   fun:_ZN9TObjArrayC2Eii
   fun:_ZN13TStreamerInfoC2EP6TClass
   fun:_ZN11TBufferFile16WriteClassBufferEPK6TClassPv
   fun:_ZN15TStreamerObject8StreamerER7TBuffer
   fun:_ZN11TBufferFile16WriteObjectClassEPKvPK6TClass
   fun:_ZN11TBufferFile14WriteObjectAnyEPKvPK6TClass
   fun:_ZN9TObjArray8StreamerER7TBuffer
   fun:_ZN11TBufferFile16WriteObjectClassEPKvPK6TClass
   fun:_ZN11TBufferFile14WriteObjectAnyEPKvPK6TClass
   fun:_ZN13TStreamerInfo8StreamerER7TBuffer
}
{
   <insert_a_suppression_name_here>
   Memcheck:Leak
   match-leak-kinds: possible
   fun:malloc
   fun:_Znwm
   fun:_ZN9TObjArrayC2Eii
   fun:_ZN13TStreamerInfoC2EP6TClass
   fun:_ZN11TBufferFile16WriteClassBufferEPK6TClassPv
   fun:_ZN22TStreamerObjectPointer8StreamerER7TBuffer
   fun:_ZN11TBufferFile16WriteObjectClassEPKvPK6TClass
   fun:_ZN11TBufferFile14WriteObjectAnyEPKvPK6TClass
   fun:_ZN9TObjArray8StreamerER7TBuffer
   fun:_ZN11TBufferFile16WriteObjectClassEPKvPK6TClass
   fun:_ZN11TBufferFile14WriteObjectAnyEPKvPK6TClass
   fun:_ZN13TStreamerInfo8StreamerER7TBuffer
}
{
   <insert_a_suppression_name_here>
   Memcheck:Leak
   match-leak-kinds: possible
   fun:malloc
   fun:_Znwm
   fun:_ZN9TObjArrayC2Eii
   fun:_ZN13TStreamerInfoC2EP6TClass
   fun:_ZN11TBufferFile16WriteClassBufferEPK6TClassPv
   fun:_ZN18TStreamerObjectAny8StreamerER7TBuffer
   fun:_ZN11TBufferFile16WriteObjectClassEPKvPK6TClass
   fun:_ZN11TBufferFile14WriteObjectAnyEPKvPK6TClass
   fun:_ZN9TObjArray8StreamerER7TBuffer
   fun:_ZN11TBufferFile16WriteObjectClassEPKvPK6TClass
   fun:_ZN11TBufferFile14WriteObjectAnyEPKvPK6TClass
   fun:_ZN13TStreamerInfo8StreamerER7TBuffer
}
{
   <insert_a_suppression_name_here>
   Memcheck:Leak
   match-leak-kinds: possible
   fun:malloc
   fun:_Znwm
   fun:_ZN9TObjArrayC2Eii
   fun:_ZN13TStreamerInfoC2EP6TClass
   fun:_ZN11TBufferFile16WriteClassBufferEPK6TClassPv
   fun:_ZN15TStreamerString8StreamerER7TBuffer
   fun:_ZN11TBufferFile16WriteObjectClassEPKvPK6TClass
   fun:_ZN11TBufferFile14WriteObjectAnyEPKvPK6TClass
   fun:_ZN9TObjArray8StreamerER7TBuffer
   fun:_ZN11TBufferFile16WriteObjectClassEPKvPK6TClass
   fun:_ZN11TBufferFile14WriteObjectAnyEPKvPK6TClass
   fun:_ZN13TStreamerInfo8StreamerER7TBuffer
}
{
   <insert_a_suppression_name_here>
   Memcheck:Leak
   match-leak-kinds: possible
   fun:malloc
   fun:_Znwm
   fun:_ZN9TObjArrayC2Eii
   fun:_ZN13TStreamerInfoC2EP6TClass
   fun:_ZN11TBufferFile16WriteClassBufferEPK6TClassPv
   fun:_ZN11TBufferFile16WriteObjectClassEPKvPK6TClass
   fun:_ZN11TBufferFile14WriteObjectAnyEPKvPK6TClass
   fun:_ZN5TList8StreamerER7TBuffer
   fun:_ZN11TBufferFile16WriteObjectClassEPKvPK6TClass
   fun:_ZN11TBufferFile14WriteObjectAnyEPKvPK6TClass
   fun:_ZN5TList8StreamerER7TBuffer
   fun:_ZN4TKeyC2EPK7TObjectPKciP10TDirectory
}
{
   <insert_a_suppression_name_here>
   Memcheck:Leak
   match-leak-kinds: possible
   fun:malloc
   fun:_Znwm
   fun:_ZN16TStreamerElementC2EPKcS1_iiS1_
   fun:_ZN18TStreamerBasicTypeC1EPKcS1_iiS1_
   fun:_ZN13TStreamerInfo5BuildEv
   fun:_ZNK6TClass15GetStreamerInfoEi
   fun:_ZN13TStreamerInfo5BuildEv
   fun:_ZN11TBufferFile16WriteClassBufferEPK6TClassPv
   fun:_ZN13TStreamerBase8StreamerER7TBuffer
   fun:_ZN11TBufferFile16WriteObjectClassEPKvPK6TClass
   fun:_ZN11TBufferFile14WriteObjectAnyEPKvPK6TClass
   fun:_ZN9TObjArray8StreamerER7TBuffer
}
{
   <insert_a_suppression_name_here>
   Memcheck:Leak
   match-leak-kinds: definite
   fun:malloc
   fun:_Znwm
   fun:G__get_methodhandle_noerror
   fun:G__get_methodhandle
   fun:_ZN4Cint12G__ClassInfo9GetMethodEPKcS2_PlNS0_9MatchModeENS0_15InheritanceModeE
   fun:_ZNK5TCint23ClassInfo_IsValidMethodEPvPKcS2_Pl
   fun:_ZNK6TClass8PropertyEv
   fun:_ZNK6TClass15StreamerDefaultEPvR7TBufferPKS_
   fun:_ZN11TBufferFile16WriteObjectClassEPKvPK6TClass
   fun:_ZN11TBufferFile14WriteObjectAnyEPKvPK6TClass
   fun:_ZN9TObjArray8StreamerER7TBuffer
   fun:_ZN11TBufferFile16WriteObjectClassEPKvPK6TClass
}
{
   <insert_a_suppression_name_here>
   Memcheck:Leak
   match-leak-kinds: possible
   fun:malloc
   fun:_Znwm
   fun:_ZN13TStreamerInfo5BuildEv
   fun:_ZNK6TClass15GetStreamerInfoEi
   fun:_ZN5TTree17BuildStreamerInfoEP6TClassPvb
   fun:_ZN5TTree10BronchExecEPKcS1_Pvbii
   fun:_ZN19MidasEventProcessorC1EP5TFileP5TTreeP8Settings
   obj:*
}
{
   <insert_a_suppression_name_here>
   Memcheck:Leak
   match-leak-kinds: possible
   fun:malloc
   fun:_Znwm
   fun:_ZN13TStreamerInfo5BuildEv
   fun:_ZN11TBufferFile16WriteClassBufferEPK6TClassPv
   fun:_ZN12TLeafElement8StreamerER7TBuffer
   fun:_ZN11TBufferFile16WriteObjectClassEPKvPK6TClass
   fun:_ZN11TBufferFile14WriteObjectAnyEPKvPK6TClass
   fun:_ZN9TObjArray8StreamerER7TBuffer
   fun:_ZN11TBufferFile14WriteFastArrayEPvPK6TClassiP15TMemberStreamer
   fun:_ZN13TStreamerInfo14WriteBufferAuxIPPcEEiR7TBufferRKT_iiii
   fun:_ZN20TStreamerInfoActions18GenericWriteActionER7TBufferPvPKNS_14TConfigurationE
   fun:_ZN11TBufferFile13ApplySequenceERKN20TStreamerInfoActions15TActionSequenceEPv
}
{
   <insert_a_suppression_name_here>
   Memcheck:Leak
   match-leak-kinds: possible
   fun:malloc
   fun:_Znwm
   fun:_ZN13TStreamerInfo5BuildEv
   fun:_ZNK6TClass15GetStreamerInfoEi
   fun:_ZN13TStreamerInfo5BuildEv
   fun:_ZNK6TClass15GetStreamerInfoEi
   fun:_ZN13TStreamerInfo5BuildEv
   fun:_ZNK6TClass15GetStreamerInfoEi
   fun:_ZN11TBufferFile14WriteFastArrayEPPvPK6TClassibP15TMemberStreamer
   fun:_ZN13TStreamerInfo14WriteBufferAuxIPPcEEiR7TBufferRKT_iiii
   fun:_ZN20TStreamerInfoActions18GenericWriteActionER7TBufferPvPKNS_14TConfigurationE
   fun:_ZN11TBufferFile13ApplySequenceERKN20TStreamerInfoActions15TActionSequenceEPv
}
{
   <insert_a_suppression_name_here>
   Memcheck:Leak
   match-leak-kinds: possible
   fun:malloc
   fun:_Znwm
   fun:_ZN6TClass20GetListOfDataMembersEv
   fun:_ZNK6TClass13GetDataMemberEPKc
   fun:_ZN14TBuildRealData7InspectEP6TClassPKcS3_PKv
   fun:_ZN18TStreamerBasicType11ShowMembersER16TMemberInspector
   fun:_ZNK6TClass15CallShowMembersEPvR16TMemberInspectori
   fun:_ZN6TClass13BuildRealDataEPvb
   fun:_ZN11TBufferFile16WriteClassBufferEPK6TClassPv
   fun:_ZN18TStreamerBasicType8StreamerER7TBuffer
   fun:_ZN11TBufferFile16WriteObjectClassEPKvPK6TClass
   fun:_ZN11TBufferFile14WriteObjectAnyEPKvPK6TClass
}
{
   <insert_a_suppression_name_here>
   Memcheck:Leak
   match-leak-kinds: possible
   fun:malloc
   fun:_Znwm
   fun:_ZN6TClass20GetListOfDataMembersEv
   fun:_ZNK6TClass13GetDataMemberEPKc
   fun:_ZN14TBuildRealData7InspectEP6TClassPKcS3_PKv
   fun:_ZN10TObjString11ShowMembersER16TMemberInspector
   fun:_ZNK6TClass15CallShowMembersEPvR16TMemberInspectori
   fun:_ZN6TClass13BuildRealDataEPvb
   fun:_ZN11TBufferFile16WriteClassBufferEPK6TClassPv
   fun:_ZN11TBufferFile16WriteObjectClassEPKvPK6TClass
   fun:_ZN11TBufferFile14WriteObjectAnyEPKvPK6TClass
   fun:_ZN5TList8StreamerER7TBuffer
}
{
   <insert_a_suppression_name_here>
   Memcheck:Leak
   match-leak-kinds: definite
   fun:malloc
   fun:_Znwm
   fun:G__define_struct
   fun:G__exec_statement
   fun:G__loadfile
   fun:G__include_file
   fun:G__exec_statement
   fun:G__exec_tempfile_core
   fun:G__exec_tempfile_fp
   fun:G__process_cmd
   fun:_ZN5TCint11ProcessLineEPKcPN12TInterpreter10EErrorCodeE
   fun:_ZN5TCintC2EPKcS1_
}
{
   <insert_a_suppression_name_here>
   Memcheck:Leak
   match-leak-kinds: definite
   fun:malloc
   fun:G__search_tagname
   fun:G__set_class_autoloading_table
   fun:_ZN5TCint14LoadLibraryMapEPKc
   fun:_ZN5TCint17EnableAutoLoadingEv
   fun:_ZN12TApplicationC2EPKcPiPPcPvi
   fun:main
}
{
   <insert_a_suppression_name_here>
   Memcheck:Leak
   match-leak-kinds: possible
   fun:malloc
   fun:_Znwm
   fun:_ZN6TNamed8SetTitleEPKc
   fun:_ZN11TDataMemberC2EPvP6TClass
   fun:_ZN5TCint23CreateListOfDataMembersEP6TClass
   fun:_ZN6TClass20GetListOfDataMembersEv
   fun:_ZNK6TClass13GetDataMemberEPKc
   fun:_ZN14TBuildRealData7InspectEP6TClassPKcS3_PKv
   fun:_ZN21TStreamerBasicPointer11ShowMembersER16TMemberInspector
   fun:_ZNK6TClass15CallShowMembersEPvR16TMemberInspectori
   fun:_ZN6TClass13BuildRealDataEPvb
   fun:_ZN11TBufferFile16WriteClassBufferEPK6TClassPv
}
{
   <insert_a_suppression_name_here>
   Memcheck:Leak
   match-leak-kinds: possible
   fun:malloc
   fun:_Znwm
   fun:_ZN13TStreamerInfo5BuildEv
   fun:_ZN11TBufferFile16WriteClassBufferEPK6TClassPv
   fun:_ZN13TStreamerBase8StreamerER7TBuffer
   fun:_ZN11TBufferFile16WriteObjectClassEPKvPK6TClass
   fun:_ZN11TBufferFile14WriteObjectAnyEPKvPK6TClass
   fun:_ZN9TObjArray8StreamerER7TBuffer
   fun:_ZN11TBufferFile16WriteObjectClassEPKvPK6TClass
   fun:_ZN11TBufferFile14WriteObjectAnyEPKvPK6TClass
   fun:_ZN13TStreamerInfo8StreamerER7TBuffer
   fun:_ZN11TBufferFile16WriteObjectClassEPKvPK6TClass
}
{
   <insert_a_suppression_name_here>
   Memcheck:Leak
   match-leak-kinds: possible
   fun:malloc
   fun:_Znwm
   fun:_ZN13TStreamerInfo5BuildEv
   fun:_ZN11TBufferFile16WriteClassBufferEPK6TClassPv
   fun:_ZN11TBufferFile16WriteObjectClassEPKvPK6TClass
   fun:_ZN11TBufferFile14WriteObjectAnyEPKvPK6TClass
   fun:_ZN5TList8StreamerER7TBuffer
   fun:_ZN11TBufferFile16WriteObjectClassEPKvPK6TClass
   fun:_ZN11TBufferFile14WriteObjectAnyEPKvPK6TClass
   fun:_ZN5TList8StreamerER7TBuffer
   fun:_ZN4TKeyC2EPK7TObjectPKciP10TDirectory
   fun:_ZN5TFile17WriteStreamerInfoEv
}
{
   <insert_a_suppression_name_here>
   Memcheck:Leak
   match-leak-kinds: definite
   fun:malloc
   fun:G__search_tagname
   fun:G__get_linked_tagnum_fwd
   fun:G__cpp_setup_tagtableManualTree2
   fun:G__cpp_setupManualTree2
   fun:G__call_setup_funcs
   fun:_GLOBAL__I_a
   fun:_ZN16ImageLoaderMachO18doModInitFunctionsERKN11ImageLoader11LinkContextE
   fun:_ZN16ImageLoaderMachO16doInitializationERKN11ImageLoader11LinkContextE
   fun:_ZN11ImageLoader23recursiveInitializationERKNS_11LinkContextEjRNS_21InitializerTimingListE
   fun:_ZN11ImageLoader23recursiveInitializationERKNS_11LinkContextEjRNS_21InitializerTimingListE
   fun:_ZN11ImageLoader15runInitializersERKNS_11LinkContextERNS_21InitializerTimingListE
}
{
   <insert_a_suppression_name_here>
   Memcheck:Leak
   match-leak-kinds: possible
   fun:malloc
   fun:_Znwm
   fun:_ZN13TStreamerInfo5BuildEv
   fun:_ZNK6TClass15GetStreamerInfoEi
   fun:_ZN13TStreamerInfo5BuildEv
   fun:_ZN11TBufferFile16WriteClassBufferEPK6TClassPv
   fun:_ZN13TStreamerBase8StreamerER7TBuffer
   fun:_ZN11TBufferFile16WriteObjectClassEPKvPK6TClass
   fun:_ZN11TBufferFile14WriteObjectAnyEPKvPK6TClass
   fun:_ZN9TObjArray8StreamerER7TBuffer
   fun:_ZN11TBufferFile16WriteObjectClassEPKvPK6TClass
   fun:_ZN11TBufferFile14WriteObjectAnyEPKvPK6TClass
}
{
   <insert_a_suppression_name_here>
   Memcheck:Leak
   match-leak-kinds: possible
   fun:malloc
   fun:_Znwm
   fun:_ZN13TStreamerInfo5BuildEv
   fun:_ZN11TBufferFile16WriteClassBufferEPK6TClassPv
   fun:_ZN21TStreamerBasicPointer8StreamerER7TBuffer
   fun:_ZN11TBufferFile16WriteObjectClassEPKvPK6TClass
   fun:_ZN11TBufferFile14WriteObjectAnyEPKvPK6TClass
   fun:_ZN9TObjArray8StreamerER7TBuffer
   fun:_ZN11TBufferFile16WriteObjectClassEPKvPK6TClass
   fun:_ZN11TBufferFile14WriteObjectAnyEPKvPK6TClass
   fun:_ZN13TStreamerInfo8StreamerER7TBuffer
   fun:_ZN11TBufferFile16WriteObjectClassEPKvPK6TClass
}
{
   <insert_a_suppression_name_here>
   Memcheck:Leak
   match-leak-kinds: definite
   fun:malloc
   fun:_Znwm
   fun:_ZN20TStreamerInfoActions15TActionSequence27CreateReadMemberWiseActionsEP20TVirtualStreamerInfoR23TVirtualCollectionProxy
   fun:_ZN19TGenCollectionProxy24GetReadMemberWiseActionsEi
   fun:_ZN14TBranchElement21SetReadActionSequenceEv
   fun:_ZN14TBranchElement10BuildTitleEPKc
   fun:_ZN14TBranchElement4InitEP5TTreeP7TBranchPKcP13TStreamerInfoiPciii
   fun:_ZN14TBranchElementC2EP7TBranchPKcP13TStreamerInfoiPciii
   fun:_ZN5TTree10BronchExecEPKcS1_Pvbii
   fun:_ZN19MidasEventProcessorC1EP5TFileP5TTreeP8Settings
   obj:*
}
{
   <insert_a_suppression_name_here>
   Memcheck:Leak
   match-leak-kinds: possible
   fun:malloc
   fun:_Znwm
   fun:_ZN13TStreamerInfo5BuildEv
   fun:_ZN11TBufferFile16WriteClassBufferEPK6TClassPv
   fun:_ZN12TStreamerSTL8StreamerER7TBuffer
   fun:_ZN11TBufferFile16WriteObjectClassEPKvPK6TClass
   fun:_ZN11TBufferFile14WriteObjectAnyEPKvPK6TClass
   fun:_ZN9TObjArray8StreamerER7TBuffer
   fun:_ZN11TBufferFile16WriteObjectClassEPKvPK6TClass
   fun:_ZN11TBufferFile14WriteObjectAnyEPKvPK6TClass
   fun:_ZN13TStreamerInfo8StreamerER7TBuffer
   fun:_ZN11TBufferFile16WriteObjectClassEPKvPK6TClass
}
{
   <insert_a_suppression_name_here>
   Memcheck:Leak
   match-leak-kinds: possible
   fun:malloc
   fun:_Znwm
   fun:_ZN6TClass11SetUnloadedEv
   fun:_ZN4ROOT11RemoveClassEPKc
   fun:_ZN4ROOT17TGenericClassInfoD2Ev
   fun:__cxa_finalize
   fun:exit
   fun:start
}
{
   <insert_a_suppression_name_here>
   Memcheck:Leak
   match-leak-kinds: possible
   fun:malloc
   fun:_Znwm
   fun:_ZNSs9_M_mutateEmmm
   fun:_ZNSs15_M_replace_safeEmmPKcm
   fun:_ZN9TClassRef6AssignEP6TClass
   fun:_ZN10TBaseClass15GetClassPointerEb
   fun:_ZN6TClass12GetBaseClassEPKS_
   fun:_ZNK6TClass12InheritsFromEPKS_
   fun:_ZNK6TClass8PropertyEv
   fun:_ZN6TClass13PostLoadCheckEv
   fun:_ZNK5TROOT9LoadClassEPKcb
   fun:_ZN6TClass8GetClassEPKcbb
}
{
   <insert_a_suppression_name_here>
   Memcheck:Leak
   match-leak-kinds: possible
   fun:malloc
   fun:_Znwm
   fun:_ZN11TBufferFile16WriteClassBufferEPK6TClassPv
   fun:_ZN13TStreamerBase8StreamerER7TBuffer
   fun:_ZN11TBufferFile16WriteObjectClassEPKvPK6TClass
   fun:_ZN11TBufferFile14WriteObjectAnyEPKvPK6TClass
   fun:_ZN9TObjArray8StreamerER7TBuffer
   fun:_ZN11TBufferFile16WriteObjectClassEPKvPK6TClass
   fun:_ZN11TBufferFile14WriteObjectAnyEPKvPK6TClass
   fun:_ZN13TStreamerInfo8StreamerER7TBuffer
   fun:_ZN11TBufferFile16WriteObjectClassEPKvPK6TClass
   fun:_ZN11TBufferFile14WriteObjectAnyEPKvPK6TClass
}
{
   <insert_a_suppression_name_here>
   Memcheck:Leak
   match-leak-kinds: possible
   fun:malloc
   fun:_Znwm
   fun:_ZN13TStreamerInfo7NewInfoEP6TClass
   fun:_ZNK6TClass15GetStreamerInfoEi
   fun:_ZN13TStreamerInfo5BuildEv
   fun:_ZN11TBufferFile16WriteClassBufferEPK6TClassPv
   fun:_ZN13TStreamerBase8StreamerER7TBuffer
   fun:_ZN11TBufferFile16WriteObjectClassEPKvPK6TClass
   fun:_ZN11TBufferFile14WriteObjectAnyEPKvPK6TClass
   fun:_ZN9TObjArray8StreamerER7TBuffer
   fun:_ZN11TBufferFile16WriteObjectClassEPKvPK6TClass
   fun:_ZN11TBufferFile14WriteObjectAnyEPKvPK6TClass
}
{
   <insert_a_suppression_name_here>
   Memcheck:Leak
   match-leak-kinds: possible
   fun:malloc
   fun:_Znwm
   fun:_ZNSt6vectorIN20TStreamerInfoActions17TConfiguredActionESaIS1_EE7reserveEm
   fun:_ZN20TStreamerInfoActions15TActionSequenceC2EP20TVirtualStreamerInfoj
   fun:_ZN13TStreamerInfo7CompileEv
   fun:_ZN13TStreamerInfo5BuildEv
   fun:_ZNK6TClass15GetStreamerInfoEi
   fun:_ZN13TStreamerInfo5BuildEv
   fun:_ZN11TBufferFile16WriteClassBufferEPK6TClassPv
   fun:_ZN13TStreamerBase8StreamerER7TBuffer
   fun:_ZN11TBufferFile16WriteObjectClassEPKvPK6TClass
   fun:_ZN11TBufferFile14WriteObjectAnyEPKvPK6TClass
}
{
   <insert_a_suppression_name_here>
   Memcheck:Leak
   match-leak-kinds: possible
   fun:malloc
   fun:_Znwm
   fun:_ZN11TBufferFile16WriteClassBufferEPK6TClassPv
   fun:_ZN12TStreamerSTL8StreamerER7TBuffer
   fun:_ZN11TBufferFile16WriteObjectClassEPKvPK6TClass
   fun:_ZN11TBufferFile14WriteObjectAnyEPKvPK6TClass
   fun:_ZN9TObjArray8StreamerER7TBuffer
   fun:_ZN11TBufferFile16WriteObjectClassEPKvPK6TClass
   fun:_ZN11TBufferFile14WriteObjectAnyEPKvPK6TClass
   fun:_ZN13TStreamerInfo8StreamerER7TBuffer
   fun:_ZN11TBufferFile16WriteObjectClassEPKvPK6TClass
   fun:_ZN11TBufferFile14WriteObjectAnyEPKvPK6TClass
}
{
   <insert_a_suppression_name_here>
   Memcheck:Leak
   match-leak-kinds: possible
   fun:malloc
   fun:_Znwm
   fun:_ZN11TBufferFile16WriteClassBufferEPK6TClassPv
   fun:_ZN18TStreamerBasicType8StreamerER7TBuffer
   fun:_ZN11TBufferFile16WriteObjectClassEPKvPK6TClass
   fun:_ZN11TBufferFile14WriteObjectAnyEPKvPK6TClass
   fun:_ZN9TObjArray8StreamerER7TBuffer
   fun:_ZN11TBufferFile16WriteObjectClassEPKvPK6TClass
   fun:_ZN11TBufferFile14WriteObjectAnyEPKvPK6TClass
   fun:_ZN13TStreamerInfo8StreamerER7TBuffer
   fun:_ZN11TBufferFile16WriteObjectClassEPKvPK6TClass
   fun:_ZN11TBufferFile14WriteObjectAnyEPKvPK6TClass
}
{
   <insert_a_suppression_name_here>
   Memcheck:Leak
   match-leak-kinds: possible
   fun:malloc
   fun:_Znwm
   fun:_ZN11TBufferFile16WriteClassBufferEPK6TClassPv
   fun:_ZN21TStreamerBasicPointer8StreamerER7TBuffer
   fun:_ZN11TBufferFile16WriteObjectClassEPKvPK6TClass
   fun:_ZN11TBufferFile14WriteObjectAnyEPKvPK6TClass
   fun:_ZN9TObjArray8StreamerER7TBuffer
   fun:_ZN11TBufferFile16WriteObjectClassEPKvPK6TClass
   fun:_ZN11TBufferFile14WriteObjectAnyEPKvPK6TClass
   fun:_ZN13TStreamerInfo8StreamerER7TBuffer
   fun:_ZN11TBufferFile16WriteObjectClassEPKvPK6TClass
   fun:_ZN11TBufferFile14WriteObjectAnyEPKvPK6TClass
}
{
   <insert_a_suppression_name_here>
   Memcheck:Leak
   match-leak-kinds: possible
   fun:malloc
   fun:_Znwm
   fun:_ZN11TBufferFile16WriteClassBufferEPK6TClassPv
   fun:_ZN15TStreamerObject8StreamerER7TBuffer
   fun:_ZN11TBufferFile16WriteObjectClassEPKvPK6TClass
   fun:_ZN11TBufferFile14WriteObjectAnyEPKvPK6TClass
   fun:_ZN9TObjArray8StreamerER7TBuffer
   fun:_ZN11TBufferFile16WriteObjectClassEPKvPK6TClass
   fun:_ZN11TBufferFile14WriteObjectAnyEPKvPK6TClass
   fun:_ZN13TStreamerInfo8StreamerER7TBuffer
   fun:_ZN11TBufferFile16WriteObjectClassEPKvPK6TClass
   fun:_ZN11TBufferFile14WriteObjectAnyEPKvPK6TClass
}
{
   <insert_a_suppression_name_here>
   Memcheck:Leak
   match-leak-kinds: possible
   fun:malloc
   fun:_Znwm
   fun:_ZN11TBufferFile16WriteClassBufferEPK6TClassPv
   fun:_ZN22TStreamerObjectPointer8StreamerER7TBuffer
   fun:_ZN11TBufferFile16WriteObjectClassEPKvPK6TClass
   fun:_ZN11TBufferFile14WriteObjectAnyEPKvPK6TClass
   fun:_ZN9TObjArray8StreamerER7TBuffer
   fun:_ZN11TBufferFile16WriteObjectClassEPKvPK6TClass
   fun:_ZN11TBufferFile14WriteObjectAnyEPKvPK6TClass
   fun:_ZN13TStreamerInfo8StreamerER7TBuffer
   fun:_ZN11TBufferFile16WriteObjectClassEPKvPK6TClass
   fun:_ZN11TBufferFile14WriteObjectAnyEPKvPK6TClass
}
{
   <insert_a_suppression_name_here>
   Memcheck:Leak
   match-leak-kinds: possible
   fun:malloc
   fun:_Znwm
   fun:_ZN11TBufferFile16WriteClassBufferEPK6TClassPv
   fun:_ZN18TStreamerObjectAny8StreamerER7TBuffer
   fun:_ZN11TBufferFile16WriteObjectClassEPKvPK6TClass
   fun:_ZN11TBufferFile14WriteObjectAnyEPKvPK6TClass
   fun:_ZN9TObjArray8StreamerER7TBuffer
   fun:_ZN11TBufferFile16WriteObjectClassEPKvPK6TClass
   fun:_ZN11TBufferFile14WriteObjectAnyEPKvPK6TClass
   fun:_ZN13TStreamerInfo8StreamerER7TBuffer
   fun:_ZN11TBufferFile16WriteObjectClassEPKvPK6TClass
   fun:_ZN11TBufferFile14WriteObjectAnyEPKvPK6TClass
}
{
   <insert_a_suppression_name_here>
   Memcheck:Leak
   match-leak-kinds: possible
   fun:malloc
   fun:_Znwm
   fun:_ZN11TBufferFile16WriteClassBufferEPK6TClassPv
   fun:_ZN15TStreamerString8StreamerER7TBuffer
   fun:_ZN11TBufferFile16WriteObjectClassEPKvPK6TClass
   fun:_ZN11TBufferFile14WriteObjectAnyEPKvPK6TClass
   fun:_ZN9TObjArray8StreamerER7TBuffer
   fun:_ZN11TBufferFile16WriteObjectClassEPKvPK6TClass
   fun:_ZN11TBufferFile14WriteObjectAnyEPKvPK6TClass
   fun:_ZN13TStreamerInfo8StreamerER7TBuffer
   fun:_ZN11TBufferFile16WriteObjectClassEPKvPK6TClass
   fun:_ZN11TBufferFile14WriteObjectAnyEPKvPK6TClass
}
{
   <insert_a_suppression_name_here>
   Memcheck:Leak
   match-leak-kinds: possible
   fun:malloc
   fun:_Znwm
   fun:_ZN11TBufferFile16WriteClassBufferEPK6TClassPv
   fun:_ZN11TBufferFile16WriteObjectClassEPKvPK6TClass
   fun:_ZN11TBufferFile14WriteObjectAnyEPKvPK6TClass
   fun:_ZN5TList8StreamerER7TBuffer
   fun:_ZN11TBufferFile16WriteObjectClassEPKvPK6TClass
   fun:_ZN11TBufferFile14WriteObjectAnyEPKvPK6TClass
   fun:_ZN5TList8StreamerER7TBuffer
   fun:_ZN4TKeyC2EPK7TObjectPKciP10TDirectory
   fun:_ZN5TFile17WriteStreamerInfoEv
   fun:_ZN5TFile5CloseEPKc
}
{
   <insert_a_suppression_name_here>
   Memcheck:Leak
   match-leak-kinds: possible
   fun:malloc
   fun:_Znwm
   fun:_ZN6TNamed8SetTitleEPKc
   fun:_ZN11TDataMemberC2EPvP6TClass
   fun:_ZN5TCint23CreateListOfDataMembersEP6TClass
   fun:_ZN6TClass20GetListOfDataMembersEv
   fun:_ZNK6TClass13GetDataMemberEPKc
   fun:_ZN14TBuildRealData7InspectEP6TClassPKcS3_PKv
   fun:_ZN13TStreamerBase11ShowMembersER16TMemberInspector
   fun:_ZNK6TClass15CallShowMembersEPvR16TMemberInspectori
   fun:_ZN6TClass13BuildRealDataEPvb
   fun:_ZN11TBufferFile16WriteClassBufferEPK6TClassPv
}
{
   <insert_a_suppression_name_here>
   Memcheck:Leak
   match-leak-kinds: possible
   fun:malloc
   fun:_Znwm
   fun:_ZN13TStreamerInfo5BuildEv
   fun:_ZN11TBufferFile16WriteClassBufferEPK6TClassPv
   fun:_ZN11TBufferFile16WriteObjectClassEPKvPK6TClass
   fun:_ZN11TBufferFile14WriteObjectAnyEPKvPK6TClass
   fun:_ZN11TBufferFile14WriteFastArrayEPPvPK6TClassibP15TMemberStreamer
   fun:_ZN13TStreamerInfo14WriteBufferAuxIPPcEEiR7TBufferRKT_iiii
   fun:_ZN20TStreamerInfoActions18GenericWriteActionER7TBufferPvPKNS_14TConfigurationE
   fun:_ZN11TBufferFile13ApplySequenceERKN20TStreamerInfoActions15TActionSequenceEPv
   fun:_ZN11TBufferFile16WriteClassBufferEPK6TClassPv
   fun:_ZN10TBranchRef8StreamerER7TBuffer
}
{
   <insert_a_suppression_name_here>
   Memcheck:Leak
   match-leak-kinds: possible
   fun:malloc
   fun:_Znwm
   fun:_ZN6TNamed7SetNameEPKc
   fun:_ZN10TBaseClassC2EPvP6TClass
   fun:_ZN5TCint23CreateListOfBaseClassesEP6TClass
   fun:_ZN6TClass25GetBaseClassOffsetRecurseEPKS_
   fun:_ZN6TClass18GetBaseClassOffsetEPKS_
   fun:_ZN11TBufferFile14WriteObjectAnyEPKvPK6TClass
   fun:_ZN9TObjArray8StreamerER7TBuffer
   fun:_ZN11TBufferFile16WriteObjectClassEPKvPK6TClass
   fun:_ZN11TBufferFile14WriteObjectAnyEPKvPK6TClass
   fun:_ZN13TStreamerInfo8StreamerER7TBuffer
}
{
   <insert_a_suppression_name_here>
   Memcheck:Leak
   match-leak-kinds: possible
   fun:malloc
   fun:_Znwm
   fun:_ZN5TList7AddLastEP7TObject
   fun:_ZN5TCint23CreateListOfBaseClassesEP6TClass
   fun:_ZN6TClass25GetBaseClassOffsetRecurseEPKS_
   fun:_ZN6TClass18GetBaseClassOffsetEPKS_
   fun:_ZN11TBufferFile14WriteObjectAnyEPKvPK6TClass
   fun:_ZN9TObjArray8StreamerER7TBuffer
   fun:_ZN11TBufferFile16WriteObjectClassEPKvPK6TClass
   fun:_ZN11TBufferFile14WriteObjectAnyEPKvPK6TClass
   fun:_ZN13TStreamerInfo8StreamerER7TBuffer
   fun:_ZN11TBufferFile16WriteObjectClassEPKvPK6TClass
}
{
   <insert_a_suppression_name_here>
   Memcheck:Leak
   match-leak-kinds: possible
   fun:malloc
   fun:_Znwm
   fun:_ZN6TClass20GetListOfDataMembersEv
   fun:_ZNK6TClass13GetDataMemberEPKc
   fun:_ZN14TBuildRealData7InspectEP6TClassPKcS3_PKv
   fun:_ZN12TStreamerSTL11ShowMembersER16TMemberInspector
   fun:_ZNK6TClass15CallShowMembersEPvR16TMemberInspectori
   fun:_ZN6TClass13BuildRealDataEPvb
   fun:_ZN11TBufferFile16WriteClassBufferEPK6TClassPv
   fun:_ZN12TStreamerSTL8StreamerER7TBuffer
   fun:_ZN11TBufferFile16WriteObjectClassEPKvPK6TClass
   fun:_ZN11TBufferFile14WriteObjectAnyEPKvPK6TClass
}
{
   <insert_a_suppression_name_here>
   Memcheck:Leak
   match-leak-kinds: possible
   fun:malloc
   fun:_Znwm
   fun:_ZN6TClass25GetBaseClassOffsetRecurseEPKS_
   fun:_ZN6TClass18GetBaseClassOffsetEPKS_
   fun:_ZN11TBufferFile14WriteObjectAnyEPKvPK6TClass
   fun:_ZN9TObjArray8StreamerER7TBuffer
   fun:_ZN11TBufferFile16WriteObjectClassEPKvPK6TClass
   fun:_ZN11TBufferFile14WriteObjectAnyEPKvPK6TClass
   fun:_ZN13TStreamerInfo8StreamerER7TBuffer
   fun:_ZN11TBufferFile16WriteObjectClassEPKvPK6TClass
   fun:_ZN11TBufferFile14WriteObjectAnyEPKvPK6TClass
   fun:_ZN5TList8StreamerER7TBuffer
}
{
   <insert_a_suppression_name_here>
   Memcheck:Leak
   match-leak-kinds: definite
   fun:malloc
   fun:_Znwm
   fun:G__set_class_autoloading_table
   fun:_ZN5TCint14LoadLibraryMapEPKc
   fun:_ZN5TCint17EnableAutoLoadingEv
   fun:_ZN12TApplicationC2EPKcPiPPcPvi
   fun:main
}
{
   <insert_a_suppression_name_here>
   Memcheck:Leak
   match-leak-kinds: possible
   fun:malloc
   fun:G__search_tagname
   fun:G__get_linked_tagnum_fwd
   fun:G__cpp_setup_tagtableG__Base1
   fun:G__cpp_setupG__Base1
   fun:G__call_setup_funcs
   fun:_ZN25G__cpp_setup_initG__Base1C2Ev
   fun:_ZN25G__cpp_setup_initG__Base1C1Ev
   fun:__cxx_global_var_init709
   fun:_GLOBAL__I_a
   fun:_ZN16ImageLoaderMachO18doModInitFunctionsERKN11ImageLoader11LinkContextE
   fun:_ZN16ImageLoaderMachO16doInitializationERKN11ImageLoader11LinkContextE
}
{
   <insert_a_suppression_name_here>
   Memcheck:Leak
   match-leak-kinds: possible
   fun:malloc
   fun:G__search_tagname
   fun:G__get_linked_tagnum_fwd
   fun:G__cpp_setup_tagtableG__Base2
   fun:G__cpp_setupG__Base2
   fun:G__call_setup_funcs
   fun:_GLOBAL__I_a
   fun:_ZN16ImageLoaderMachO18doModInitFunctionsERKN11ImageLoader11LinkContextE
   fun:_ZN16ImageLoaderMachO16doInitializationERKN11ImageLoader11LinkContextE
   fun:_ZN11ImageLoader23recursiveInitializationERKNS_11LinkContextEjRNS_21InitializerTimingListE
   fun:_ZN11ImageLoader23recursiveInitializationERKNS_11LinkContextEjRNS_21InitializerTimingListE
   fun:_ZN11ImageLoader15runInitializersERKNS_11LinkContextERNS_21InitializerTimingListE
}
{
   <insert_a_suppression_name_here>
   Memcheck:Leak
   match-leak-kinds: possible
   fun:malloc
   fun:G__search_tagname
   fun:G__get_linked_tagnum_fwd
   fun:G__cpp_setup_tagtableG__Meta
   fun:G__cpp_setupG__Meta
   fun:G__call_setup_funcs
   fun:_GLOBAL__I_a
   fun:_ZN16ImageLoaderMachO18doModInitFunctionsERKN11ImageLoader11LinkContextE
   fun:_ZN16ImageLoaderMachO16doInitializationERKN11ImageLoader11LinkContextE
   fun:_ZN11ImageLoader23recursiveInitializationERKNS_11LinkContextEjRNS_21InitializerTimingListE
   fun:_ZN11ImageLoader23recursiveInitializationERKNS_11LinkContextEjRNS_21InitializerTimingListE
   fun:_ZN11ImageLoader15runInitializersERKNS_11LinkContextERNS_21InitializerTimingListE
}
{
   <insert_a_suppression_name_here>
   Memcheck:Leak
   match-leak-kinds: possible
   fun:malloc
   fun:_ZL16G__allocvariable8G__valuePS_P12G__var_arrayS2_iiPKcPciRN4Cint19G__DataMemberHandleE
   fun:_Z14G__letvariableR18G__FastAllocString8G__valueP12G__var_arrayS3_RN4Cint19G__DataMemberHandleE
   fun:_Z14G__letvariableR18G__FastAllocString8G__valueP12G__var_arrayS3_
   fun:G__getexpr
   fun:G__memvar_setup
   fun:_ZL28G__setup_memvarTStreamerBasev
   fun:G__incsetup_memvar
   fun:_ZN4Cint17G__DataMemberInfoC1ERNS_12G__ClassInfoE
   fun:_ZN5TCint23CreateListOfDataMembersEP6TClass
   fun:_ZN6TClass20GetListOfDataMembersEv
   fun:_ZNK6TClass13GetDataMemberEPKc
}
{
   <insert_a_suppression_name_here>
   Memcheck:Leak
   match-leak-kinds: possible
   fun:malloc
   fun:_ZL16G__allocvariable8G__valuePS_P12G__var_arrayS2_iiPKcPciRN4Cint19G__DataMemberHandleE
   fun:_Z14G__letvariableR18G__FastAllocString8G__valueP12G__var_arrayS3_RN4Cint19G__DataMemberHandleE
   fun:_Z14G__letvariableR18G__FastAllocString8G__valueP12G__var_arrayS3_
   fun:G__getexpr
   fun:G__memvar_setup
   fun:_ZL31G__setup_memvarTStreamerElementv
   fun:G__incsetup_memvar
   fun:_ZN4Cint17G__DataMemberInfoC1ERNS_12G__ClassInfoE
   fun:_ZN5TCint23CreateListOfDataMembersEP6TClass
   fun:_ZN6TClass20GetListOfDataMembersEv
   fun:_ZNK6TClass13GetDataMemberEPKc
}
{
   <insert_a_suppression_name_here>
   Memcheck:Leak
   match-leak-kinds: possible
   fun:malloc
   fun:_ZL16G__allocvariable8G__valuePS_P12G__var_arrayS2_iiPKcPciRN4Cint19G__DataMemberHandleE
   fun:_Z14G__letvariableR18G__FastAllocString8G__valueP12G__var_arrayS3_RN4Cint19G__DataMemberHandleE
   fun:_Z14G__letvariableR18G__FastAllocString8G__valueP12G__var_arrayS3_
   fun:G__getexpr
   fun:G__memvar_setup
   fun:_ZL27G__setup_memvarTStreamerSTLv
   fun:G__incsetup_memvar
   fun:_ZN4Cint17G__DataMemberInfoC1ERNS_12G__ClassInfoE
   fun:_ZN5TCint23CreateListOfDataMembersEP6TClass
   fun:_ZN6TClass20GetListOfDataMembersEv
   fun:_ZNK6TClass13GetDataMemberEPKc
}
{
   <insert_a_suppression_name_here>
   Memcheck:Leak
   match-leak-kinds: possible
   fun:malloc
   fun:_ZL16G__allocvariable8G__valuePS_P12G__var_arrayS2_iiPKcPciRN4Cint19G__DataMemberHandleE
   fun:_Z14G__letvariableR18G__FastAllocString8G__valueP12G__var_arrayS3_RN4Cint19G__DataMemberHandleE
   fun:_Z14G__letvariableR18G__FastAllocString8G__valueP12G__var_arrayS3_
   fun:G__getexpr
   fun:G__memvar_setup
   fun:_ZL33G__setup_memvarTStreamerBasicTypev
   fun:G__incsetup_memvar
   fun:_ZN4Cint17G__DataMemberInfoC1ERNS_12G__ClassInfoE
   fun:_ZN5TCint23CreateListOfDataMembersEP6TClass
   fun:_ZN6TClass20GetListOfDataMembersEv
   fun:_ZNK6TClass13GetDataMemberEPKc
}
{
   <insert_a_suppression_name_here>
   Memcheck:Leak
   match-leak-kinds: possible
   fun:malloc
   fun:_ZL16G__allocvariable8G__valuePS_P12G__var_arrayS2_iiPKcPciRN4Cint19G__DataMemberHandleE
   fun:_Z14G__letvariableR18G__FastAllocString8G__valueP12G__var_arrayS3_RN4Cint19G__DataMemberHandleE
   fun:_Z14G__letvariableR18G__FastAllocString8G__valueP12G__var_arrayS3_
   fun:G__getexpr
   fun:G__memvar_setup
   fun:_ZL36G__setup_memvarTStreamerBasicPointerv
   fun:G__incsetup_memvar
   fun:_ZN4Cint17G__DataMemberInfoC1ERNS_12G__ClassInfoE
   fun:_ZN5TCint23CreateListOfDataMembersEP6TClass
   fun:_ZN6TClass20GetListOfDataMembersEv
   fun:_ZNK6TClass13GetDataMemberEPKc
}
{
   <insert_a_suppression_name_here>
   Memcheck:Leak
   match-leak-kinds: possible
   fun:malloc
   fun:_ZL16G__allocvariable8G__valuePS_P12G__var_arrayS2_iiPKcPciRN4Cint19G__DataMemberHandleE
   fun:_Z14G__letvariableR18G__FastAllocString8G__valueP12G__var_arrayS3_RN4Cint19G__DataMemberHandleE
   fun:_Z14G__letvariableR18G__FastAllocString8G__valueP12G__var_arrayS3_
   fun:G__getexpr
   fun:G__memvar_setup
   fun:_ZL25G__setup_memvarTObjStringv
   fun:G__incsetup_memvar
   fun:_ZN4Cint17G__DataMemberInfoC1ERNS_12G__ClassInfoE
   fun:_ZN5TCint23CreateListOfDataMembersEP6TClass
   fun:_ZN6TClass20GetListOfDataMembersEv
   fun:_ZNK6TClass13GetDataMemberEPKc
}
{
   <insert_a_suppression_name_here>
   Memcheck:Leak
   match-leak-kinds: possible
   fun:malloc
   fun:_Znwm
   fun:_ZNSs9_M_mutateEmmm
   fun:_ZNSs15_M_replace_safeEmmPKcm
   fun:_ZN9TClassRef6AssignEP6TClass
   fun:_ZN10TBaseClass15GetClassPointerEb
   fun:_ZN6TClass25GetBaseClassOffsetRecurseEPKS_
   fun:_ZN6TClass18GetBaseClassOffsetEPKS_
   fun:_ZN11TBufferFile14WriteObjectAnyEPKvPK6TClass
   fun:_ZN9TObjArray8StreamerER7TBuffer
   fun:_ZN11TBufferFile16WriteObjectClassEPKvPK6TClass
   fun:_ZN11TBufferFile14WriteObjectAnyEPKvPK6TClass
}
{
   <insert_a_suppression_name_here>
   Memcheck:Leak
   match-leak-kinds: possible
   fun:malloc
   fun:_Znwm
   fun:_ZN13TStreamerInfo5BuildEv
   fun:_ZNK6TClass15GetStreamerInfoEi
   fun:_ZN13TStreamerInfo5BuildEv
   fun:_ZN11TBufferFile16WriteClassBufferEPK6TClassPv
   fun:_ZN12TLeafElement8StreamerER7TBuffer
   fun:_ZN11TBufferFile16WriteObjectClassEPKvPK6TClass
   fun:_ZN11TBufferFile14WriteObjectAnyEPKvPK6TClass
   fun:_ZN9TObjArray8StreamerER7TBuffer
   fun:_ZN11TBufferFile14WriteFastArrayEPvPK6TClassiP15TMemberStreamer
   fun:_ZN13TStreamerInfo14WriteBufferAuxIPPcEEiR7TBufferRKT_iiii
}
{
   <insert_a_suppression_name_here>
   Memcheck:Leak
   match-leak-kinds: possible
   fun:malloc
   fun:_Znwm
   fun:_ZN6TClass20GetListOfDataMembersEv
   fun:_ZNK6TClass13GetDataMemberEPKc
   fun:_ZN14TBuildRealData7InspectEP6TClassPKcS3_PKv
   fun:_ZN13TStreamerBase11ShowMembersER16TMemberInspector
   fun:_ZNK6TClass15CallShowMembersEPvR16TMemberInspectori
   fun:_ZN6TClass13BuildRealDataEPvb
   fun:_ZN11TBufferFile16WriteClassBufferEPK6TClassPv
   fun:_ZN13TStreamerBase8StreamerER7TBuffer
   fun:_ZN11TBufferFile16WriteObjectClassEPKvPK6TClass
   fun:_ZN11TBufferFile14WriteObjectAnyEPKvPK6TClass
}
{
   <insert_a_suppression_name_here>
   Memcheck:Leak
   match-leak-kinds: possible
   fun:malloc
   fun:_Znwm
   fun:_ZN6TClass20GetListOfDataMembersEv
   fun:_ZNK6TClass13GetDataMemberEPKc
   fun:_ZN14TBuildRealData7InspectEP6TClassPKcS3_PKv
   fun:_ZN21TStreamerBasicPointer11ShowMembersER16TMemberInspector
   fun:_ZNK6TClass15CallShowMembersEPvR16TMemberInspectori
   fun:_ZN6TClass13BuildRealDataEPvb
   fun:_ZN11TBufferFile16WriteClassBufferEPK6TClassPv
   fun:_ZN21TStreamerBasicPointer8StreamerER7TBuffer
   fun:_ZN11TBufferFile16WriteObjectClassEPKvPK6TClass
   fun:_ZN11TBufferFile14WriteObjectAnyEPKvPK6TClass
}
{
   <insert_a_suppression_name_here>
   Memcheck:Leak
   match-leak-kinds: possible
   fun:malloc
   fun:_Znwm
   fun:_ZN13TStreamerInfo5BuildEv
   fun:_ZNK6TClass15GetStreamerInfoEi
   fun:_ZN13TStreamerInfo14WriteBufferAuxIPPcEEiR7TBufferRKT_iiii
   fun:_ZN20TStreamerInfoActions19WriteVectorWrappingER7TBufferPvPKvPKNS_18TLoopConfigurationEPKNS_14TConfigurationE
   fun:_ZN11TBufferFile13ApplySequenceERKN20TStreamerInfoActions15TActionSequenceEPvS4_
   fun:_ZN14TBranchElement26FillLeavesCollectionMemberER7TBuffer
   fun:_ZN7TBranch4FillEv
   fun:_ZN14TBranchElement4FillEv
   fun:_ZN14TBranchElement4FillEv
   fun:_ZN14TBranchElement4FillEv
}
{
   <insert_a_suppression_name_here>
   Memcheck:Leak
   match-leak-kinds: definite
   fun:calloc
   fun:class_createInstance
   fun:_os_object_alloc_realized
   fun:xpc_dictionary_create
   fun:_xpc_runtime_extend_submit
   fun:_dispatch_client_callout
   fun:_dispatch_barrier_sync_f_invoke
   fun:_xpc_runtime_extend_domain
   fun:_xpc_dyld_image_callback
   fun:_ZN4dyldL18notifyBatchPartialE17dyld_image_statesbPFPKcS0_jPK15dyld_image_infoE
   fun:_ZN11ImageLoader4linkERKNS_11LinkContextEbbbRKNS_10RPathChainE
   fun:_ZN4dyld4linkEP11ImageLoaderbbRKNS0_10RPathChainE
}
{
   <insert_a_suppression_name_here>
   Memcheck:Leak
   match-leak-kinds: possible
   fun:malloc
   fun:_Znwm
   fun:_ZN4ROOT11CreateClassEPKcsRKSt9type_infoP16TVirtualIsAProxyPFvPvR16TMemberInspectorES1_S1_ii
   fun:_ZNK4ROOT20TDefaultInitBehavior11CreateClassEPKcsRKSt9type_infoP16TVirtualIsAProxyPFvPvR16TMemberInspectorES2_S2_ii
   fun:_ZN4ROOT17TGenericClassInfo8GetClassEv
   fun:_ZN12TStreamerSTL5ClassEv
   fun:_ZNK6TClass12InheritsFromEPKS_
   fun:_ZNK6TClass8PropertyEv
   fun:_ZN14TBuildRealData7InspectEP6TClassPKcS3_PKv
   fun:_ZN5Cycle11ShowMembersER16TMemberInspector
   fun:_ZNK6TClass12InheritsFromEPKc
   obj:*
}
{
   <insert_a_suppression_name_here>
   Memcheck:Leak
   match-leak-kinds: possible
   fun:malloc
   fun:_Znwm
   fun:_ZN4ROOT11CreateClassEPKcsRKSt9type_infoP16TVirtualIsAProxyPFvPvR16TMemberInspectorES1_S1_ii
   fun:_ZNK4ROOT20TDefaultInitBehavior11CreateClassEPKcsRKSt9type_infoP16TVirtualIsAProxyPFvPvR16TMemberInspectorES2_S2_ii
   fun:_ZN4ROOT17TGenericClassInfo8GetClassEv
   fun:_ZN13TStreamerBase5ClassEv
   fun:_ZNK6TClass12InheritsFromEPKS_
   fun:_ZNK6TClass8PropertyEv
   fun:_ZN14TBuildRealData7InspectEP6TClassPKcS3_PKv
   fun:_ZN5Cycle11ShowMembersER16TMemberInspector
   fun:_ZNK6TClass12InheritsFromEPKc
   obj:*
}
{
   <insert_a_suppression_name_here>
   Memcheck:Leak
   match-leak-kinds: possible
   fun:malloc
   fun:_Znwm
   fun:_ZN4ROOT11CreateClassEPKcsRKSt9type_infoP16TVirtualIsAProxyPFvPvR16TMemberInspectorES1_S1_ii
   fun:_ZNK4ROOT20TDefaultInitBehavior11CreateClassEPKcsRKSt9type_infoP16TVirtualIsAProxyPFvPvR16TMemberInspectorES2_S2_ii
   fun:_ZN4ROOT17TGenericClassInfo8GetClassEv
   fun:_ZN16TStreamerElement5ClassEv
   fun:_ZN13TStreamerInfo5BuildEv
   fun:_ZNK6TClass15GetStreamerInfoEi
   fun:_ZN5TTree17BuildStreamerInfoEP6TClassPvb
   fun:_ZN5TTree10BronchExecEPKcS1_Pvbii
   fun:_ZN19MidasEventProcessorC1EP5TFileP5TTreeP8Settings
   obj:*
}
{
   <insert_a_suppression_name_here>
   Memcheck:Leak
   match-leak-kinds: possible
   fun:malloc
   fun:_Znwm
   fun:_ZN4ROOT11CreateClassEPKcsRKSt9type_infoP16TVirtualIsAProxyPFvPvR16TMemberInspectorES1_S1_ii
   fun:_ZNK4ROOT20TDefaultInitBehavior11CreateClassEPKcsRKSt9type_infoP16TVirtualIsAProxyPFvPvR16TMemberInspectorES2_S2_ii
   fun:_ZN4ROOT17TGenericClassInfo8GetClassEv
   fun:_ZN21TStreamerBasicPointer5ClassEv
   fun:_ZN14TBranchElement4InitEP5TTreeP7TBranchPKcP13TStreamerInfoiPciii
   fun:_ZN14TBranchElementC2EP7TBranchPKcP13TStreamerInfoiPciii
   fun:_ZN5TTree10BronchExecEPKcS1_Pvbii
   fun:_ZN19MidasEventProcessorC1EP5TFileP5TTreeP8Settings
   obj:*
}
{
   <insert_a_suppression_name_here>
   Memcheck:Leak
   match-leak-kinds: possible
   fun:malloc
   fun:_Znwm
   fun:_ZN4ROOT11CreateClassEPKcsRKSt9type_infoP16TVirtualIsAProxyPFvPvR16TMemberInspectorES1_S1_ii
   fun:_ZNK4ROOT20TDefaultInitBehavior11CreateClassEPKcsRKSt9type_infoP16TVirtualIsAProxyPFvPvR16TMemberInspectorES2_S2_ii
   fun:_ZN4ROOT17TGenericClassInfo8GetClassEv
   fun:_ZN18TStreamerBasicType5ClassEv
   fun:_ZN14TBranchElement6UnrollEPKcP6TClassS3_Pciii
   fun:_ZN14TBranchElement4InitEP5TTreeP7TBranchPKcP13TStreamerInfoiPciii
   fun:_ZN14TBranchElementC2EP7TBranchPKcP13TStreamerInfoiPciii
   fun:_ZN5TTree10BronchExecEPKcS1_Pvbii
   fun:_ZN19MidasEventProcessorC1EP5TFileP5TTreeP8Settings
   obj:*
}
{
   <insert_a_suppression_name_here>
   Memcheck:Leak
   match-leak-kinds: possible
   fun:malloc
   fun:_Znwm
   fun:_ZN4ROOT11CreateClassEPKcsRKSt9type_infoP16TVirtualIsAProxyPFvPvR16TMemberInspectorES1_S1_ii
   fun:_ZNK4ROOT20TDefaultInitBehavior11CreateClassEPKcsRKSt9type_infoP16TVirtualIsAProxyPFvPvR16TMemberInspectorES2_S2_ii
   fun:_ZN4ROOT17TGenericClassInfo8GetClassEv
   fun:_ZN15TStreamerObject5ClassEv
   fun:_ZN14TBranchElement6UnrollEPKcP6TClassS3_Pciii
   fun:_ZN14TBranchElement4InitEP5TTreeP7TBranchPKcP13TStreamerInfoiPciii
   fun:_ZN14TBranchElementC2EP7TBranchPKcP13TStreamerInfoiPciii
   fun:_ZN5TTree10BronchExecEPKcS1_Pvbii
   fun:_ZN19MidasEventProcessorC1EP5TFileP5TTreeP8Settings
   obj:*
}
{
   <insert_a_suppression_name_here>
   Memcheck:Leak
   match-leak-kinds: possible
   fun:malloc
   fun:_Znwm
   fun:_ZN4ROOT11CreateClassEPKcsRKSt9type_infoP16TVirtualIsAProxyPFvPvR16TMemberInspectorES1_S1_ii
   fun:_ZNK4ROOT20TDefaultInitBehavior11CreateClassEPKcsRKSt9type_infoP16TVirtualIsAProxyPFvPvR16TMemberInspectorES2_S2_ii
   fun:_ZN4ROOT17TGenericClassInfo8GetClassEv
   fun:_ZN18TStreamerObjectAny5ClassEv
   fun:_ZN14TBranchElement6UnrollEPKcP6TClassS3_Pciii
   fun:_ZN14TBranchElement4InitEP5TTreeP7TBranchPKcP13TStreamerInfoiPciii
   fun:_ZN14TBranchElementC2EP7TBranchPKcP13TStreamerInfoiPciii
   fun:_ZN5TTree10BronchExecEPKcS1_Pvbii
   fun:_ZN19MidasEventProcessorC1EP5TFileP5TTreeP8Settings
   obj:*
}
{
   <insert_a_suppression_name_here>
   Memcheck:Leak
   match-leak-kinds: possible
   fun:malloc
   fun:_Znwm
   fun:_ZN4ROOT11CreateClassEPKcsRKSt9type_infoP16TVirtualIsAProxyPFvPvR16TMemberInspectorES1_S1_ii
   fun:_ZNK4ROOT20TDefaultInitBehavior11CreateClassEPKcsRKSt9type_infoP16TVirtualIsAProxyPFvPvR16TMemberInspectorES2_S2_ii
   fun:_ZN4ROOT17TGenericClassInfo8GetClassEv
   fun:_ZN22TStreamerObjectPointer5ClassEv
   fun:_ZN13TStreamerInfo8StreamerER7TBuffer
   fun:_ZN11TBufferFile16WriteObjectClassEPKvPK6TClass
   fun:_ZN11TBufferFile14WriteObjectAnyEPKvPK6TClass
   fun:_ZN5TList8StreamerER7TBuffer
   fun:_ZN4TKeyC2EPK7TObjectPKciP10TDirectory
   fun:_ZN5TFile17WriteStreamerInfoEv
}
{
   <insert_a_suppression_name_here>
   Memcheck:Leak
   match-leak-kinds: possible
   fun:malloc
   fun:_Znwm
   fun:_ZN4ROOT11CreateClassEPKcsRKSt9type_infoP16TVirtualIsAProxyPFvPvR16TMemberInspectorES1_S1_ii
   fun:_ZNK4ROOT20TDefaultInitBehavior11CreateClassEPKcsRKSt9type_infoP16TVirtualIsAProxyPFvPvR16TMemberInspectorES2_S2_ii
   fun:_ZN4ROOT17TGenericClassInfo8GetClassEv
   fun:_ZN15TStreamerString5ClassEv
   fun:_ZN13TStreamerInfo8StreamerER7TBuffer
   fun:_ZN11TBufferFile16WriteObjectClassEPKvPK6TClass
   fun:_ZN11TBufferFile14WriteObjectAnyEPKvPK6TClass
   fun:_ZN5TList8StreamerER7TBuffer
   fun:_ZN4TKeyC2EPK7TObjectPKciP10TDirectory
   fun:_ZN5TFile17WriteStreamerInfoEv
}
{
   <insert_a_suppression_name_here>
   Memcheck:Leak
   match-leak-kinds: possible
   fun:malloc
   fun:_Znwm
   fun:_ZN4ROOT11CreateClassEPKcsRKSt9type_infoP16TVirtualIsAProxyPFvPvR16TMemberInspectorES1_S1_ii
   fun:_ZNK4ROOT20TDefaultInitBehavior11CreateClassEPKcsRKSt9type_infoP16TVirtualIsAProxyPFvPvR16TMemberInspectorES2_S2_ii
   fun:_ZN4ROOT17TGenericClassInfo8GetClassEv
   fun:_ZN10TObjString5ClassEv
   fun:_ZNK6TClass14GetActualClassEPKv
   fun:_ZN11TBufferFile14WriteObjectAnyEPKvPK6TClass
   fun:_ZN5TList8StreamerER7TBuffer
   fun:_ZN11TBufferFile16WriteObjectClassEPKvPK6TClass
   fun:_ZN11TBufferFile14WriteObjectAnyEPKvPK6TClass
   fun:_ZN5TList8StreamerER7TBuffer
}
{
   <insert_a_suppression_name_here>
   Memcheck:Leak
   match-leak-kinds: possible
   fun:malloc
   fun:_Znwm
   fun:_ZN11TDataMemberC2EPvP6TClass
   fun:_ZN5TCint23CreateListOfDataMembersEP6TClass
   fun:_ZN6TClass20GetListOfDataMembersEv
   fun:_ZNK6TClass13GetDataMemberEPKc
   fun:_ZN14TBuildRealData7InspectEP6TClassPKcS3_PKv
   fun:_ZN16TStreamerElement11ShowMembersER16TMemberInspector
   fun:_ZNK6TClass15CallShowMembersEPvR16TMemberInspectori
   fun:_ZN6TClass13BuildRealDataEPvb
   fun:_ZN11TBufferFile16WriteClassBufferEPK6TClassPv
   fun:_ZN13TStreamerBase8StreamerER7TBuffer
}
{
   <insert_a_suppression_name_here>
   Memcheck:Leak
   match-leak-kinds: possible
   fun:malloc
   fun:_Znwm
   fun:_ZN13TStreamerInfo5BuildEv
   fun:_ZNK6TClass15GetStreamerInfoEi
   fun:_ZN13TStreamerInfo5BuildEv
   fun:_ZN11TBufferFile16WriteClassBufferEPK6TClassPv
   fun:_ZN5TTree8StreamerER7TBuffer
   fun:_ZN4TKeyC2EPK7TObjectPKciP10TDirectory
   fun:_ZN5TFile9CreateKeyEP10TDirectoryPK7TObjectPKci
   fun:_ZN14TDirectoryFile12WriteTObjectEPK7TObjectPKcS4_i
   fun:_ZNK7TObject5WriteEPKcii
   fun:main
}
{
   <insert_a_suppression_name_here>
   Memcheck:Leak
   match-leak-kinds: possible
   fun:malloc
   fun:_Znwm
   fun:_ZN13TStreamerInfo5BuildEv
   fun:_ZN11TBufferFile16WriteClassBufferEPK6TClassPv
   fun:_ZN14TBranchElement8StreamerER7TBuffer
   fun:_ZN11TBufferFile16WriteObjectClassEPKvPK6TClass
   fun:_ZN11TBufferFile14WriteObjectAnyEPKvPK6TClass
   fun:_ZN9TObjArray8StreamerER7TBuffer
   fun:_ZN11TBufferFile14WriteFastArrayEPvPK6TClassiP15TMemberStreamer
   fun:_ZN13TStreamerInfo14WriteBufferAuxIPPcEEiR7TBufferRKT_iiii
   fun:_ZN20TStreamerInfoActions18GenericWriteActionER7TBufferPvPKNS_14TConfigurationE
   fun:_ZN11TBufferFile13ApplySequenceERKN20TStreamerInfoActions15TActionSequenceEPv
}
{
   <insert_a_suppression_name_here>
   Memcheck:Leak
   match-leak-kinds: possible
   fun:malloc
   fun:_Znwm
   fun:_ZN6TNamed8SetTitleEPKc
   fun:_ZN11TDataMemberC2EPvP6TClass
   fun:_ZN5TCint23CreateListOfDataMembersEP6TClass
   fun:_ZN6TClass20GetListOfDataMembersEv
   fun:_ZNK6TClass13GetDataMemberEPKc
   fun:_ZN14TBuildRealData7InspectEP6TClassPKcS3_PKv
   fun:_ZN16TStreamerElement11ShowMembersER16TMemberInspector
   fun:_ZNK6TClass15CallShowMembersEPvR16TMemberInspectori
   fun:_ZN6TClass13BuildRealDataEPvb
   fun:_ZN11TBufferFile16WriteClassBufferEPK6TClassPv
}
{
   <insert_a_suppression_name_here>
   Memcheck:Leak
   match-leak-kinds: possible
   fun:malloc
   fun:_Znwm
   fun:_ZN5TCint23CreateListOfBaseClassesEP6TClass
   fun:_ZN6TClass25GetBaseClassOffsetRecurseEPKS_
   fun:_ZN6TClass18GetBaseClassOffsetEPKS_
   fun:_ZN11TBufferFile14WriteObjectAnyEPKvPK6TClass
   fun:_ZN9TObjArray8StreamerER7TBuffer
   fun:_ZN11TBufferFile16WriteObjectClassEPKvPK6TClass
   fun:_ZN11TBufferFile14WriteObjectAnyEPKvPK6TClass
   fun:_ZN13TStreamerInfo8StreamerER7TBuffer
   fun:_ZN11TBufferFile16WriteObjectClassEPKvPK6TClass
   fun:_ZN11TBufferFile14WriteObjectAnyEPKvPK6TClass
}
{
   <insert_a_suppression_name_here>
   Memcheck:Leak
   match-leak-kinds: definite
   fun:malloc
   fun:_Znwm
   fun:G__main
   fun:G__init_cint
   fun:_ZN5TCint8ResetAllEv
   fun:_ZN5TCintC2EPKcS1_
   fun:_ZN5TROOTC2EPKcS1_PPFvvE
   fun:_GLOBAL__I_a
   fun:_ZN16ImageLoaderMachO18doModInitFunctionsERKN11ImageLoader11LinkContextE
   fun:_ZN16ImageLoaderMachO16doInitializationERKN11ImageLoader11LinkContextE
   fun:_ZN11ImageLoader23recursiveInitializationERKNS_11LinkContextEjRNS_21InitializerTimingListE
   fun:_ZN11ImageLoader23recursiveInitializationERKNS_11LinkContextEjRNS_21InitializerTimingListE
}
{
   <insert_a_suppression_name_here>
   Memcheck:Leak
   match-leak-kinds: possible
   fun:malloc
   fun:_Znwm
   fun:_ZN13TStreamerInfo5BuildEv
   fun:_ZNK6TClass15GetStreamerInfoEi
   fun:_ZN13TStreamerInfo5BuildEv
   fun:_ZN11TBufferFile16WriteClassBufferEPK6TClassPv
   fun:_ZN14TBranchElement8StreamerER7TBuffer
   fun:_ZN11TBufferFile16WriteObjectClassEPKvPK6TClass
   fun:_ZN11TBufferFile14WriteObjectAnyEPKvPK6TClass
   fun:_ZN9TObjArray8StreamerER7TBuffer
   fun:_ZN11TBufferFile14WriteFastArrayEPvPK6TClassiP15TMemberStreamer
   fun:_ZN13TStreamerInfo14WriteBufferAuxIPPcEEiR7TBufferRKT_iiii
}
{
   <insert_a_suppression_name_here>
   Memcheck:Leak
   match-leak-kinds: definite
   fun:malloc
   fun:_Znwm
   fun:G__search_tagname
   fun:G__get_linked_tagnum_fwd
   fun:G__platformMacro
   fun:G__set_stdio
   fun:G__main
   fun:G__init_cint
   fun:_ZN5TCint8ResetAllEv
   fun:_ZN5TCintC2EPKcS1_
   fun:_ZN5TROOTC2EPKcS1_PPFvvE
   fun:_GLOBAL__I_a
}
{
   <insert_a_suppression_name_here>
   Memcheck:Leak
   match-leak-kinds: definite
   fun:malloc
   fun:_Znwm
   fun:_ZN5TCint17UpdateListOfTypesEv
   fun:_ZN5TROOT14GetListOfTypesEb
   fun:_ZNK5TROOT7GetTypeEPKcb
   fun:_ZN6TClass8GetClassEPKcbb
   fun:_ZN6TClass7AddRuleEPKc
   fun:_ZN12_GLOBAL__N_116ReadRulesContentEP7__sFILE
   fun:_ZN6TClass9ReadRulesEv
   fun:_ZN5TROOTC2EPKcS1_PPFvvE
   fun:_GLOBAL__I_a
   fun:_ZN16ImageLoaderMachO18doModInitFunctionsERKN11ImageLoader11LinkContextE
}
{
   <insert_a_suppression_name_here>
   Memcheck:Leak
   match-leak-kinds: definite
   fun:malloc
   fun:_Znwm
   fun:_ZN4Cint11G__TypeInfo4NameEv
   fun:_ZN5TCint17UpdateListOfTypesEv
   fun:_ZN5TROOT14GetListOfTypesEb
   fun:_ZNK5TROOT7GetTypeEPKcb
   fun:_ZN6TClass8GetClassEPKcbb
   fun:_ZN6TClass7AddRuleEPKc
   fun:_ZN12_GLOBAL__N_116ReadRulesContentEP7__sFILE
   fun:_ZN6TClass9ReadRulesEv
   fun:_ZN5TROOTC2EPKcS1_PPFvvE
   fun:_GLOBAL__I_a
}
{
   <insert_a_suppression_name_here>
   Memcheck:Leak
   match-leak-kinds: definite
   fun:malloc
   fun:_Znwm
   fun:_ZN9TDataTypeC2EPv
   fun:_ZN5TCint17UpdateListOfTypesEv
   fun:_ZN5TROOT14GetListOfTypesEb
   fun:_ZNK5TROOT7GetTypeEPKcb
   fun:_ZN6TClass8GetClassEPKcbb
   fun:_ZN6TClass7AddRuleEPKc
   fun:_ZN12_GLOBAL__N_116ReadRulesContentEP7__sFILE
   fun:_ZN6TClass9ReadRulesEv
   fun:_ZN5TROOTC2EPKcS1_PPFvvE
   fun:_GLOBAL__I_a
}
{
   <insert_a_suppression_name_here>
   Memcheck:Leak
   match-leak-kinds: possible
   fun:malloc
   fun:_Znwm
   fun:_ZN13TStreamerInfo5BuildEv
   fun:_ZN11TBufferFile16WriteClassBufferEPK6TClassPv
   fun:_ZN5TTree8StreamerER7TBuffer
   fun:_ZN4TKeyC2EPK7TObjectPKciP10TDirectory
   fun:_ZN5TFile9CreateKeyEP10TDirectoryPK7TObjectPKci
   fun:_ZN14TDirectoryFile12WriteTObjectEPK7TObjectPKcS4_i
   fun:_ZNK7TObject5WriteEPKcii
   fun:main
}
{
   <insert_a_suppression_name_here>
   Memcheck:Leak
   match-leak-kinds: definite
   fun:malloc
   fun:_Znwm
   fun:_ZN4Cint13G__MethodInfo14GetMangledNameEv
   fun:_ZN9TFunctionC2EPv
   fun:_ZN7TMethodC2EPvP6TClass
   fun:_ZN5TCint19CreateListOfMethodsEP6TClass
   fun:_ZN6TClass16GetListOfMethodsEv
   fun:_ZN6TClass14GetClassMethodEl
   fun:_ZN6TClass22GetMethodWithPrototypeEPKcS1_
   fun:_ZN14TPluginHandler12SetupCallEnvEv
   fun:_ZN14TPluginHandler10ExecPluginEiz
   fun:_ZN20TVirtualStreamerInfo7FactoryEv
}
{
   <insert_a_suppression_name_here>
   Memcheck:Leak
   match-leak-kinds: definite
   fun:malloc
   fun:_nc_table_new
   fun:__token_table_add_block_invoke
   fun:_dispatch_client_callout
   fun:dispatch_once_f
   fun:token_table_add
   fun:notify_register_check
   fun:__si_module_static_ds_block_invoke
   fun:_dispatch_client_callout
   fun:dispatch_once_f
   fun:si_module_static_ds
   fun:si_module_with_name
}
{
   <insert_a_suppression_name_here>
   Memcheck:Leak
   match-leak-kinds: possible
   fun:malloc
   fun:_Znwm
   fun:_ZN6TClass20GetListOfDataMembersEv
   fun:_ZNK6TClass13GetDataMemberEPKc
   fun:_ZN14TBuildRealData7InspectEP6TClassPKcS3_PKv
   fun:_ZN16TStreamerElement11ShowMembersER16TMemberInspector
   fun:_ZNK6TClass15CallShowMembersEPvR16TMemberInspectori
   fun:_ZN6TClass13BuildRealDataEPvb
   fun:_ZN11TBufferFile16WriteClassBufferEPK6TClassPv
   fun:_ZN13TStreamerBase8StreamerER7TBuffer
   fun:_ZN11TBufferFile16WriteObjectClassEPKvPK6TClass
   fun:_ZN11TBufferFile14WriteObjectAnyEPKvPK6TClass
}
{
   <insert_a_suppression_name_here>
   Memcheck:Leak
   match-leak-kinds: definite
   fun:malloc
   fun:_Znwm
   fun:_ZN9TFunctionC2EPv
   fun:_ZN7TMethodC2EPvP6TClass
   fun:_ZN5TCint19CreateListOfMethodsEP6TClass
   fun:_ZN6TClass16GetListOfMethodsEv
   fun:_ZN6TClass14GetClassMethodEl
   fun:_ZN6TClass22GetMethodWithPrototypeEPKcS1_
   fun:_ZN14TPluginHandler12SetupCallEnvEv
   fun:_ZN14TPluginHandler10ExecPluginEiz
   fun:_ZN20TVirtualStreamerInfo7FactoryEv
   fun:_ZN6TClass4InitEPKcsPKSt9type_infoP16TVirtualIsAProxyPFvPvR16TMemberInspectorES1_S1_iib
}
{
   <insert_a_suppression_name_here>
   Memcheck:Leak
   match-leak-kinds: definite
   fun:malloc
   fun:_Znwm
   fun:_ZN11TClassTable3AddEPKcsRKSt9type_infoPFvvEi
   fun:_ZN4ROOT17TGenericClassInfoC2EPKcS2_iRKSt9type_infoPKNS_13TInitBehaviorEPFvPvR16TMemberInspectorEPFvvEP16TVirtualIsAProxyii
   fun:_ZN4ROOTL25GenerateInitInstanceLocalEPKSs
   fun:_ZN4ROOT20GenerateInitInstanceEPKSs
   fun:_GLOBAL__I_a
   fun:_ZN16ImageLoaderMachO18doModInitFunctionsERKN11ImageLoader11LinkContextE
   fun:_ZN16ImageLoaderMachO16doInitializationERKN11ImageLoader11LinkContextE
   fun:_ZN11ImageLoader23recursiveInitializationERKNS_11LinkContextEjRNS_21InitializerTimingListE
   fun:_ZN11ImageLoader23recursiveInitializationERKNS_11LinkContextEjRNS_21InitializerTimingListE
   fun:_ZN11ImageLoader15runInitializersERKNS_11LinkContextERNS_21InitializerTimingListE
}
{
   <insert_a_suppression_name_here>
   Memcheck:Leak
   match-leak-kinds: definite
   fun:malloc
   fun:_Znwm
   fun:_ZN16G__IncSetupStack4pushEv
   fun:G__resetplocal
   fun:_ZL20G__cpp_setup_global0v
   fun:G__cpp_setup_globalManualBase4
   fun:G__cpp_setupManualBase4
   fun:G__call_setup_funcs
   fun:G__main
   fun:G__init_cint
   fun:_ZN5TCint8ResetAllEv
   fun:_ZN5TCintC2EPKcS1_
}
{
   <insert_a_suppression_name_here>
   Memcheck:Leak
   match-leak-kinds: definite
   fun:malloc
   fun:_Znwm
   fun:_ZN8SettingsC1EPKc
   obj:*
   fun:_ZNSs4_Rep9_S_createEmmRKSaIcE
   fun:_ZN9__gnu_cxxL18__exchange_and_addEPVii.constprop.46
   fun:_ZNSs12_S_constructIPKcEEPcT_S3_RKSaIcESt20forward_iterator_tag
   obj:*
   obj:*
}
{
   <insert_a_suppression_name_here>
   Memcheck:Leak
   match-leak-kinds: possible
   fun:malloc
   fun:tzsetwall_basic
   fun:_st_tzset_basic
   fun:localtime_r
   fun:_ZN7TDatime3SetEjb
   fun:_GLOBAL__I_a
   fun:_ZN16ImageLoaderMachO18doModInitFunctionsERKN11ImageLoader11LinkContextE
   fun:_ZN16ImageLoaderMachO16doInitializationERKN11ImageLoader11LinkContextE
   fun:_ZN11ImageLoader23recursiveInitializationERKNS_11LinkContextEjRNS_21InitializerTimingListE
   fun:_ZN11ImageLoader23recursiveInitializationERKNS_11LinkContextEjRNS_21InitializerTimingListE
   fun:_ZN11ImageLoader15runInitializersERKNS_11LinkContextERNS_21InitializerTimingListE
   fun:_ZN4dyld24initializeMainExecutableEv
}
{
   <insert_a_suppression_name_here>
   Memcheck:Leak
   match-leak-kinds: definite
   fun:malloc
   fun:atexit_register
   fun:__cxa_atexit
   fun:_ZN12_GLOBAL__N_116CanSelfReferenceEP6TClass
   fun:_ZN14TBranchElement4InitEP5TTreeP7TBranchPKcP13TStreamerInfoiPciii
   fun:_ZN14TBranchElementC2EP5TTreePKcP13TStreamerInfoiPciii
   fun:_ZN5TTree10BronchExecEPKcS1_Pvbii
   fun:_ZN19MidasEventProcessorC1EP5TFileP5TTreeP8Settings
   obj:*
}
{
   <insert_a_suppression_name_here>
   Memcheck:Leak
   match-leak-kinds: definite
   fun:malloc
   fun:_Znwm
   fun:_ZNSt3mapISsP6TClassSt4lessISsESaISt4pairIKSsS1_EEEixERS5_
   fun:_ZN6TClass8AddClassEPS_
   fun:_ZN6TClass4InitEPKcsPKSt9type_infoP16TVirtualIsAProxyPFvPvR16TMemberInspectorES1_S1_iib
   fun:_ZN6TClassC2EPKcsRKSt9type_infoP16TVirtualIsAProxyPFvPvR16TMemberInspectorES1_S1_iib
   fun:_ZN4ROOT11CreateClassEPKcsRKSt9type_infoP16TVirtualIsAProxyPFvPvR16TMemberInspectorES1_S1_ii
   fun:_ZNK4ROOT20TDefaultInitBehavior11CreateClassEPKcsRKSt9type_infoP16TVirtualIsAProxyPFvPvR16TMemberInspectorES2_S2_ii
   fun:_ZN4ROOT17TGenericClassInfo8GetClassEv
   fun:_ZN10TAttMarker10DictionaryEv
   fun:_ZNK5TROOT9LoadClassEPKcb
   fun:_ZN6TClass8GetClassEPKcbb
}
{
   <insert_a_suppression_name_here>
   Memcheck:Leak
   match-leak-kinds: definite
   fun:malloc
   fun:_Znwm
   fun:_ZN12TObjectTable6AddObjEP7TObject
   fun:_ZN11TClassTableC2Ev
   fun:_ZN11TClassTable3AddEPKcsRKSt9type_infoPFvvEi
   fun:_ZN4ROOT17TGenericClassInfoC2EPKcS2_iRKSt9type_infoPKNS_13TInitBehaviorEPFvPvR16TMemberInspectorEPFvvEP16TVirtualIsAProxyii
   fun:_ZN4ROOTL25GenerateInitInstanceLocalEPKSs
   fun:_ZN4ROOT20GenerateInitInstanceEPKSs
   fun:_GLOBAL__I_a
   fun:_ZN16ImageLoaderMachO18doModInitFunctionsERKN11ImageLoader11LinkContextE
   fun:_ZN16ImageLoaderMachO16doInitializationERKN11ImageLoader11LinkContextE
   fun:_ZN11ImageLoader23recursiveInitializationERKNS_11LinkContextEjRNS_21InitializerTimingListE
}
{
   <insert_a_suppression_name_here>
   Memcheck:Leak
   match-leak-kinds: definite
   fun:malloc
   fun:G__memfunc_setup_imp
   fun:G__memfunc_setup
   fun:_ZL18G__cpp_setup_func2v
   fun:G__cpp_setup_funcManualBase4
   fun:G__cpp_setupManualBase4
   fun:G__call_setup_funcs
   fun:G__main
   fun:G__init_cint
   fun:_ZN5TCint8ResetAllEv
   fun:_ZN5TCintC2EPKcS1_
   fun:_ZN5TROOTC2EPKcS1_PPFvvE
}
{
   <insert_a_suppression_name_here>
   Memcheck:Leak
   match-leak-kinds: definite
   fun:malloc
   fun:_Znwm
   fun:_ZN5TROOT14GetListOfTypesEb
   fun:_ZNK5TROOT7GetTypeEPKcb
   fun:_ZN6TClass8GetClassEPKcbb
   fun:_ZN6TClass7AddRuleEPKc
   fun:_ZN12_GLOBAL__N_116ReadRulesContentEP7__sFILE
   fun:_ZN6TClass9ReadRulesEv
   fun:_ZN5TROOTC2EPKcS1_PPFvvE
   fun:_GLOBAL__I_a
   fun:_ZN16ImageLoaderMachO18doModInitFunctionsERKN11ImageLoader11LinkContextE
   fun:_ZN16ImageLoaderMachO16doInitializationERKN11ImageLoader11LinkContextE
}
{
   <insert_a_suppression_name_here>
   Memcheck:Leak
   match-leak-kinds: definite
   fun:malloc
   fun:_Znwm
   fun:_ZN5TROOT16GetListOfGlobalsEb
   fun:_ZN11TDataMemberC2EPvP6TClass
   fun:_ZN5TCint23CreateListOfDataMembersEP6TClass
   fun:_ZN6TClass20GetListOfDataMembersEv
   fun:_ZNK6TClass13GetDataMemberEPKc
   fun:_ZN14TBuildRealData7InspectEP6TClassPKcS3_PKv
   fun:_ZN7TObject11ShowMembersER16TMemberInspector
   fun:_ZNK6TClass15CallShowMembersEPvR16TMemberInspectori
   fun:_ZN6TClass13BuildRealDataEPvb
   fun:_ZN14TBuildRealData7InspectEP6TClassPKcS3_PKv
}
{
   <insert_a_suppression_name_here>
   Memcheck:Cond
   fun:_ZN10TClassEdit8GetSplitEPKcRSt6vectorISsSaISsEERiNS_8EModTypeE
   fun:_ZN10TClassEdit10TSplitTypeC1EPKcNS_8EModTypeE
   fun:_ZN6TClass8GetClassEPKcbb
   fun:_ZN6TClass7AddRuleEPKc
   fun:_ZN12_GLOBAL__N_116ReadRulesContentEP7__sFILE
   fun:_ZN6TClass9ReadRulesEv
   fun:_ZN5TROOTC2EPKcS1_PPFvvE
   fun:_GLOBAL__I_a
   fun:_ZN16ImageLoaderMachO18doModInitFunctionsERKN11ImageLoader11LinkContextE
   fun:_ZN16ImageLoaderMachO16doInitializationERKN11ImageLoader11LinkContextE
   fun:_ZN11ImageLoader23recursiveInitializationERKNS_11LinkContextEjRNS_21InitializerTimingListE
   fun:_ZN11ImageLoader23recursiveInitializationERKNS_11LinkContextEjRNS_21InitializerTimingListE
}
{
   <insert_a_suppression_name_here>
   Memcheck:Cond
   fun:_ZN10TClassEdit8GetSplitEPKcRSt6vectorISsSaISsEERiNS_8EModTypeE
   fun:_ZN10TClassEdit10TSplitTypeC1EPKcNS_8EModTypeE
   fun:_ZN11TClassTable11FindElementEPKcb
   fun:_ZN11TClassTable7GetDictEPKc
   fun:_ZNK5TROOT9LoadClassEPKcb
   fun:_ZN6TClass8GetClassEPKcbb
   fun:_ZN6TClass7AddRuleEPKc
   fun:_ZN12_GLOBAL__N_116ReadRulesContentEP7__sFILE
   fun:_ZN6TClass9ReadRulesEv
   fun:_ZN5TROOTC2EPKcS1_PPFvvE
   fun:_GLOBAL__I_a
   fun:_ZN16ImageLoaderMachO18doModInitFunctionsERKN11ImageLoader11LinkContextE
}
{
   <insert_a_suppression_name_here>
   Memcheck:Cond
   fun:_ZN10TClassEdit10TSplitType9ShortTypeERSsi
   fun:_ZN11TClassTable3AddEPKcsRKSt9type_infoPFvvEi
   fun:_ZN4ROOT17TGenericClassInfoC2EPKciS2_iRKSt9type_infoPKNS_13TInitBehaviorEPFvvEP16TVirtualIsAProxyii
   fun:_ZN4ROOTL25GenerateInitInstanceLocalEPK13TRemoteObject
   fun:_ZN4ROOT20GenerateInitInstanceEPK13TRemoteObject
   fun:_GLOBAL__I_a
   fun:_ZN16ImageLoaderMachO18doModInitFunctionsERKN11ImageLoader11LinkContextE
   fun:_ZN16ImageLoaderMachO16doInitializationERKN11ImageLoader11LinkContextE
   fun:_ZN11ImageLoader23recursiveInitializationERKNS_11LinkContextEjRNS_21InitializerTimingListE
   fun:_ZN11ImageLoader23recursiveInitializationERKNS_11LinkContextEjRNS_21InitializerTimingListE
   fun:_ZN11ImageLoader15runInitializersERKNS_11LinkContextERNS_21InitializerTimingListE
   fun:_ZN4dyld24initializeMainExecutableEv
}
{
   <insert_a_suppression_name_here>
   Memcheck:Cond
   fun:_ZN10TClassEdit10TSplitType9ShortTypeERSsi
   fun:_ZN11TClassTable3AddEPKcsRKSt9type_infoPFvvEi
   fun:_ZN4ROOT17TGenericClassInfoC2EPKciS2_iRKSt9type_infoPKNS_13TInitBehaviorEPFvvEP16TVirtualIsAProxyii
   fun:_ZN4ROOTL25GenerateInitInstanceLocalEPK10TStopwatch
   fun:_ZN4ROOT20GenerateInitInstanceEPK10TStopwatch
   fun:_GLOBAL__I_a
   fun:_ZN16ImageLoaderMachO18doModInitFunctionsERKN11ImageLoader11LinkContextE
   fun:_ZN16ImageLoaderMachO16doInitializationERKN11ImageLoader11LinkContextE
   fun:_ZN11ImageLoader23recursiveInitializationERKNS_11LinkContextEjRNS_21InitializerTimingListE
   fun:_ZN11ImageLoader23recursiveInitializationERKNS_11LinkContextEjRNS_21InitializerTimingListE
   fun:_ZN11ImageLoader15runInitializersERKNS_11LinkContextERNS_21InitializerTimingListE
   fun:_ZN4dyld24initializeMainExecutableEv
}
{
   <insert_a_suppression_name_here>
   Memcheck:Cond
   fun:_ZN10TClassEdit10TSplitType9ShortTypeERSsi
   fun:_ZN11TClassTable3AddEPKcsRKSt9type_infoPFvvEi
   fun:_ZN4ROOT17TGenericClassInfoC2EPKciS2_iRKSt9type_infoPKNS_13TInitBehaviorEPFvvEP16TVirtualIsAProxyii
   fun:_ZN4ROOTL25GenerateInitInstanceLocalEPK8TStorage
   fun:_ZN4ROOT20GenerateInitInstanceEPK8TStorage
   fun:_GLOBAL__I_a
   fun:_ZN16ImageLoaderMachO18doModInitFunctionsERKN11ImageLoader11LinkContextE
   fun:_ZN16ImageLoaderMachO16doInitializationERKN11ImageLoader11LinkContextE
   fun:_ZN11ImageLoader23recursiveInitializationERKNS_11LinkContextEjRNS_21InitializerTimingListE
   fun:_ZN11ImageLoader23recursiveInitializationERKNS_11LinkContextEjRNS_21InitializerTimingListE
   fun:_ZN11ImageLoader15runInitializersERKNS_11LinkContextERNS_21InitializerTimingListE
   fun:_ZN4dyld24initializeMainExecutableEv
}
{
   <insert_a_suppression_name_here>
   Memcheck:Cond
   fun:_ZN10TClassEdit10TSplitType9ShortTypeERSsi
   fun:_ZN11TClassTable3AddEPKcsRKSt9type_infoPFvvEi
   fun:_ZN4ROOT17TGenericClassInfoC2EPKciS2_iRKSt9type_infoPKNS_13TInitBehaviorEPFvvEP16TVirtualIsAProxyii
   fun:_ZN4ROOTL25GenerateInitInstanceLocalEPK11TStringLong
   fun:_ZN4ROOT20GenerateInitInstanceEPK11TStringLong
   fun:_GLOBAL__I_a
   fun:_ZN16ImageLoaderMachO18doModInitFunctionsERKN11ImageLoader11LinkContextE
   fun:_ZN16ImageLoaderMachO16doInitializationERKN11ImageLoader11LinkContextE
   fun:_ZN11ImageLoader23recursiveInitializationERKNS_11LinkContextEjRNS_21InitializerTimingListE
   fun:_ZN11ImageLoader23recursiveInitializationERKNS_11LinkContextEjRNS_21InitializerTimingListE
   fun:_ZN11ImageLoader15runInitializersERKNS_11LinkContextERNS_21InitializerTimingListE
   fun:_ZN4dyld24initializeMainExecutableEv
}
{
   <insert_a_suppression_name_here>
   Memcheck:Cond
   fun:_ZN10TClassEdit10TSplitType9ShortTypeERSsi
   fun:_ZN11TClassTable3AddEPKcsRKSt9type_infoPFvvEi
   fun:_ZN4ROOT17TGenericClassInfoC2EPKciS2_iRKSt9type_infoPKNS_13TInitBehaviorEPFvvEP16TVirtualIsAProxyii
   fun:_ZN4ROOTL25GenerateInitInstanceLocalEPK14TSysEvtHandler
   fun:_ZN4ROOT20GenerateInitInstanceEPK14TSysEvtHandler
   fun:_GLOBAL__I_a
   fun:_ZN16ImageLoaderMachO18doModInitFunctionsERKN11ImageLoader11LinkContextE
   fun:_ZN16ImageLoaderMachO16doInitializationERKN11ImageLoader11LinkContextE
   fun:_ZN11ImageLoader23recursiveInitializationERKNS_11LinkContextEjRNS_21InitializerTimingListE
   fun:_ZN11ImageLoader23recursiveInitializationERKNS_11LinkContextEjRNS_21InitializerTimingListE
   fun:_ZN11ImageLoader15runInitializersERKNS_11LinkContextERNS_21InitializerTimingListE
   fun:_ZN4dyld24initializeMainExecutableEv
}
{
   <insert_a_suppression_name_here>
   Memcheck:Cond
   fun:_ZN10TClassEdit10TSplitType9ShortTypeERSsi
   fun:_ZN11TClassTable3AddEPKcsRKSt9type_infoPFvvEi
   fun:_ZN4ROOT17TGenericClassInfoC2EPKciS2_iRKSt9type_infoPKNS_13TInitBehaviorEPFvvEP16TVirtualIsAProxyii
   fun:_ZN4ROOTL25GenerateInitInstanceLocalEPK12TFileHandler
   fun:_ZN4ROOT20GenerateInitInstanceEPK12TFileHandler
   fun:_GLOBAL__I_a
   fun:_ZN16ImageLoaderMachO18doModInitFunctionsERKN11ImageLoader11LinkContextE
   fun:_ZN16ImageLoaderMachO16doInitializationERKN11ImageLoader11LinkContextE
   fun:_ZN11ImageLoader23recursiveInitializationERKNS_11LinkContextEjRNS_21InitializerTimingListE
   fun:_ZN11ImageLoader23recursiveInitializationERKNS_11LinkContextEjRNS_21InitializerTimingListE
   fun:_ZN11ImageLoader15runInitializersERKNS_11LinkContextERNS_21InitializerTimingListE
   fun:_ZN4dyld24initializeMainExecutableEv
}
{
   <insert_a_suppression_name_here>
   Memcheck:Cond
   fun:_ZN10TClassEdit10TSplitType9ShortTypeERSsi
   fun:_ZN11TClassTable3AddEPKcsRKSt9type_infoPFvvEi
   fun:_ZN4ROOT17TGenericClassInfoC2EPKciS2_iRKSt9type_infoPKNS_13TInitBehaviorEPFvvEP16TVirtualIsAProxyii
   fun:_ZN4ROOTL25GenerateInitInstanceLocalEPK14TSignalHandler
   fun:_ZN4ROOT20GenerateInitInstanceEPK14TSignalHandler
   fun:_GLOBAL__I_a
   fun:_ZN16ImageLoaderMachO18doModInitFunctionsERKN11ImageLoader11LinkContextE
   fun:_ZN16ImageLoaderMachO16doInitializationERKN11ImageLoader11LinkContextE
   fun:_ZN11ImageLoader23recursiveInitializationERKNS_11LinkContextEjRNS_21InitializerTimingListE
   fun:_ZN11ImageLoader23recursiveInitializationERKNS_11LinkContextEjRNS_21InitializerTimingListE
   fun:_ZN11ImageLoader15runInitializersERKNS_11LinkContextERNS_21InitializerTimingListE
   fun:_ZN4dyld24initializeMainExecutableEv
}
{
   <insert_a_suppression_name_here>
   Memcheck:Cond
   fun:_ZN10TClassEdit10TSplitType9ShortTypeERSsi
   fun:_ZN11TClassTable3AddEPKcsRKSt9type_infoPFvvEi
   fun:_ZN4ROOT17TGenericClassInfoC2EPKciS2_iRKSt9type_infoPKNS_13TInitBehaviorEPFvvEP16TVirtualIsAProxyii
   fun:_ZN4ROOTL25GenerateInitInstanceLocalEPK20TStdExceptionHandler
   fun:_ZN4ROOT20GenerateInitInstanceEPK20TStdExceptionHandler
   fun:_GLOBAL__I_a
   fun:_ZN16ImageLoaderMachO18doModInitFunctionsERKN11ImageLoader11LinkContextE
   fun:_ZN16ImageLoaderMachO16doInitializationERKN11ImageLoader11LinkContextE
   fun:_ZN11ImageLoader23recursiveInitializationERKNS_11LinkContextEjRNS_21InitializerTimingListE
   fun:_ZN11ImageLoader23recursiveInitializationERKNS_11LinkContextEjRNS_21InitializerTimingListE
   fun:_ZN11ImageLoader15runInitializersERKNS_11LinkContextERNS_21InitializerTimingListE
   fun:_ZN4dyld24initializeMainExecutableEv
}
{
   <insert_a_suppression_name_here>
   Memcheck:Cond
   fun:_ZN10TClassEdit10TSplitType9ShortTypeERSsi
   fun:_ZN11TClassTable3AddEPKcsRKSt9type_infoPFvvEi
   fun:_ZN4ROOT17TGenericClassInfoC2EPKciS2_iRKSt9type_infoPKNS_13TInitBehaviorEPFvvEP16TVirtualIsAProxyii
   fun:_ZN4ROOTL25GenerateInitInstanceLocalEPK18TProcessEventTimer
   fun:_ZN4ROOT20GenerateInitInstanceEPK18TProcessEventTimer
   fun:_GLOBAL__I_a
   fun:_ZN16ImageLoaderMachO18doModInitFunctionsERKN11ImageLoader11LinkContextE
   fun:_ZN16ImageLoaderMachO16doInitializationERKN11ImageLoader11LinkContextE
   fun:_ZN11ImageLoader23recursiveInitializationERKNS_11LinkContextEjRNS_21InitializerTimingListE
   fun:_ZN11ImageLoader23recursiveInitializationERKNS_11LinkContextEjRNS_21InitializerTimingListE
   fun:_ZN11ImageLoader15runInitializersERKNS_11LinkContextERNS_21InitializerTimingListE
   fun:_ZN4dyld24initializeMainExecutableEv
}
{
   <insert_a_suppression_name_here>
   Memcheck:Cond
   fun:_ZN10TClassEdit10TSplitType9ShortTypeERSsi
   fun:_ZN11TClassTable3AddEPKcsRKSt9type_infoPFvvEi
   fun:_ZN4ROOT17TGenericClassInfoC2EPKciS2_iRKSt9type_infoPKNS_13TInitBehaviorEPFvvEP16TVirtualIsAProxyii
   fun:_ZN4ROOTL25GenerateInitInstanceLocalEPK16TSystemDirectory
   fun:_ZN4ROOT20GenerateInitInstanceEPK16TSystemDirectory
   fun:_GLOBAL__I_a
   fun:_ZN16ImageLoaderMachO18doModInitFunctionsERKN11ImageLoader11LinkContextE
   fun:_ZN16ImageLoaderMachO16doInitializationERKN11ImageLoader11LinkContextE
   fun:_ZN11ImageLoader23recursiveInitializationERKNS_11LinkContextEjRNS_21InitializerTimingListE
   fun:_ZN11ImageLoader23recursiveInitializationERKNS_11LinkContextEjRNS_21InitializerTimingListE
   fun:_ZN11ImageLoader15runInitializersERKNS_11LinkContextERNS_21InitializerTimingListE
   fun:_ZN4dyld24initializeMainExecutableEv
}
{
   <insert_a_suppression_name_here>
   Memcheck:Cond
   fun:_ZN10TClassEdit10TSplitType9ShortTypeERSsi
   fun:_ZN11TClassTable3AddEPKcsRKSt9type_infoPFvvEi
   fun:_ZN4ROOT17TGenericClassInfoC2EPKciS2_iRKSt9type_infoPKNS_13TInitBehaviorEPFvvEP16TVirtualIsAProxyii
   fun:_ZN4ROOTL25GenerateInitInstanceLocalEPK11TSystemFile
   fun:_ZN4ROOT20GenerateInitInstanceEPK11TSystemFile
   fun:_GLOBAL__I_a
   fun:_ZN16ImageLoaderMachO18doModInitFunctionsERKN11ImageLoader11LinkContextE
   fun:_ZN16ImageLoaderMachO16doInitializationERKN11ImageLoader11LinkContextE
   fun:_ZN11ImageLoader23recursiveInitializationERKNS_11LinkContextEjRNS_21InitializerTimingListE
   fun:_ZN11ImageLoader23recursiveInitializationERKNS_11LinkContextEjRNS_21InitializerTimingListE
   fun:_ZN11ImageLoader15runInitializersERKNS_11LinkContextERNS_21InitializerTimingListE
   fun:_ZN4dyld24initializeMainExecutableEv
}
{
   <insert_a_suppression_name_here>
   Memcheck:Cond
   fun:_ZN10TClassEdit10TSplitType9ShortTypeERSsi
   fun:_ZN11TClassTable3AddEPKcsRKSt9type_infoPFvvEi
   fun:_ZN4ROOT17TGenericClassInfoC2EPKciS2_iRKSt9type_infoPKNS_13TInitBehaviorEPFvvEP16TVirtualIsAProxyii
   fun:_ZN4ROOTL25GenerateInitInstanceLocalEPK10TTimeStamp
   fun:_ZN4ROOT20GenerateInitInstanceEPK10TTimeStamp
   fun:_GLOBAL__I_a
   fun:_ZN16ImageLoaderMachO18doModInitFunctionsERKN11ImageLoader11LinkContextE
   fun:_ZN16ImageLoaderMachO16doInitializationERKN11ImageLoader11LinkContextE
   fun:_ZN11ImageLoader23recursiveInitializationERKNS_11LinkContextEjRNS_21InitializerTimingListE
   fun:_ZN11ImageLoader23recursiveInitializationERKNS_11LinkContextEjRNS_21InitializerTimingListE
   fun:_ZN11ImageLoader15runInitializersERKNS_11LinkContextERNS_21InitializerTimingListE
   fun:_ZN4dyld24initializeMainExecutableEv
}
{
   <insert_a_suppression_name_here>
   Memcheck:Cond
   fun:_ZN10TClassEdit10TSplitType9ShortTypeERSsi
   fun:_ZN11TClassTable3AddEPKcsRKSt9type_infoPFvvEi
   fun:_ZN4ROOT17TGenericClassInfoC2EPKciS2_iRKSt9type_infoPKNS_13TInitBehaviorEPFvvEP16TVirtualIsAProxyii
   fun:_ZN4ROOTL25GenerateInitInstanceLocalEPK11TVirtualFFT
   fun:_ZN4ROOT20GenerateInitInstanceEPK11TVirtualFFT
   fun:_GLOBAL__I_a
   fun:_ZN16ImageLoaderMachO18doModInitFunctionsERKN11ImageLoader11LinkContextE
   fun:_ZN16ImageLoaderMachO16doInitializationERKN11ImageLoader11LinkContextE
   fun:_ZN11ImageLoader23recursiveInitializationERKNS_11LinkContextEjRNS_21InitializerTimingListE
   fun:_ZN11ImageLoader23recursiveInitializationERKNS_11LinkContextEjRNS_21InitializerTimingListE
   fun:_ZN11ImageLoader15runInitializersERKNS_11LinkContextERNS_21InitializerTimingListE
   fun:_ZN4dyld24initializeMainExecutableEv
}
{
   <insert_a_suppression_name_here>
   Memcheck:Cond
   fun:_ZN10TClassEdit10TSplitType9ShortTypeERSsi
   fun:_ZN11TClassTable3AddEPKcsRKSt9type_infoPFvvEi
   fun:_ZN4ROOT17TGenericClassInfoC2EPKciS2_iRKSt9type_infoPKNS_13TInitBehaviorEPFvvEP16TVirtualIsAProxyii
   fun:_ZN4ROOTL25GenerateInitInstanceLocalEPK10TGLManager
   fun:_ZN4ROOT20GenerateInitInstanceEPK10TGLManager
   fun:_GLOBAL__I_a
   fun:_ZN16ImageLoaderMachO18doModInitFunctionsERKN11ImageLoader11LinkContextE
   fun:_ZN16ImageLoaderMachO16doInitializationERKN11ImageLoader11LinkContextE
   fun:_ZN11ImageLoader23recursiveInitializationERKNS_11LinkContextEjRNS_21InitializerTimingListE
   fun:_ZN11ImageLoader23recursiveInitializationERKNS_11LinkContextEjRNS_21InitializerTimingListE
   fun:_ZN11ImageLoader15runInitializersERKNS_11LinkContextERNS_21InitializerTimingListE
   fun:_ZN4dyld24initializeMainExecutableEv
}
{
   <insert_a_suppression_name_here>
   Memcheck:Cond
   fun:_ZN10TClassEdit10TSplitType9ShortTypeERSsi
   fun:_ZN11TClassTable3AddEPKcsRKSt9type_infoPFvvEi
   fun:_ZN4ROOT17TGenericClassInfoC2EPKciS2_iRKSt9type_infoPKNS_13TInitBehaviorEPFvvEP16TVirtualIsAProxyii
   fun:_ZN4ROOTL25GenerateInitInstanceLocalEPK17TVirtualGLPainter
   fun:_ZN4ROOT20GenerateInitInstanceEPK17TVirtualGLPainter
   fun:_GLOBAL__I_a
   fun:_ZN16ImageLoaderMachO18doModInitFunctionsERKN11ImageLoader11LinkContextE
   fun:_ZN16ImageLoaderMachO16doInitializationERKN11ImageLoader11LinkContextE
   fun:_ZN11ImageLoader23recursiveInitializationERKNS_11LinkContextEjRNS_21InitializerTimingListE
   fun:_ZN11ImageLoader23recursiveInitializationERKNS_11LinkContextEjRNS_21InitializerTimingListE
   fun:_ZN11ImageLoader15runInitializersERKNS_11LinkContextERNS_21InitializerTimingListE
   fun:_ZN4dyld24initializeMainExecutableEv
}
{
   <insert_a_suppression_name_here>
   Memcheck:Cond
   fun:_ZN10TClassEdit10TSplitType9ShortTypeERSsi
   fun:_ZN11TClassTable3AddEPKcsRKSt9type_infoPFvvEi
   fun:_ZN4ROOT17TGenericClassInfoC2EPKciS2_iRKSt9type_infoPKNS_13TInitBehaviorEPFvvEP16TVirtualIsAProxyii
   fun:_ZN4ROOTL25GenerateInitInstanceLocalEPK15TVirtualGLManip
   fun:_ZN4ROOT20GenerateInitInstanceEPK15TVirtualGLManip
   fun:_GLOBAL__I_a
   fun:_ZN16ImageLoaderMachO18doModInitFunctionsERKN11ImageLoader11LinkContextE
   fun:_ZN16ImageLoaderMachO16doInitializationERKN11ImageLoader11LinkContextE
   fun:_ZN11ImageLoader23recursiveInitializationERKNS_11LinkContextEjRNS_21InitializerTimingListE
   fun:_ZN11ImageLoader23recursiveInitializationERKNS_11LinkContextEjRNS_21InitializerTimingListE
   fun:_ZN11ImageLoader15runInitializersERKNS_11LinkContextERNS_21InitializerTimingListE
   fun:_ZN4dyld24initializeMainExecutableEv
}
{
   <insert_a_suppression_name_here>
   Memcheck:Cond
   fun:_ZN10TClassEdit10TSplitType9ShortTypeERSsi
   fun:_ZN11TClassTable3AddEPKcsRKSt9type_infoPFvvEi
   fun:_ZN4ROOT17TGenericClassInfoC2EPKciS2_iRKSt9type_infoPKNS_13TInitBehaviorEPFvvEP16TVirtualIsAProxyii
   fun:_ZN4ROOTL25GenerateInitInstanceLocalEPK14TGLPaintDevice
   fun:_ZN4ROOT20GenerateInitInstanceEPK14TGLPaintDevice
   fun:_GLOBAL__I_a
   fun:_ZN16ImageLoaderMachO18doModInitFunctionsERKN11ImageLoader11LinkContextE
   fun:_ZN16ImageLoaderMachO16doInitializationERKN11ImageLoader11LinkContextE
   fun:_ZN11ImageLoader23recursiveInitializationERKNS_11LinkContextEjRNS_21InitializerTimingListE
   fun:_ZN11ImageLoader23recursiveInitializationERKNS_11LinkContextEjRNS_21InitializerTimingListE
   fun:_ZN11ImageLoader15runInitializersERKNS_11LinkContextERNS_21InitializerTimingListE
   fun:_ZN4dyld24initializeMainExecutableEv
}
{
   <insert_a_suppression_name_here>
   Memcheck:Cond
   fun:_ZN10TClassEdit10TSplitType9ShortTypeERSsi
   fun:_ZN11TClassTable3AddEPKcsRKSt9type_infoPFvvEi
   fun:_ZN4ROOT17TGenericClassInfoC2EPKciS2_iRKSt9type_infoPKNS_13TInitBehaviorEPFvvEP16TVirtualIsAProxyii
   fun:_ZN4ROOTL25GenerateInitInstanceLocalEPK24TVirtualMonitoringWriter
   fun:_ZN4ROOT20GenerateInitInstanceEPK24TVirtualMonitoringWriter
   fun:_GLOBAL__I_a
   fun:_ZN16ImageLoaderMachO18doModInitFunctionsERKN11ImageLoader11LinkContextE
   fun:_ZN16ImageLoaderMachO16doInitializationERKN11ImageLoader11LinkContextE
   fun:_ZN11ImageLoader23recursiveInitializationERKNS_11LinkContextEjRNS_21InitializerTimingListE
   fun:_ZN11ImageLoader23recursiveInitializationERKNS_11LinkContextEjRNS_21InitializerTimingListE
   fun:_ZN11ImageLoader15runInitializersERKNS_11LinkContextERNS_21InitializerTimingListE
   fun:_ZN4dyld24initializeMainExecutableEv
}
{
   <insert_a_suppression_name_here>
   Memcheck:Cond
   fun:_ZN10TClassEdit10TSplitType9ShortTypeERSsi
   fun:_ZN11TClassTable3AddEPKcsRKSt9type_infoPFvvEi
   fun:_ZN4ROOT17TGenericClassInfoC2EPKciS2_iRKSt9type_infoPKNS_13TInitBehaviorEPFvvEP16TVirtualIsAProxyii
   fun:_ZN4ROOTL25GenerateInitInstanceLocalEPK24TVirtualMonitoringReader
   fun:_ZN4ROOT20GenerateInitInstanceEPK24TVirtualMonitoringReader
   fun:_GLOBAL__I_a
   fun:_ZN16ImageLoaderMachO18doModInitFunctionsERKN11ImageLoader11LinkContextE
   fun:_ZN16ImageLoaderMachO16doInitializationERKN11ImageLoader11LinkContextE
   fun:_ZN11ImageLoader23recursiveInitializationERKNS_11LinkContextEjRNS_21InitializerTimingListE
   fun:_ZN11ImageLoader23recursiveInitializationERKNS_11LinkContextEjRNS_21InitializerTimingListE
   fun:_ZN11ImageLoader15runInitializersERKNS_11LinkContextERNS_21InitializerTimingListE
   fun:_ZN4dyld24initializeMainExecutableEv
}
{
   <insert_a_suppression_name_here>
   Memcheck:Cond
   fun:_ZN10TClassEdit10TSplitType9ShortTypeERSsi
   fun:_ZN11TClassTable3AddEPKcsRKSt9type_infoPFvvEi
   fun:_ZN4ROOT17TGenericClassInfoC2EPKciS2_iRKSt9type_infoPKNS_13TInitBehaviorEPFvvEP16TVirtualIsAProxyii
   fun:_ZN4ROOTL25GenerateInitInstanceLocalEPK13TVirtualMutex
   fun:_ZN4ROOT20GenerateInitInstanceEPK13TVirtualMutex
   fun:_GLOBAL__I_a
   fun:_ZN16ImageLoaderMachO18doModInitFunctionsERKN11ImageLoader11LinkContextE
   fun:_ZN16ImageLoaderMachO16doInitializationERKN11ImageLoader11LinkContextE
   fun:_ZN11ImageLoader23recursiveInitializationERKNS_11LinkContextEjRNS_21InitializerTimingListE
   fun:_ZN11ImageLoader23recursiveInitializationERKNS_11LinkContextEjRNS_21InitializerTimingListE
   fun:_ZN11ImageLoader15runInitializersERKNS_11LinkContextERNS_21InitializerTimingListE
   fun:_ZN4dyld24initializeMainExecutableEv
}
{
   <insert_a_suppression_name_here>
   Memcheck:Cond
   fun:_ZN10TClassEdit10TSplitType9ShortTypeERSsi
   fun:_ZN11TClassTable3AddEPKcsRKSt9type_infoPFvvEi
   fun:_ZN4ROOT17TGenericClassInfoC2EPKciS2_iRKSt9type_infoPKNS_13TInitBehaviorEPFvvEP16TVirtualIsAProxyii
   fun:_ZN4ROOTL25GenerateInitInstanceLocalEPK10TLockGuard
   fun:_ZN4ROOT20GenerateInitInstanceEPK10TLockGuard
   fun:_GLOBAL__I_a
   fun:_ZN16ImageLoaderMachO18doModInitFunctionsERKN11ImageLoader11LinkContextE
   fun:_ZN16ImageLoaderMachO16doInitializationERKN11ImageLoader11LinkContextE
   fun:_ZN11ImageLoader23recursiveInitializationERKNS_11LinkContextEjRNS_21InitializerTimingListE
   fun:_ZN11ImageLoader23recursiveInitializationERKNS_11LinkContextEjRNS_21InitializerTimingListE
   fun:_ZN11ImageLoader15runInitializersERKNS_11LinkContextERNS_21InitializerTimingListE
   fun:_ZN4dyld24initializeMainExecutableEv
}
{
   <insert_a_suppression_name_here>
   Memcheck:Cond
   fun:_ZN10TClassEdit10TSplitType9ShortTypeERSsi
   fun:_ZN11TClassTable3AddEPKcsRKSt9type_infoPFvvEi
   fun:_ZN4ROOT17TGenericClassInfoC2EPKciS2_iRKSt9type_infoPKNS_13TInitBehaviorEPFvvEP16TVirtualIsAProxyii
   fun:_ZN4ROOTL25GenerateInitInstanceLocalEPK10TVirtualPS
   fun:_ZN4ROOT20GenerateInitInstanceEPK10TVirtualPS
   fun:_GLOBAL__I_a
   fun:_ZN16ImageLoaderMachO18doModInitFunctionsERKN11ImageLoader11LinkContextE
   fun:_ZN16ImageLoaderMachO16doInitializationERKN11ImageLoader11LinkContextE
   fun:_ZN11ImageLoader23recursiveInitializationERKNS_11LinkContextEjRNS_21InitializerTimingListE
   fun:_ZN11ImageLoader23recursiveInitializationERKNS_11LinkContextEjRNS_21InitializerTimingListE
   fun:_ZN11ImageLoader15runInitializersERKNS_11LinkContextERNS_21InitializerTimingListE
   fun:_ZN4dyld24initializeMainExecutableEv
}
{
   <insert_a_suppression_name_here>
   Memcheck:Cond
   fun:_ZN10TClassEdit10TSplitType9ShortTypeERSsi
   fun:_ZN11TClassTable3AddEPKcsRKSt9type_infoPFvvEi
   fun:_ZN4ROOT17TGenericClassInfoC2EPKciS2_iRKSt9type_infoPKNS_13TInitBehaviorEPFvvEP16TVirtualIsAProxyii
   fun:_ZN4ROOTL25GenerateInitInstanceLocalEPK11TVirtualPad
   fun:_ZN4ROOT20GenerateInitInstanceEPK11TVirtualPad
   fun:_GLOBAL__I_a
   fun:_ZN16ImageLoaderMachO18doModInitFunctionsERKN11ImageLoader11LinkContextE
   fun:_ZN16ImageLoaderMachO16doInitializationERKN11ImageLoader11LinkContextE
   fun:_ZN11ImageLoader23recursiveInitializationERKNS_11LinkContextEjRNS_21InitializerTimingListE
   fun:_ZN11ImageLoader23recursiveInitializationERKNS_11LinkContextEjRNS_21InitializerTimingListE
   fun:_ZN11ImageLoader15runInitializersERKNS_11LinkContextERNS_21InitializerTimingListE
   fun:_ZN4dyld24initializeMainExecutableEv
}
{
   <insert_a_suppression_name_here>
   Memcheck:Cond
   fun:_ZN10TClassEdit10TSplitType9ShortTypeERSsi
   fun:_ZN11TClassTable3AddEPKcsRKSt9type_infoPFvvEi
   fun:_ZN4ROOT17TGenericClassInfoC2EPKciS2_iRKSt9type_infoPKNS_13TInitBehaviorEPFvvEP16TVirtualIsAProxyii
   fun:_ZN4ROOTL25GenerateInitInstanceLocalEPK17TVirtualPadEditor
   fun:_ZN4ROOT20GenerateInitInstanceEPK17TVirtualPadEditor
   fun:_GLOBAL__I_a
   fun:_ZN16ImageLoaderMachO18doModInitFunctionsERKN11ImageLoader11LinkContextE
   fun:_ZN16ImageLoaderMachO16doInitializationERKN11ImageLoader11LinkContextE
   fun:_ZN11ImageLoader23recursiveInitializationERKNS_11LinkContextEjRNS_21InitializerTimingListE
   fun:_ZN11ImageLoader23recursiveInitializationERKNS_11LinkContextEjRNS_21InitializerTimingListE
   fun:_ZN11ImageLoader15runInitializersERKNS_11LinkContextERNS_21InitializerTimingListE
   fun:_ZN4dyld24initializeMainExecutableEv
}
{
   <insert_a_suppression_name_here>
   Memcheck:Cond
   fun:_ZN10TClassEdit10TSplitType9ShortTypeERSsi
   fun:_ZN11TClassTable3AddEPKcsRKSt9type_infoPFvvEi
   fun:_ZN4ROOT17TGenericClassInfoC2EPKciS2_iRKSt9type_infoPKNS_13TInitBehaviorEPFvvEP16TVirtualIsAProxyii
   fun:_ZN4ROOTL25GenerateInitInstanceLocalEPK18TVirtualPadPainter
   fun:_ZN4ROOT20GenerateInitInstanceEPK18TVirtualPadPainter
   fun:_GLOBAL__I_a
   fun:_ZN16ImageLoaderMachO18doModInitFunctionsERKN11ImageLoader11LinkContextE
   fun:_ZN16ImageLoaderMachO16doInitializationERKN11ImageLoader11LinkContextE
   fun:_ZN11ImageLoader23recursiveInitializationERKNS_11LinkContextEjRNS_21InitializerTimingListE
   fun:_ZN11ImageLoader23recursiveInitializationERKNS_11LinkContextEjRNS_21InitializerTimingListE
   fun:_ZN11ImageLoader15runInitializersERKNS_11LinkContextERNS_21InitializerTimingListE
   fun:_ZN4dyld24initializeMainExecutableEv
}
{
   <insert_a_suppression_name_here>
   Memcheck:Cond
   fun:_ZN10TClassEdit10TSplitType9ShortTypeERSsi
   fun:_ZN11TClassTable3AddEPKcsRKSt9type_infoPFvvEi
   fun:_ZN4ROOT17TGenericClassInfoC2EPKciS2_iRKSt9type_infoPKNS_13TInitBehaviorEPFvvEP16TVirtualIsAProxyii
   fun:_ZN4ROOTL25GenerateInitInstanceLocalEPK17TVirtualPerfStats
   fun:_ZN4ROOT20GenerateInitInstanceEPK17TVirtualPerfStats
   fun:_GLOBAL__I_a
   fun:_ZN16ImageLoaderMachO18doModInitFunctionsERKN11ImageLoader11LinkContextE
   fun:_ZN16ImageLoaderMachO16doInitializationERKN11ImageLoader11LinkContextE
   fun:_ZN11ImageLoader23recursiveInitializationERKNS_11LinkContextEjRNS_21InitializerTimingListE
   fun:_ZN11ImageLoader23recursiveInitializationERKNS_11LinkContextEjRNS_21InitializerTimingListE
   fun:_ZN11ImageLoader15runInitializersERKNS_11LinkContextERNS_21InitializerTimingListE
   fun:_ZN4dyld24initializeMainExecutableEv
}
{
   <insert_a_suppression_name_here>
   Memcheck:Cond
   fun:_ZN10TClassEdit10TSplitType9ShortTypeERSsi
   fun:_ZN11TClassTable3AddEPKcsRKSt9type_infoPFvvEi
   fun:_ZN4ROOT17TGenericClassInfoC2EPKciS2_iRKSt9type_infoPKNS_13TInitBehaviorEPFvvEP16TVirtualIsAProxyii
   fun:_ZN4ROOTL25GenerateInitInstanceLocalEPK16TVirtualViewer3D
   fun:_ZN4ROOT20GenerateInitInstanceEPK16TVirtualViewer3D
   fun:_GLOBAL__I_a
   fun:_ZN16ImageLoaderMachO18doModInitFunctionsERKN11ImageLoader11LinkContextE
   fun:_ZN16ImageLoaderMachO16doInitializationERKN11ImageLoader11LinkContextE
   fun:_ZN11ImageLoader23recursiveInitializationERKNS_11LinkContextEjRNS_21InitializerTimingListE
   fun:_ZN11ImageLoader23recursiveInitializationERKNS_11LinkContextEjRNS_21InitializerTimingListE
   fun:_ZN11ImageLoader15runInitializersERKNS_11LinkContextERNS_21InitializerTimingListE
   fun:_ZN4dyld24initializeMainExecutableEv
}
{
   <insert_a_suppression_name_here>
   Memcheck:Cond
   fun:_ZN10TClassEdit10TSplitType9ShortTypeERSsi
   fun:_ZN11TClassTable3AddEPKcsRKSt9type_infoPFvvEi
   fun:_ZN4ROOT17TGenericClassInfoC2EPKciS2_iRKSt9type_infoPKNS_13TInitBehaviorEPFvvEP16TVirtualIsAProxyii
   fun:_ZN4ROOTL25GenerateInitInstanceLocalEPK9TVirtualX
   fun:_ZN4ROOT20GenerateInitInstanceEPK9TVirtualX
   fun:_GLOBAL__I_a
   fun:_ZN16ImageLoaderMachO18doModInitFunctionsERKN11ImageLoader11LinkContextE
   fun:_ZN16ImageLoaderMachO16doInitializationERKN11ImageLoader11LinkContextE
   fun:_ZN11ImageLoader23recursiveInitializationERKNS_11LinkContextEjRNS_21InitializerTimingListE
   fun:_ZN11ImageLoader23recursiveInitializationERKNS_11LinkContextEjRNS_21InitializerTimingListE
   fun:_ZN11ImageLoader15runInitializersERKNS_11LinkContextERNS_21InitializerTimingListE
   fun:_ZN4dyld24initializeMainExecutableEv
}
{
   <insert_a_suppression_name_here>
   Memcheck:Cond
   fun:_ZN10TClassEdit10TSplitType9ShortTypeERSsi
   fun:_ZN11TClassTable3AddEPKcsRKSt9type_infoPFvvEi
   fun:_ZN4ROOT17TGenericClassInfoC2EPKciS2_iRKSt9type_infoPKNS_13TInitBehaviorEPFvvEP16TVirtualIsAProxyii
   fun:_ZN4ROOTL25GenerateInitInstanceLocalEPK9TArrayL64
   fun:_ZN4ROOT20GenerateInitInstanceEPK9TArrayL64
   fun:_GLOBAL__I_a
   fun:_ZN16ImageLoaderMachO18doModInitFunctionsERKN11ImageLoader11LinkContextE
   fun:_ZN16ImageLoaderMachO16doInitializationERKN11ImageLoader11LinkContextE
   fun:_ZN11ImageLoader23recursiveInitializationERKNS_11LinkContextEjRNS_21InitializerTimingListE
   fun:_ZN11ImageLoader23recursiveInitializationERKNS_11LinkContextEjRNS_21InitializerTimingListE
   fun:_ZN11ImageLoader15runInitializersERKNS_11LinkContextERNS_21InitializerTimingListE
   fun:_ZN4dyld24initializeMainExecutableEv
}
{
   <insert_a_suppression_name_here>
   Memcheck:Cond
   fun:_ZN10TClassEdit10TSplitType9ShortTypeERSsi
   fun:_ZN11TClassTable3AddEPKcsRKSt9type_infoPFvvEi
   fun:_ZN4ROOT17TGenericClassInfoC2EPKciS2_iRKSt9type_infoPKNS_13TInitBehaviorEPFvvEP16TVirtualIsAProxyii
   fun:_ZN4ROOTL25GenerateInitInstanceLocalEPK10TBtreeIter
   fun:_ZN4ROOT20GenerateInitInstanceEPK10TBtreeIter
   fun:_GLOBAL__I_a
   fun:_ZN16ImageLoaderMachO18doModInitFunctionsERKN11ImageLoader11LinkContextE
   fun:_ZN16ImageLoaderMachO16doInitializationERKN11ImageLoader11LinkContextE
   fun:_ZN11ImageLoader23recursiveInitializationERKNS_11LinkContextEjRNS_21InitializerTimingListE
   fun:_ZN11ImageLoader23recursiveInitializationERKNS_11LinkContextEjRNS_21InitializerTimingListE
   fun:_ZN11ImageLoader15runInitializersERKNS_11LinkContextERNS_21InitializerTimingListE
   fun:_ZN4dyld24initializeMainExecutableEv
}
{
   <insert_a_suppression_name_here>
   Memcheck:Cond
   fun:_ZN10TClassEdit10TSplitType9ShortTypeERSsi
   fun:_ZN11TClassTable3AddEPKcsRKSt9type_infoPFvvEi
   fun:_ZN4ROOT17TGenericClassInfoC2EPKciS2_iRKSt9type_infoPKNS_13TInitBehaviorEPFvvEP16TVirtualIsAProxyii
   fun:_ZN4ROOTL25GenerateInitInstanceLocalEPK11TClassTable
   fun:_ZN4ROOT20GenerateInitInstanceEPK11TClassTable
   fun:_GLOBAL__I_a
   fun:_ZN16ImageLoaderMachO18doModInitFunctionsERKN11ImageLoader11LinkContextE
   fun:_ZN16ImageLoaderMachO16doInitializationERKN11ImageLoader11LinkContextE
   fun:_ZN11ImageLoader23recursiveInitializationERKNS_11LinkContextEjRNS_21InitializerTimingListE
   fun:_ZN11ImageLoader23recursiveInitializationERKNS_11LinkContextEjRNS_21InitializerTimingListE
   fun:_ZN11ImageLoader15runInitializersERKNS_11LinkContextERNS_21InitializerTimingListE
   fun:_ZN4dyld24initializeMainExecutableEv
}
{
   <insert_a_suppression_name_here>
   Memcheck:Cond
   fun:_ZN10TClassEdit10TSplitType9ShortTypeERSsi
   fun:_ZN11TClassTable3AddEPKcsRKSt9type_infoPFvvEi
   fun:_ZN4ROOT17TGenericClassInfoC2EPKciS2_iRKSt9type_infoPKNS_13TInitBehaviorEPFvvEP16TVirtualIsAProxyii
   fun:_ZN4ROOTL25GenerateInitInstanceLocalEPK12TClonesArray
   fun:_ZN4ROOT20GenerateInitInstanceEPK12TClonesArray
   fun:_GLOBAL__I_a
   fun:_ZN16ImageLoaderMachO18doModInitFunctionsERKN11ImageLoader11LinkContextE
   fun:_ZN16ImageLoaderMachO16doInitializationERKN11ImageLoader11LinkContextE
   fun:_ZN11ImageLoader23recursiveInitializationERKNS_11LinkContextEjRNS_21InitializerTimingListE
   fun:_ZN11ImageLoader23recursiveInitializationERKNS_11LinkContextEjRNS_21InitializerTimingListE
   fun:_ZN11ImageLoader15runInitializersERKNS_11LinkContextERNS_21InitializerTimingListE
   fun:_ZN4dyld24initializeMainExecutableEv
}
{
   <insert_a_suppression_name_here>
   Memcheck:Cond
   fun:_ZN10TClassEdit10TSplitType9ShortTypeERSsi
   fun:_ZN11TClassTable3AddEPKcsRKSt9type_infoPFvvEi
   fun:_ZN4ROOT17TGenericClassInfoC2EPKciS2_iRKSt9type_infoPKNS_13TInitBehaviorEPFvvEP16TVirtualIsAProxyii
   fun:_ZN4ROOTL25GenerateInitInstanceLocalEPK11TCollection
   fun:_ZN4ROOT20GenerateInitInstanceEPK11TCollection
   fun:_GLOBAL__I_a
   fun:_ZN16ImageLoaderMachO18doModInitFunctionsERKN11ImageLoader11LinkContextE
   fun:_ZN16ImageLoaderMachO16doInitializationERKN11ImageLoader11LinkContextE
   fun:_ZN11ImageLoader23recursiveInitializationERKNS_11LinkContextEjRNS_21InitializerTimingListE
   fun:_ZN11ImageLoader23recursiveInitializationERKNS_11LinkContextEjRNS_21InitializerTimingListE
   fun:_ZN11ImageLoader15runInitializersERKNS_11LinkContextERNS_21InitializerTimingListE
   fun:_ZN4dyld24initializeMainExecutableEv
}
{
   <insert_a_suppression_name_here>
   Memcheck:Cond
   fun:_ZN10TClassEdit10TSplitType9ShortTypeERSsi
   fun:_ZN11TClassTable3AddEPKcsRKSt9type_infoPFvvEi
   fun:_ZN4ROOT17TGenericClassInfoC2EPKciS2_iRKSt9type_infoPKNS_13TInitBehaviorEPFvvEP16TVirtualIsAProxyii
   fun:_ZN4ROOTL25GenerateInitInstanceLocalEPK10TExMapIter
   fun:_ZN4ROOT20GenerateInitInstanceEPK10TExMapIter
   fun:_GLOBAL__I_a
   fun:_ZN16ImageLoaderMachO18doModInitFunctionsERKN11ImageLoader11LinkContextE
   fun:_ZN16ImageLoaderMachO16doInitializationERKN11ImageLoader11LinkContextE
   fun:_ZN11ImageLoader23recursiveInitializationERKNS_11LinkContextEjRNS_21InitializerTimingListE
   fun:_ZN11ImageLoader23recursiveInitializationERKNS_11LinkContextEjRNS_21InitializerTimingListE
   fun:_ZN11ImageLoader15runInitializersERKNS_11LinkContextERNS_21InitializerTimingListE
   fun:_ZN4dyld24initializeMainExecutableEv
}
{
   <insert_a_suppression_name_here>
   Memcheck:Cond
   fun:_ZN10TClassEdit10TSplitType9ShortTypeERSsi
   fun:_ZN11TClassTable3AddEPKcsRKSt9type_infoPFvvEi
   fun:_ZN4ROOT17TGenericClassInfoC2EPKciS2_iRKSt9type_infoPKNS_13TInitBehaviorEPFvvEP16TVirtualIsAProxyii
   fun:_ZN4ROOTL25GenerateInitInstanceLocalEPK9THashList
   fun:_ZN4ROOT20GenerateInitInstanceEPK9THashList
   fun:_GLOBAL__I_a
   fun:_ZN16ImageLoaderMachO18doModInitFunctionsERKN11ImageLoader11LinkContextE
   fun:_ZN16ImageLoaderMachO16doInitializationERKN11ImageLoader11LinkContextE
   fun:_ZN11ImageLoader23recursiveInitializationERKNS_11LinkContextEjRNS_21InitializerTimingListE
   fun:_ZN11ImageLoader23recursiveInitializationERKNS_11LinkContextEjRNS_21InitializerTimingListE
   fun:_ZN11ImageLoader15runInitializersERKNS_11LinkContextERNS_21InitializerTimingListE
   fun:_ZN4dyld24initializeMainExecutableEv
}
{
   <insert_a_suppression_name_here>
   Memcheck:Cond
   fun:_ZN10TClassEdit10TSplitType9ShortTypeERSsi
   fun:_ZN11TClassTable3AddEPKcsRKSt9type_infoPFvvEi
   fun:_ZN4ROOT17TGenericClassInfoC2EPKciS2_iRKSt9type_infoPKNS_13TInitBehaviorEPFvvEP16TVirtualIsAProxyii
   fun:_ZN4ROOTL25GenerateInitInstanceLocalEPK10THashTable
   fun:_ZN4ROOT20GenerateInitInstanceEPK10THashTable
   fun:_GLOBAL__I_a
   fun:_ZN16ImageLoaderMachO18doModInitFunctionsERKN11ImageLoader11LinkContextE
   fun:_ZN16ImageLoaderMachO16doInitializationERKN11ImageLoader11LinkContextE
   fun:_ZN11ImageLoader23recursiveInitializationERKNS_11LinkContextEjRNS_21InitializerTimingListE
   fun:_ZN11ImageLoader23recursiveInitializationERKNS_11LinkContextEjRNS_21InitializerTimingListE
   fun:_ZN11ImageLoader15runInitializersERKNS_11LinkContextERNS_21InitializerTimingListE
   fun:_ZN4dyld24initializeMainExecutableEv
}
{
   <insert_a_suppression_name_here>
   Memcheck:Cond
   fun:_ZN10TClassEdit10TSplitType9ShortTypeERSsi
   fun:_ZN11TClassTable3AddEPKcsRKSt9type_infoPFvvEi
   fun:_ZN4ROOT17TGenericClassInfoC2EPKciS2_iRKSt9type_infoPKNS_13TInitBehaviorEPFvvEP16TVirtualIsAProxyii
   fun:_ZN4ROOTL25GenerateInitInstanceLocalEPK14THashTableIter
   fun:_ZN4ROOT20GenerateInitInstanceEPK14THashTableIter
   fun:_GLOBAL__I_a
   fun:_ZN16ImageLoaderMachO18doModInitFunctionsERKN11ImageLoader11LinkContextE
   fun:_ZN16ImageLoaderMachO16doInitializationERKN11ImageLoader11LinkContextE
   fun:_ZN11ImageLoader23recursiveInitializationERKNS_11LinkContextEjRNS_21InitializerTimingListE
   fun:_ZN11ImageLoader23recursiveInitializationERKNS_11LinkContextEjRNS_21InitializerTimingListE
   fun:_ZN11ImageLoader15runInitializersERKNS_11LinkContextERNS_21InitializerTimingListE
   fun:_ZN4dyld24initializeMainExecutableEv
}
{
   <insert_a_suppression_name_here>
   Memcheck:Cond
   fun:_ZN10TClassEdit10TSplitType9ShortTypeERSsi
   fun:_ZN11TClassTable3AddEPKcsRKSt9type_infoPFvvEi
   fun:_ZN4ROOT17TGenericClassInfoC2EPKciS2_iRKSt9type_infoPKNS_13TInitBehaviorEPFvvEP16TVirtualIsAProxyii
   fun:_ZN4ROOTL25GenerateInitInstanceLocalEPK9TIterator
   fun:_ZN4ROOT20GenerateInitInstanceEPK9TIterator
   fun:_GLOBAL__I_a
   fun:_ZN16ImageLoaderMachO18doModInitFunctionsERKN11ImageLoader11LinkContextE
   fun:_ZN16ImageLoaderMachO16doInitializationERKN11ImageLoader11LinkContextE
   fun:_ZN11ImageLoader23recursiveInitializationERKNS_11LinkContextEjRNS_21InitializerTimingListE
   fun:_ZN11ImageLoader23recursiveInitializationERKNS_11LinkContextEjRNS_21InitializerTimingListE
   fun:_ZN11ImageLoader15runInitializersERKNS_11LinkContextERNS_21InitializerTimingListE
   fun:_ZN4dyld24initializeMainExecutableEv
}
{
   <insert_a_suppression_name_here>
   Memcheck:Cond
   fun:_ZN10TClassEdit10TSplitType9ShortTypeERSsi
   fun:_ZN11TClassTable3AddEPKcsRKSt9type_infoPFvvEi
   fun:_ZN4ROOT17TGenericClassInfoC2EPKciS2_iRKSt9type_infoPKNS_13TInitBehaviorEPFvvEP16TVirtualIsAProxyii
   fun:_ZN4ROOTL25GenerateInitInstanceLocalEPK9TListIter
   fun:_ZN4ROOT20GenerateInitInstanceEPK9TListIter
   fun:_GLOBAL__I_a
   fun:_ZN16ImageLoaderMachO18doModInitFunctionsERKN11ImageLoader11LinkContextE
   fun:_ZN16ImageLoaderMachO16doInitializationERKN11ImageLoader11LinkContextE
   fun:_ZN11ImageLoader23recursiveInitializationERKNS_11LinkContextEjRNS_21InitializerTimingListE
   fun:_ZN11ImageLoader23recursiveInitializationERKNS_11LinkContextEjRNS_21InitializerTimingListE
   fun:_ZN11ImageLoader15runInitializersERKNS_11LinkContextERNS_21InitializerTimingListE
   fun:_ZN4dyld24initializeMainExecutableEv
}
{
   <insert_a_suppression_name_here>
   Memcheck:Cond
   fun:_ZN10TClassEdit10TSplitType9ShortTypeERSsi
   fun:_ZN11TClassTable3AddEPKcsRKSt9type_infoPFvvEi
   fun:_ZN4ROOT17TGenericClassInfoC2EPKciS2_iRKSt9type_infoPKNS_13TInitBehaviorEPFvvEP16TVirtualIsAProxyii
   fun:_ZN4ROOTL25GenerateInitInstanceLocalEPK8TMapIter
   fun:_ZN4ROOT20GenerateInitInstanceEPK8TMapIter
   fun:_GLOBAL__I_a
   fun:_ZN16ImageLoaderMachO18doModInitFunctionsERKN11ImageLoader11LinkContextE
   fun:_ZN16ImageLoaderMachO16doInitializationERKN11ImageLoader11LinkContextE
   fun:_ZN11ImageLoader23recursiveInitializationERKNS_11LinkContextEjRNS_21InitializerTimingListE
   fun:_ZN11ImageLoader23recursiveInitializationERKNS_11LinkContextEjRNS_21InitializerTimingListE
   fun:_ZN11ImageLoader15runInitializersERKNS_11LinkContextERNS_21InitializerTimingListE
   fun:_ZN4dyld24initializeMainExecutableEv
}
{
   <insert_a_suppression_name_here>
   Memcheck:Cond
   fun:_ZN10TClassEdit10TSplitType9ShortTypeERSsi
   fun:_ZN11TClassTable3AddEPKcsRKSt9type_infoPFvvEi
   fun:_ZN4ROOT17TGenericClassInfoC2EPKciS2_iRKSt9type_infoPKNS_13TInitBehaviorEPFvvEP16TVirtualIsAProxyii
   fun:_ZN4ROOTL25GenerateInitInstanceLocalEPK9TObjArray
   fun:_ZN4ROOT20GenerateInitInstanceEPK9TObjArray
   fun:_GLOBAL__I_a
   fun:_ZN16ImageLoaderMachO18doModInitFunctionsERKN11ImageLoader11LinkContextE
   fun:_ZN16ImageLoaderMachO16doInitializationERKN11ImageLoader11LinkContextE
   fun:_ZN11ImageLoader23recursiveInitializationERKNS_11LinkContextEjRNS_21InitializerTimingListE
   fun:_ZN11ImageLoader23recursiveInitializationERKNS_11LinkContextEjRNS_21InitializerTimingListE
   fun:_ZN11ImageLoader15runInitializersERKNS_11LinkContextERNS_21InitializerTimingListE
   fun:_ZN4dyld24initializeMainExecutableEv
}
{
   <insert_a_suppression_name_here>
   Memcheck:Cond
   fun:_ZN10TClassEdit10TSplitType9ShortTypeERSsi
   fun:_ZN11TClassTable3AddEPKcsRKSt9type_infoPFvvEi
   fun:_ZN4ROOT17TGenericClassInfoC2EPKciS2_iRKSt9type_infoPKNS_13TInitBehaviorEPFvvEP16TVirtualIsAProxyii
   fun:_ZN4ROOTL25GenerateInitInstanceLocalEPK13TObjArrayIter
   fun:_ZN4ROOT20GenerateInitInstanceEPK13TObjArrayIter
   fun:_GLOBAL__I_a
   fun:_ZN16ImageLoaderMachO18doModInitFunctionsERKN11ImageLoader11LinkContextE
   fun:_ZN16ImageLoaderMachO16doInitializationERKN11ImageLoader11LinkContextE
   fun:_ZN11ImageLoader23recursiveInitializationERKNS_11LinkContextEjRNS_21InitializerTimingListE
   fun:_ZN11ImageLoader23recursiveInitializationERKNS_11LinkContextEjRNS_21InitializerTimingListE
   fun:_ZN11ImageLoader15runInitializersERKNS_11LinkContextERNS_21InitializerTimingListE
   fun:_ZN4dyld24initializeMainExecutableEv
}
{
   <insert_a_suppression_name_here>
   Memcheck:Cond
   fun:_ZN10TClassEdit10TSplitType9ShortTypeERSsi
   fun:_ZN11TClassTable3AddEPKcsRKSt9type_infoPFvvEi
   fun:_ZN4ROOT17TGenericClassInfoC2EPKciS2_iRKSt9type_infoPKNS_13TInitBehaviorEPFvvEP16TVirtualIsAProxyii
   fun:_ZN4ROOTL25GenerateInitInstanceLocalEPK12TObjectTable
   fun:_ZN4ROOT20GenerateInitInstanceEPK12TObjectTable
   fun:_GLOBAL__I_a
   fun:_ZN16ImageLoaderMachO18doModInitFunctionsERKN11ImageLoader11LinkContextE
   fun:_ZN16ImageLoaderMachO16doInitializationERKN11ImageLoader11LinkContextE
   fun:_ZN11ImageLoader23recursiveInitializationERKNS_11LinkContextEjRNS_21InitializerTimingListE
   fun:_ZN11ImageLoader23recursiveInitializationERKNS_11LinkContextEjRNS_21InitializerTimingListE
   fun:_ZN11ImageLoader15runInitializersERKNS_11LinkContextERNS_21InitializerTimingListE
   fun:_ZN4dyld24initializeMainExecutableEv
}
{
   <insert_a_suppression_name_here>
   Memcheck:Cond
   fun:_ZN10TClassEdit10TSplitType9ShortTypeERSsi
   fun:_ZN11TClassTable3AddEPKcsRKSt9type_infoPFvvEi
   fun:_ZN4ROOT17TGenericClassInfoC2EPKciS2_iRKSt9type_infoPKNS_13TInitBehaviorEPFvvEP16TVirtualIsAProxyii
   fun:_ZN4ROOTL25GenerateInitInstanceLocalEPK14TOrdCollection
   fun:_ZN4ROOT20GenerateInitInstanceEPK14TOrdCollection
   fun:_GLOBAL__I_a
   fun:_ZN16ImageLoaderMachO18doModInitFunctionsERKN11ImageLoader11LinkContextE
   fun:_ZN16ImageLoaderMachO16doInitializationERKN11ImageLoader11LinkContextE
   fun:_ZN11ImageLoader23recursiveInitializationERKNS_11LinkContextEjRNS_21InitializerTimingListE
   fun:_ZN11ImageLoader23recursiveInitializationERKNS_11LinkContextEjRNS_21InitializerTimingListE
   fun:_ZN11ImageLoader15runInitializersERKNS_11LinkContextERNS_21InitializerTimingListE
   fun:_ZN4dyld24initializeMainExecutableEv
}
{
   <insert_a_suppression_name_here>
   Memcheck:Cond
   fun:_ZN10TClassEdit10TSplitType9ShortTypeERSsi
   fun:_ZN11TClassTable3AddEPKcsRKSt9type_infoPFvvEi
   fun:_ZN4ROOT17TGenericClassInfoC2EPKciS2_iRKSt9type_infoPKNS_13TInitBehaviorEPFvvEP16TVirtualIsAProxyii
   fun:_ZN4ROOTL25GenerateInitInstanceLocalEPK18TOrdCollectionIter
   fun:_ZN4ROOT20GenerateInitInstanceEPK18TOrdCollectionIter
   fun:_GLOBAL__I_a
   fun:_ZN16ImageLoaderMachO18doModInitFunctionsERKN11ImageLoader11LinkContextE
   fun:_ZN16ImageLoaderMachO16doInitializationERKN11ImageLoader11LinkContextE
   fun:_ZN11ImageLoader23recursiveInitializationERKNS_11LinkContextEjRNS_21InitializerTimingListE
   fun:_ZN11ImageLoader23recursiveInitializationERKNS_11LinkContextEjRNS_21InitializerTimingListE
   fun:_ZN11ImageLoader15runInitializersERKNS_11LinkContextERNS_21InitializerTimingListE
   fun:_ZN4dyld24initializeMainExecutableEv
}
{
   <insert_a_suppression_name_here>
   Memcheck:Cond
   fun:_ZN10TClassEdit10TSplitType9ShortTypeERSsi
   fun:_ZN11TClassTable3AddEPKcsRKSt9type_infoPFvvEi
   fun:_ZN4ROOT17TGenericClassInfoC2EPKciS2_iRKSt9type_infoPKNS_13TInitBehaviorEPFvvEP16TVirtualIsAProxyii
   fun:_ZN4ROOTL25GenerateInitInstanceLocalEPK9TRefArray
   fun:_ZN4ROOT20GenerateInitInstanceEPK9TRefArray
   fun:_GLOBAL__I_a
   fun:_ZN16ImageLoaderMachO18doModInitFunctionsERKN11ImageLoader11LinkContextE
   fun:_ZN16ImageLoaderMachO16doInitializationERKN11ImageLoader11LinkContextE
   fun:_ZN11ImageLoader23recursiveInitializationERKNS_11LinkContextEjRNS_21InitializerTimingListE
   fun:_ZN11ImageLoader23recursiveInitializationERKNS_11LinkContextEjRNS_21InitializerTimingListE
   fun:_ZN11ImageLoader15runInitializersERKNS_11LinkContextERNS_21InitializerTimingListE
   fun:_ZN4dyld24initializeMainExecutableEv
}
{
   <insert_a_suppression_name_here>
   Memcheck:Cond
   fun:_ZN10TClassEdit10TSplitType9ShortTypeERSsi
   fun:_ZN11TClassTable3AddEPKcsRKSt9type_infoPFvvEi
   fun:_ZN4ROOT17TGenericClassInfoC2EPKciS2_iRKSt9type_infoPKNS_13TInitBehaviorEPFvvEP16TVirtualIsAProxyii
   fun:_ZN4ROOTL25GenerateInitInstanceLocalEPK13TRefArrayIter
   fun:_ZN4ROOT20GenerateInitInstanceEPK13TRefArrayIter
   fun:_GLOBAL__I_a
   fun:_ZN16ImageLoaderMachO18doModInitFunctionsERKN11ImageLoader11LinkContextE
   fun:_ZN16ImageLoaderMachO16doInitializationERKN11ImageLoader11LinkContextE
   fun:_ZN11ImageLoader23recursiveInitializationERKNS_11LinkContextEjRNS_21InitializerTimingListE
   fun:_ZN11ImageLoader23recursiveInitializationERKNS_11LinkContextEjRNS_21InitializerTimingListE
   fun:_ZN11ImageLoader15runInitializersERKNS_11LinkContextERNS_21InitializerTimingListE
   fun:_ZN4dyld24initializeMainExecutableEv
}
{
   <insert_a_suppression_name_here>
   Memcheck:Cond
   fun:_ZN10TClassEdit10TSplitType9ShortTypeERSsi
   fun:_ZN11TClassTable3AddEPKcsRKSt9type_infoPFvvEi
   fun:_ZN4ROOT17TGenericClassInfoC2EPKciS2_iRKSt9type_infoPKNS_13TInitBehaviorEPFvvEP16TVirtualIsAProxyii
   fun:_ZN4ROOTL25GenerateInitInstanceLocalEPK9TRefTable
   fun:_ZN4ROOT20GenerateInitInstanceEPK9TRefTable
   fun:_GLOBAL__I_a
   fun:_ZN16ImageLoaderMachO18doModInitFunctionsERKN11ImageLoader11LinkContextE
   fun:_ZN16ImageLoaderMachO16doInitializationERKN11ImageLoader11LinkContextE
   fun:_ZN11ImageLoader23recursiveInitializationERKNS_11LinkContextEjRNS_21InitializerTimingListE
   fun:_ZN11ImageLoader23recursiveInitializationERKNS_11LinkContextEjRNS_21InitializerTimingListE
   fun:_ZN11ImageLoader15runInitializersERKNS_11LinkContextERNS_21InitializerTimingListE
   fun:_ZN4dyld24initializeMainExecutableEv
}
{
   <insert_a_suppression_name_here>
   Memcheck:Cond
   fun:_ZN10TClassEdit10TSplitType9ShortTypeERSsi
   fun:_ZN11TClassTable3AddEPKcsRKSt9type_infoPFvvEi
   fun:_ZN4ROOT17TGenericClassInfoC2EPKciS2_iRKSt9type_infoPKNS_13TInitBehaviorEPFvvEP16TVirtualIsAProxyii
   fun:_ZN4ROOTL25GenerateInitInstanceLocalEPK14TSeqCollection
   fun:_ZN4ROOT20GenerateInitInstanceEPK14TSeqCollection
   fun:_GLOBAL__I_a
   fun:_ZN16ImageLoaderMachO18doModInitFunctionsERKN11ImageLoader11LinkContextE
   fun:_ZN16ImageLoaderMachO16doInitializationERKN11ImageLoader11LinkContextE
   fun:_ZN11ImageLoader23recursiveInitializationERKNS_11LinkContextEjRNS_21InitializerTimingListE
   fun:_ZN11ImageLoader23recursiveInitializationERKNS_11LinkContextEjRNS_21InitializerTimingListE
   fun:_ZN11ImageLoader15runInitializersERKNS_11LinkContextERNS_21InitializerTimingListE
   fun:_ZN4dyld24initializeMainExecutableEv
}
{
   <insert_a_suppression_name_here>
   Memcheck:Cond
   fun:_ZN10TClassEdit10TSplitType9ShortTypeERSsi
   fun:_ZN11TClassTable3AddEPKcsRKSt9type_infoPFvvEi
   fun:_ZN4ROOT17TGenericClassInfoC2EPKciS2_iRKSt9type_infoPKNS_13TInitBehaviorEPFvvEP16TVirtualIsAProxyii
   fun:_ZN4ROOTL25GenerateInitInstanceLocalEPK11TSortedList
   fun:_ZN4ROOT20GenerateInitInstanceEPK11TSortedList
   fun:_GLOBAL__I_a
   fun:_ZN16ImageLoaderMachO18doModInitFunctionsERKN11ImageLoader11LinkContextE
   fun:_ZN16ImageLoaderMachO16doInitializationERKN11ImageLoader11LinkContextE
   fun:_ZN11ImageLoader23recursiveInitializationERKNS_11LinkContextEjRNS_21InitializerTimingListE
   fun:_ZN11ImageLoader23recursiveInitializationERKNS_11LinkContextEjRNS_21InitializerTimingListE
   fun:_ZN11ImageLoader15runInitializersERKNS_11LinkContextERNS_21InitializerTimingListE
   fun:_ZN4dyld24initializeMainExecutableEv
}
{
   <insert_a_suppression_name_here>
   Memcheck:Cond
   fun:_ZN10TClassEdit10TSplitType9ShortTypeERSsi
   fun:_ZN11TClassTable3AddEPKcsRKSt9type_infoPFvvEi
   fun:_ZN4ROOT17TGenericClassInfoC2EPKciS2_iRKSt9type_infoPKNS_13TInitBehaviorEPFvvEP16TVirtualIsAProxyii
   fun:_ZN4ROOTL25GenerateInitInstanceLocalEPK10TBaseClass
   fun:_ZN4ROOT20GenerateInitInstanceEPK10TBaseClass
   fun:_GLOBAL__I_a
   fun:_ZN16ImageLoaderMachO18doModInitFunctionsERKN11ImageLoader11LinkContextE
   fun:_ZN16ImageLoaderMachO16doInitializationERKN11ImageLoader11LinkContextE
   fun:_ZN11ImageLoader23recursiveInitializationERKNS_11LinkContextEjRNS_21InitializerTimingListE
   fun:_ZN11ImageLoader23recursiveInitializationERKNS_11LinkContextEjRNS_21InitializerTimingListE
   fun:_ZN11ImageLoader15runInitializersERKNS_11LinkContextERNS_21InitializerTimingListE
   fun:_ZN4dyld24initializeMainExecutableEv
}
{
   <insert_a_suppression_name_here>
   Memcheck:Cond
   fun:_ZN10TClassEdit10TSplitType9ShortTypeERSsi
   fun:_ZN11TClassTable3AddEPKcsRKSt9type_infoPFvvEi
   fun:_ZN4ROOT17TGenericClassInfoC2EPKciS2_iRKSt9type_infoPKNS_13TInitBehaviorEPFvvEP16TVirtualIsAProxyii
   fun:_ZN4ROOTL25GenerateInitInstanceLocalEPK15TClassGenerator
   fun:_ZN4ROOT20GenerateInitInstanceEPK15TClassGenerator
   fun:_GLOBAL__I_a
   fun:_ZN16ImageLoaderMachO18doModInitFunctionsERKN11ImageLoader11LinkContextE
   fun:_ZN16ImageLoaderMachO16doInitializationERKN11ImageLoader11LinkContextE
   fun:_ZN11ImageLoader23recursiveInitializationERKNS_11LinkContextEjRNS_21InitializerTimingListE
   fun:_ZN11ImageLoader23recursiveInitializationERKNS_11LinkContextEjRNS_21InitializerTimingListE
   fun:_ZN11ImageLoader15runInitializersERKNS_11LinkContextERNS_21InitializerTimingListE
   fun:_ZN4dyld24initializeMainExecutableEv
}
{
   <insert_a_suppression_name_here>
   Memcheck:Cond
   fun:_ZN10TClassEdit10TSplitType9ShortTypeERSsi
   fun:_ZN11TClassTable3AddEPKcsRKSt9type_infoPFvvEi
   fun:_ZN4ROOT17TGenericClassInfoC2EPKciS2_iRKSt9type_infoPKNS_13TInitBehaviorEPFvvEP16TVirtualIsAProxyii
   fun:_ZN4ROOTL25GenerateInitInstanceLocalEPK14TClassMenuItem
   fun:_ZN4ROOT20GenerateInitInstanceEPK14TClassMenuItem
   fun:_GLOBAL__I_a
   fun:_ZN16ImageLoaderMachO18doModInitFunctionsERKN11ImageLoader11LinkContextE
   fun:_ZN16ImageLoaderMachO16doInitializationERKN11ImageLoader11LinkContextE
   fun:_ZN11ImageLoader23recursiveInitializationERKNS_11LinkContextEjRNS_21InitializerTimingListE
   fun:_ZN11ImageLoader23recursiveInitializationERKNS_11LinkContextEjRNS_21InitializerTimingListE
   fun:_ZN11ImageLoader15runInitializersERKNS_11LinkContextERNS_21InitializerTimingListE
   fun:_ZN4dyld24initializeMainExecutableEv
}
{
   <insert_a_suppression_name_here>
   Memcheck:Cond
   fun:_ZN10TClassEdit10TSplitType9ShortTypeERSsi
   fun:_ZN11TClassTable3AddEPKcsRKSt9type_infoPFvvEi
   fun:_ZN4ROOT17TGenericClassInfoC2EPKciS2_iRKSt9type_infoPKNS_13TInitBehaviorEPFvvEP16TVirtualIsAProxyii
   fun:_ZN4ROOTL25GenerateInitInstanceLocalEPK11TDataMember
   fun:_ZN4ROOT20GenerateInitInstanceEPK11TDataMember
   fun:_GLOBAL__I_a
   fun:_ZN16ImageLoaderMachO18doModInitFunctionsERKN11ImageLoader11LinkContextE
   fun:_ZN16ImageLoaderMachO16doInitializationERKN11ImageLoader11LinkContextE
   fun:_ZN11ImageLoader23recursiveInitializationERKNS_11LinkContextEjRNS_21InitializerTimingListE
   fun:_ZN11ImageLoader23recursiveInitializationERKNS_11LinkContextEjRNS_21InitializerTimingListE
   fun:_ZN11ImageLoader15runInitializersERKNS_11LinkContextERNS_21InitializerTimingListE
   fun:_ZN4dyld24initializeMainExecutableEv
}
{
   <insert_a_suppression_name_here>
   Memcheck:Cond
   fun:_ZN10TClassEdit10TSplitType9ShortTypeERSsi
   fun:_ZN11TClassTable3AddEPKcsRKSt9type_infoPFvvEi
   fun:_ZN4ROOT17TGenericClassInfoC2EPKciS2_iRKSt9type_infoPKNS_13TInitBehaviorEPFvvEP16TVirtualIsAProxyii
   fun:_ZN4ROOTL25GenerateInitInstanceLocalEPK9TDataType
   fun:_ZN4ROOT20GenerateInitInstanceEPK9TDataType
   fun:_GLOBAL__I_a
   fun:_ZN16ImageLoaderMachO18doModInitFunctionsERKN11ImageLoader11LinkContextE
   fun:_ZN16ImageLoaderMachO16doInitializationERKN11ImageLoader11LinkContextE
   fun:_ZN11ImageLoader23recursiveInitializationERKNS_11LinkContextEjRNS_21InitializerTimingListE
   fun:_ZN11ImageLoader23recursiveInitializationERKNS_11LinkContextEjRNS_21InitializerTimingListE
   fun:_ZN11ImageLoader15runInitializersERKNS_11LinkContextERNS_21InitializerTimingListE
   fun:_ZN4dyld24initializeMainExecutableEv
}
{
   <insert_a_suppression_name_here>
   Memcheck:Cond
   fun:_ZN10TClassEdit10TSplitType9ShortTypeERSsi
   fun:_ZN11TClassTable3AddEPKcsRKSt9type_infoPFvvEi
   fun:_ZN4ROOT17TGenericClassInfoC2EPKciS2_iRKSt9type_infoPKNS_13TInitBehaviorEPFvvEP16TVirtualIsAProxyii
   fun:_ZN4ROOTL25GenerateInitInstanceLocalEPK11TDictionary
   fun:_ZN4ROOT20GenerateInitInstanceEPK11TDictionary
   fun:_GLOBAL__I_a
   fun:_ZN16ImageLoaderMachO18doModInitFunctionsERKN11ImageLoader11LinkContextE
   fun:_ZN16ImageLoaderMachO16doInitializationERKN11ImageLoader11LinkContextE
   fun:_ZN11ImageLoader23recursiveInitializationERKNS_11LinkContextEjRNS_21InitializerTimingListE
   fun:_ZN11ImageLoader23recursiveInitializationERKNS_11LinkContextEjRNS_21InitializerTimingListE
   fun:_ZN11ImageLoader15runInitializersERKNS_11LinkContextERNS_21InitializerTimingListE
   fun:_ZN4dyld24initializeMainExecutableEv
}
{
   <insert_a_suppression_name_here>
   Memcheck:Cond
   fun:_ZN10TClassEdit10TSplitType9ShortTypeERSsi
   fun:_ZN11TClassTable3AddEPKcsRKSt9type_infoPFvvEi
   fun:_ZN4ROOT17TGenericClassInfoC2EPKciS2_iRKSt9type_infoPKNS_13TInitBehaviorEPFvvEP16TVirtualIsAProxyii
   fun:_ZN4ROOTL25GenerateInitInstanceLocalEPK9TFunction
   fun:_ZN4ROOT20GenerateInitInstanceEPK9TFunction
   fun:_GLOBAL__I_a
   fun:_ZN16ImageLoaderMachO18doModInitFunctionsERKN11ImageLoader11LinkContextE
   fun:_ZN16ImageLoaderMachO16doInitializationERKN11ImageLoader11LinkContextE
   fun:_ZN11ImageLoader23recursiveInitializationERKNS_11LinkContextEjRNS_21InitializerTimingListE
   fun:_ZN11ImageLoader23recursiveInitializationERKNS_11LinkContextEjRNS_21InitializerTimingListE
   fun:_ZN11ImageLoader15runInitializersERKNS_11LinkContextERNS_21InitializerTimingListE
   fun:_ZN4dyld24initializeMainExecutableEv
}
{
   <insert_a_suppression_name_here>
   Memcheck:Cond
   fun:_ZN10TClassEdit10TSplitType9ShortTypeERSsi
   fun:_ZN11TClassTable3AddEPKcsRKSt9type_infoPFvvEi
   fun:_ZN4ROOT17TGenericClassInfoC2EPKciS2_iRKSt9type_infoPKNS_13TInitBehaviorEPFvvEP16TVirtualIsAProxyii
   fun:_ZN4ROOTL25GenerateInitInstanceLocalEPK12TInterpreter
   fun:_ZN4ROOT20GenerateInitInstanceEPK12TInterpreter
   fun:_GLOBAL__I_a
   fun:_ZN16ImageLoaderMachO18doModInitFunctionsERKN11ImageLoader11LinkContextE
   fun:_ZN16ImageLoaderMachO16doInitializationERKN11ImageLoader11LinkContextE
   fun:_ZN11ImageLoader23recursiveInitializationERKNS_11LinkContextEjRNS_21InitializerTimingListE
   fun:_ZN11ImageLoader23recursiveInitializationERKNS_11LinkContextEjRNS_21InitializerTimingListE
   fun:_ZN11ImageLoader15runInitializersERKNS_11LinkContextERNS_21InitializerTimingListE
   fun:_ZN4dyld24initializeMainExecutableEv
}
{
   <insert_a_suppression_name_here>
   Memcheck:Cond
   fun:_ZN10TClassEdit10TSplitType9ShortTypeERSsi
   fun:_ZN11TClassTable3AddEPKcsRKSt9type_infoPFvvEi
   fun:_ZN4ROOT17TGenericClassInfoC2EPKciS2_iRKSt9type_infoPKNS_13TInitBehaviorEPFvvEP16TVirtualIsAProxyii
   fun:_ZN4ROOTL25GenerateInitInstanceLocalEPK10TMethodArg
   fun:_ZN4ROOT20GenerateInitInstanceEPK10TMethodArg
   fun:_GLOBAL__I_a
   fun:_ZN16ImageLoaderMachO18doModInitFunctionsERKN11ImageLoader11LinkContextE
   fun:_ZN16ImageLoaderMachO16doInitializationERKN11ImageLoader11LinkContextE
   fun:_ZN11ImageLoader23recursiveInitializationERKNS_11LinkContextEjRNS_21InitializerTimingListE
   fun:_ZN11ImageLoader23recursiveInitializationERKNS_11LinkContextEjRNS_21InitializerTimingListE
   fun:_ZN11ImageLoader15runInitializersERKNS_11LinkContextERNS_21InitializerTimingListE
   fun:_ZN4dyld24initializeMainExecutableEv
}
{
   <insert_a_suppression_name_here>
   Memcheck:Cond
   fun:_ZN10TClassEdit10TSplitType9ShortTypeERSsi
   fun:_ZN11TClassTable3AddEPKcsRKSt9type_infoPFvvEi
   fun:_ZN4ROOT17TGenericClassInfoC2EPKciS2_iRKSt9type_infoPKNS_13TInitBehaviorEPFvvEP16TVirtualIsAProxyii
   fun:_ZN4ROOTL25GenerateInitInstanceLocalEPK11TMethodCall
   fun:_ZN4ROOT20GenerateInitInstanceEPK11TMethodCall
   fun:_GLOBAL__I_a
   fun:_ZN16ImageLoaderMachO18doModInitFunctionsERKN11ImageLoader11LinkContextE
   fun:_ZN16ImageLoaderMachO16doInitializationERKN11ImageLoader11LinkContextE
   fun:_ZN11ImageLoader23recursiveInitializationERKNS_11LinkContextEjRNS_21InitializerTimingListE
   fun:_ZN11ImageLoader23recursiveInitializationERKNS_11LinkContextEjRNS_21InitializerTimingListE
   fun:_ZN11ImageLoader15runInitializersERKNS_11LinkContextERNS_21InitializerTimingListE
   fun:_ZN4dyld24initializeMainExecutableEv
}
{
   <insert_a_suppression_name_here>
   Memcheck:Cond
   fun:_ZN10TClassEdit10TSplitType9ShortTypeERSsi
   fun:_ZN11TClassTable3AddEPKcsRKSt9type_infoPFvvEi
   fun:_ZN4ROOT17TGenericClassInfoC2EPKciS2_iRKSt9type_infoPKNS_13TInitBehaviorEPFvvEP16TVirtualIsAProxyii
   fun:_ZN4ROOTL25GenerateInitInstanceLocalEPK9TRealData
   fun:_ZN4ROOT20GenerateInitInstanceEPK9TRealData
   fun:_GLOBAL__I_a
   fun:_ZN16ImageLoaderMachO18doModInitFunctionsERKN11ImageLoader11LinkContextE
   fun:_ZN16ImageLoaderMachO16doInitializationERKN11ImageLoader11LinkContextE
   fun:_ZN11ImageLoader23recursiveInitializationERKNS_11LinkContextEjRNS_21InitializerTimingListE
   fun:_ZN11ImageLoader23recursiveInitializationERKNS_11LinkContextEjRNS_21InitializerTimingListE
   fun:_ZN11ImageLoader15runInitializersERKNS_11LinkContextERNS_21InitializerTimingListE
   fun:_ZN4dyld24initializeMainExecutableEv
}
{
   <insert_a_suppression_name_here>
   Memcheck:Cond
   fun:_ZN10TClassEdit10TSplitType9ShortTypeERSsi
   fun:_ZN11TClassTable3AddEPKcsRKSt9type_infoPFvvEi
   fun:_ZN4ROOT17TGenericClassInfoC2EPKciS2_iRKSt9type_infoPKNS_13TInitBehaviorEPFvvEP16TVirtualIsAProxyii
   fun:_ZN4ROOTL25GenerateInitInstanceLocalEPKNS_11TSchemaRuleE
   fun:_ZN4ROOT20GenerateInitInstanceEPKNS_11TSchemaRuleE
   fun:_GLOBAL__I_a
   fun:_ZN16ImageLoaderMachO18doModInitFunctionsERKN11ImageLoader11LinkContextE
   fun:_ZN16ImageLoaderMachO16doInitializationERKN11ImageLoader11LinkContextE
   fun:_ZN11ImageLoader23recursiveInitializationERKNS_11LinkContextEjRNS_21InitializerTimingListE
   fun:_ZN11ImageLoader23recursiveInitializationERKNS_11LinkContextEjRNS_21InitializerTimingListE
   fun:_ZN11ImageLoader15runInitializersERKNS_11LinkContextERNS_21InitializerTimingListE
   fun:_ZN4dyld24initializeMainExecutableEv
}
{
   <insert_a_suppression_name_here>
   Memcheck:Cond
   fun:_ZN10TClassEdit10TSplitType9ShortTypeERSsi
   fun:_ZN11TClassTable3AddEPKcsRKSt9type_infoPFvvEi
   fun:_ZN4ROOT17TGenericClassInfoC2EPKciS2_iRKSt9type_infoPKNS_13TInitBehaviorEPFvvEP16TVirtualIsAProxyii
   fun:_ZN4ROOTL25GenerateInitInstanceLocalEPK16TStreamerElement
   fun:_ZN4ROOT20GenerateInitInstanceEPK16TStreamerElement
   fun:_GLOBAL__I_a
   fun:_ZN16ImageLoaderMachO18doModInitFunctionsERKN11ImageLoader11LinkContextE
   fun:_ZN16ImageLoaderMachO16doInitializationERKN11ImageLoader11LinkContextE
   fun:_ZN11ImageLoader23recursiveInitializationERKNS_11LinkContextEjRNS_21InitializerTimingListE
   fun:_ZN11ImageLoader23recursiveInitializationERKNS_11LinkContextEjRNS_21InitializerTimingListE
   fun:_ZN11ImageLoader15runInitializersERKNS_11LinkContextERNS_21InitializerTimingListE
   fun:_ZN4dyld24initializeMainExecutableEv
}
{
   <insert_a_suppression_name_here>
   Memcheck:Cond
   fun:_ZN10TClassEdit10TSplitType9ShortTypeERSsi
   fun:_ZN11TClassTable3AddEPKcsRKSt9type_infoPFvvEi
   fun:_ZN4ROOT17TGenericClassInfoC2EPKciS2_iRKSt9type_infoPKNS_13TInitBehaviorEPFvvEP16TVirtualIsAProxyii
   fun:_ZN4ROOTL25GenerateInitInstanceLocalEPK13TStreamerBase
   fun:_ZN4ROOT20GenerateInitInstanceEPK13TStreamerBase
   fun:_GLOBAL__I_a
   fun:_ZN16ImageLoaderMachO18doModInitFunctionsERKN11ImageLoader11LinkContextE
   fun:_ZN16ImageLoaderMachO16doInitializationERKN11ImageLoader11LinkContextE
   fun:_ZN11ImageLoader23recursiveInitializationERKNS_11LinkContextEjRNS_21InitializerTimingListE
   fun:_ZN11ImageLoader23recursiveInitializationERKNS_11LinkContextEjRNS_21InitializerTimingListE
   fun:_ZN11ImageLoader15runInitializersERKNS_11LinkContextERNS_21InitializerTimingListE
   fun:_ZN4dyld24initializeMainExecutableEv
}
{
   <insert_a_suppression_name_here>
   Memcheck:Cond
   fun:_ZN10TClassEdit10TSplitType9ShortTypeERSsi
   fun:_ZN11TClassTable3AddEPKcsRKSt9type_infoPFvvEi
   fun:_ZN4ROOT17TGenericClassInfoC2EPKciS2_iRKSt9type_infoPKNS_13TInitBehaviorEPFvvEP16TVirtualIsAProxyii
   fun:_ZN4ROOTL25GenerateInitInstanceLocalEPK21TStreamerBasicPointer
   fun:_ZN4ROOT20GenerateInitInstanceEPK21TStreamerBasicPointer
   fun:_GLOBAL__I_a
   fun:_ZN16ImageLoaderMachO18doModInitFunctionsERKN11ImageLoader11LinkContextE
   fun:_ZN16ImageLoaderMachO16doInitializationERKN11ImageLoader11LinkContextE
   fun:_ZN11ImageLoader23recursiveInitializationERKNS_11LinkContextEjRNS_21InitializerTimingListE
   fun:_ZN11ImageLoader23recursiveInitializationERKNS_11LinkContextEjRNS_21InitializerTimingListE
   fun:_ZN11ImageLoader15runInitializersERKNS_11LinkContextERNS_21InitializerTimingListE
   fun:_ZN4dyld24initializeMainExecutableEv
}
{
   <insert_a_suppression_name_here>
   Memcheck:Cond
   fun:_ZN10TClassEdit10TSplitType9ShortTypeERSsi
   fun:_ZN11TClassTable3AddEPKcsRKSt9type_infoPFvvEi
   fun:_ZN4ROOT17TGenericClassInfoC2EPKciS2_iRKSt9type_infoPKNS_13TInitBehaviorEPFvvEP16TVirtualIsAProxyii
   fun:_ZN4ROOTL25GenerateInitInstanceLocalEPK13TStreamerLoop
   fun:_ZN4ROOT20GenerateInitInstanceEPK13TStreamerLoop
   fun:_GLOBAL__I_a
   fun:_ZN16ImageLoaderMachO18doModInitFunctionsERKN11ImageLoader11LinkContextE
   fun:_ZN16ImageLoaderMachO16doInitializationERKN11ImageLoader11LinkContextE
   fun:_ZN11ImageLoader23recursiveInitializationERKNS_11LinkContextEjRNS_21InitializerTimingListE
   fun:_ZN11ImageLoader23recursiveInitializationERKNS_11LinkContextEjRNS_21InitializerTimingListE
   fun:_ZN11ImageLoader15runInitializersERKNS_11LinkContextERNS_21InitializerTimingListE
   fun:_ZN4dyld24initializeMainExecutableEv
}
{
   <insert_a_suppression_name_here>
   Memcheck:Cond
   fun:_ZN10TClassEdit10TSplitType9ShortTypeERSsi
   fun:_ZN11TClassTable3AddEPKcsRKSt9type_infoPFvvEi
   fun:_ZN4ROOT17TGenericClassInfoC2EPKciS2_iRKSt9type_infoPKNS_13TInitBehaviorEPFvvEP16TVirtualIsAProxyii
   fun:_ZN4ROOTL25GenerateInitInstanceLocalEPK18TStreamerBasicType
   fun:_ZN4ROOT20GenerateInitInstanceEPK18TStreamerBasicType
   fun:_GLOBAL__I_a
   fun:_ZN16ImageLoaderMachO18doModInitFunctionsERKN11ImageLoader11LinkContextE
   fun:_ZN16ImageLoaderMachO16doInitializationERKN11ImageLoader11LinkContextE
   fun:_ZN11ImageLoader23recursiveInitializationERKNS_11LinkContextEjRNS_21InitializerTimingListE
   fun:_ZN11ImageLoader23recursiveInitializationERKNS_11LinkContextEjRNS_21InitializerTimingListE
   fun:_ZN11ImageLoader15runInitializersERKNS_11LinkContextERNS_21InitializerTimingListE
   fun:_ZN4dyld24initializeMainExecutableEv
}
{
   <insert_a_suppression_name_here>
   Memcheck:Cond
   fun:_ZN10TClassEdit10TSplitType9ShortTypeERSsi
   fun:_ZN11TClassTable3AddEPKcsRKSt9type_infoPFvvEi
   fun:_ZN4ROOT17TGenericClassInfoC2EPKciS2_iRKSt9type_infoPKNS_13TInitBehaviorEPFvvEP16TVirtualIsAProxyii
   fun:_ZN4ROOTL25GenerateInitInstanceLocalEPK15TStreamerObject
   fun:_ZN4ROOT20GenerateInitInstanceEPK15TStreamerObject
   fun:_GLOBAL__I_a
   fun:_ZN16ImageLoaderMachO18doModInitFunctionsERKN11ImageLoader11LinkContextE
   fun:_ZN16ImageLoaderMachO16doInitializationERKN11ImageLoader11LinkContextE
   fun:_ZN11ImageLoader23recursiveInitializationERKNS_11LinkContextEjRNS_21InitializerTimingListE
   fun:_ZN11ImageLoader23recursiveInitializationERKNS_11LinkContextEjRNS_21InitializerTimingListE
   fun:_ZN11ImageLoader15runInitializersERKNS_11LinkContextERNS_21InitializerTimingListE
   fun:_ZN4dyld24initializeMainExecutableEv
}
{
   <insert_a_suppression_name_here>
   Memcheck:Cond
   fun:_ZN10TClassEdit10TSplitType9ShortTypeERSsi
   fun:_ZN11TClassTable3AddEPKcsRKSt9type_infoPFvvEi
   fun:_ZN4ROOT17TGenericClassInfoC2EPKciS2_iRKSt9type_infoPKNS_13TInitBehaviorEPFvvEP16TVirtualIsAProxyii
   fun:_ZN4ROOTL25GenerateInitInstanceLocalEPK18TStreamerObjectAny
   fun:_ZN4ROOT20GenerateInitInstanceEPK18TStreamerObjectAny
   fun:_GLOBAL__I_a
   fun:_ZN16ImageLoaderMachO18doModInitFunctionsERKN11ImageLoader11LinkContextE
   fun:_ZN16ImageLoaderMachO16doInitializationERKN11ImageLoader11LinkContextE
   fun:_ZN11ImageLoader23recursiveInitializationERKNS_11LinkContextEjRNS_21InitializerTimingListE
   fun:_ZN11ImageLoader23recursiveInitializationERKNS_11LinkContextEjRNS_21InitializerTimingListE
   fun:_ZN11ImageLoader15runInitializersERKNS_11LinkContextERNS_21InitializerTimingListE
   fun:_ZN4dyld24initializeMainExecutableEv
}
{
   <insert_a_suppression_name_here>
   Memcheck:Cond
   fun:_ZN10TClassEdit10TSplitType9ShortTypeERSsi
   fun:_ZN11TClassTable3AddEPKcsRKSt9type_infoPFvvEi
   fun:_ZN4ROOT17TGenericClassInfoC2EPKciS2_iRKSt9type_infoPKNS_13TInitBehaviorEPFvvEP16TVirtualIsAProxyii
   fun:_ZN4ROOTL25GenerateInitInstanceLocalEPK22TStreamerObjectPointer
   fun:_ZN4ROOT20GenerateInitInstanceEPK22TStreamerObjectPointer
   fun:_GLOBAL__I_a
   fun:_ZN16ImageLoaderMachO18doModInitFunctionsERKN11ImageLoader11LinkContextE
   fun:_ZN16ImageLoaderMachO16doInitializationERKN11ImageLoader11LinkContextE
   fun:_ZN11ImageLoader23recursiveInitializationERKNS_11LinkContextEjRNS_21InitializerTimingListE
   fun:_ZN11ImageLoader23recursiveInitializationERKNS_11LinkContextEjRNS_21InitializerTimingListE
   fun:_ZN11ImageLoader15runInitializersERKNS_11LinkContextERNS_21InitializerTimingListE
   fun:_ZN4dyld24initializeMainExecutableEv
}
{
   <insert_a_suppression_name_here>
   Memcheck:Cond
   fun:_ZN10TClassEdit10TSplitType9ShortTypeERSsi
   fun:_ZN11TClassTable3AddEPKcsRKSt9type_infoPFvvEi
   fun:_ZN4ROOT17TGenericClassInfoC2EPKciS2_iRKSt9type_infoPKNS_13TInitBehaviorEPFvvEP16TVirtualIsAProxyii
   fun:_ZN4ROOTL25GenerateInitInstanceLocalEPK25TStreamerObjectAnyPointer
   fun:_ZN4ROOT20GenerateInitInstanceEPK25TStreamerObjectAnyPointer
   fun:_GLOBAL__I_a
   fun:_ZN16ImageLoaderMachO18doModInitFunctionsERKN11ImageLoader11LinkContextE
   fun:_ZN16ImageLoaderMachO16doInitializationERKN11ImageLoader11LinkContextE
   fun:_ZN11ImageLoader23recursiveInitializationERKNS_11LinkContextEjRNS_21InitializerTimingListE
   fun:_ZN11ImageLoader23recursiveInitializationERKNS_11LinkContextEjRNS_21InitializerTimingListE
   fun:_ZN11ImageLoader15runInitializersERKNS_11LinkContextERNS_21InitializerTimingListE
   fun:_ZN4dyld24initializeMainExecutableEv
}
{
   <insert_a_suppression_name_here>
   Memcheck:Cond
   fun:_ZN10TClassEdit10TSplitType9ShortTypeERSsi
   fun:_ZN11TClassTable3AddEPKcsRKSt9type_infoPFvvEi
   fun:_ZN4ROOT17TGenericClassInfoC2EPKciS2_iRKSt9type_infoPKNS_13TInitBehaviorEPFvvEP16TVirtualIsAProxyii
   fun:_ZN4ROOTL25GenerateInitInstanceLocalEPK15TStreamerString
   fun:_ZN4ROOT20GenerateInitInstanceEPK15TStreamerString
   fun:_GLOBAL__I_a
   fun:_ZN16ImageLoaderMachO18doModInitFunctionsERKN11ImageLoader11LinkContextE
   fun:_ZN16ImageLoaderMachO16doInitializationERKN11ImageLoader11LinkContextE
   fun:_ZN11ImageLoader23recursiveInitializationERKNS_11LinkContextEjRNS_21InitializerTimingListE
   fun:_ZN11ImageLoader23recursiveInitializationERKNS_11LinkContextEjRNS_21InitializerTimingListE
   fun:_ZN11ImageLoader15runInitializersERKNS_11LinkContextERNS_21InitializerTimingListE
   fun:_ZN4dyld24initializeMainExecutableEv
}
{
   <insert_a_suppression_name_here>
   Memcheck:Cond
   fun:_ZN10TClassEdit10TSplitType9ShortTypeERSsi
   fun:_ZN11TClassTable3AddEPKcsRKSt9type_infoPFvvEi
   fun:_ZN4ROOT17TGenericClassInfoC2EPKciS2_iRKSt9type_infoPKNS_13TInitBehaviorEPFvvEP16TVirtualIsAProxyii
   fun:_ZN4ROOTL25GenerateInitInstanceLocalEPK12TStreamerSTL
   fun:_ZN4ROOT20GenerateInitInstanceEPK12TStreamerSTL
   fun:_GLOBAL__I_a
   fun:_ZN16ImageLoaderMachO18doModInitFunctionsERKN11ImageLoader11LinkContextE
   fun:_ZN16ImageLoaderMachO16doInitializationERKN11ImageLoader11LinkContextE
   fun:_ZN11ImageLoader23recursiveInitializationERKNS_11LinkContextEjRNS_21InitializerTimingListE
   fun:_ZN11ImageLoader23recursiveInitializationERKNS_11LinkContextEjRNS_21InitializerTimingListE
   fun:_ZN11ImageLoader15runInitializersERKNS_11LinkContextERNS_21InitializerTimingListE
   fun:_ZN4dyld24initializeMainExecutableEv
}
{
   <insert_a_suppression_name_here>
   Memcheck:Cond
   fun:_ZN10TClassEdit10TSplitType9ShortTypeERSsi
   fun:_ZN11TClassTable3AddEPKcsRKSt9type_infoPFvvEi
   fun:_ZN4ROOT17TGenericClassInfoC2EPKciS2_iRKSt9type_infoPKNS_13TInitBehaviorEPFvvEP16TVirtualIsAProxyii
   fun:_ZN4ROOTL25GenerateInitInstanceLocalEPK18TStreamerSTLstring
   fun:_ZN4ROOT20GenerateInitInstanceEPK18TStreamerSTLstring
   fun:_GLOBAL__I_a
   fun:_ZN16ImageLoaderMachO18doModInitFunctionsERKN11ImageLoader11LinkContextE
   fun:_ZN16ImageLoaderMachO16doInitializationERKN11ImageLoader11LinkContextE
   fun:_ZN11ImageLoader23recursiveInitializationERKNS_11LinkContextEjRNS_21InitializerTimingListE
   fun:_ZN11ImageLoader23recursiveInitializationERKNS_11LinkContextEjRNS_21InitializerTimingListE
   fun:_ZN11ImageLoader15runInitializersERKNS_11LinkContextERNS_21InitializerTimingListE
   fun:_ZN4dyld24initializeMainExecutableEv
}
{
   <insert_a_suppression_name_here>
   Memcheck:Cond
   fun:_ZN10TClassEdit10TSplitType9ShortTypeERSsi
   fun:_ZN11TClassTable3AddEPKcsRKSt9type_infoPFvvEi
   fun:_ZN4ROOT17TGenericClassInfoC2EPKciS2_iRKSt9type_infoPKNS_13TInitBehaviorEPFvvEP16TVirtualIsAProxyii
   fun:_ZN4ROOTL25GenerateInitInstanceLocalEPK12TToggleGroup
   fun:_ZN4ROOT20GenerateInitInstanceEPK12TToggleGroup
   fun:_GLOBAL__I_a
   fun:_ZN16ImageLoaderMachO18doModInitFunctionsERKN11ImageLoader11LinkContextE
   fun:_ZN16ImageLoaderMachO16doInitializationERKN11ImageLoader11LinkContextE
   fun:_ZN11ImageLoader23recursiveInitializationERKNS_11LinkContextEjRNS_21InitializerTimingListE
   fun:_ZN11ImageLoader23recursiveInitializationERKNS_11LinkContextEjRNS_21InitializerTimingListE
   fun:_ZN11ImageLoader15runInitializersERKNS_11LinkContextERNS_21InitializerTimingListE
   fun:_ZN4dyld24initializeMainExecutableEv
}
{
   <insert_a_suppression_name_here>
   Memcheck:Cond
   fun:_ZN10TClassEdit10TSplitType9ShortTypeERSsi
   fun:_ZN11TClassTable3AddEPKcsRKSt9type_infoPFvvEi
   fun:_ZN4ROOT17TGenericClassInfoC2EPKciS2_iRKSt9type_infoPKNS_13TInitBehaviorEPFvvEP16TVirtualIsAProxyii
   fun:_ZN4ROOTL25GenerateInitInstanceLocalEPK20TVirtualStreamerInfo
   fun:_ZN4ROOT20GenerateInitInstanceEPK20TVirtualStreamerInfo
   fun:_GLOBAL__I_a
   fun:_ZN16ImageLoaderMachO18doModInitFunctionsERKN11ImageLoader11LinkContextE
   fun:_ZN16ImageLoaderMachO16doInitializationERKN11ImageLoader11LinkContextE
   fun:_ZN11ImageLoader23recursiveInitializationERKNS_11LinkContextEjRNS_21InitializerTimingListE
   fun:_ZN11ImageLoader23recursiveInitializationERKNS_11LinkContextEjRNS_21InitializerTimingListE
   fun:_ZN11ImageLoader15runInitializersERKNS_11LinkContextERNS_21InitializerTimingListE
   fun:_ZN4dyld24initializeMainExecutableEv
}
{
   <insert_a_suppression_name_here>
   Memcheck:Cond
   fun:_ZN10TClassEdit10TSplitType9ShortTypeERSsi
   fun:_ZN11TClassTable3AddEPKcsRKSt9type_infoPFvvEi
   fun:_ZN4ROOT17TGenericClassInfoC2EPKciS2_iRKSt9type_infoPKNS_13TInitBehaviorEPFvvEP16TVirtualIsAProxyii
   fun:_ZN4ROOTL25GenerateInitInstanceLocalEPK11TUnixSystem
   fun:_ZN4ROOT20GenerateInitInstanceEPK11TUnixSystem
   fun:_GLOBAL__I_a
   fun:_ZN16ImageLoaderMachO18doModInitFunctionsERKN11ImageLoader11LinkContextE
   fun:_ZN16ImageLoaderMachO16doInitializationERKN11ImageLoader11LinkContextE
   fun:_ZN11ImageLoader23recursiveInitializationERKNS_11LinkContextEjRNS_21InitializerTimingListE
   fun:_ZN11ImageLoader23recursiveInitializationERKNS_11LinkContextEjRNS_21InitializerTimingListE
   fun:_ZN11ImageLoader15runInitializersERKNS_11LinkContextERNS_21InitializerTimingListE
   fun:_ZN4dyld24initializeMainExecutableEv
}
{
   <insert_a_suppression_name_here>
   Memcheck:Cond
   fun:_ZN10TClassEdit8GetSplitEPKcRSt6vectorISsSaISsEERiNS_8EModTypeE
   fun:_ZN10TClassEdit10TSplitTypeC1EPKcNS_8EModTypeE
   fun:_ZN11TClassTable3AddEPKcsRKSt9type_infoPFvvEi
   fun:_ZN4ROOT17TGenericClassInfoC2EPKcS2_iRKSt9type_infoPKNS_13TInitBehaviorEPFvPvR16TMemberInspectorEPFvvEP16TVirtualIsAProxyii
   fun:_ZN4ROOTL25GenerateInitInstanceLocalEPK11TRootIOCtor
   fun:__cxx_global_var_init3
   fun:_GLOBAL__I_a
   fun:_ZN16ImageLoaderMachO18doModInitFunctionsERKN11ImageLoader11LinkContextE
   fun:_ZN16ImageLoaderMachO16doInitializationERKN11ImageLoader11LinkContextE
   fun:_ZN11ImageLoader23recursiveInitializationERKNS_11LinkContextEjRNS_21InitializerTimingListE
   fun:_ZN11ImageLoader23recursiveInitializationERKNS_11LinkContextEjRNS_21InitializerTimingListE
   fun:_ZN11ImageLoader15runInitializersERKNS_11LinkContextERNS_21InitializerTimingListE
}
{
   <insert_a_suppression_name_here>
   Memcheck:Cond
   fun:_ZN10TClassEdit10TSplitType9ShortTypeERSsi
   fun:_ZN11TClassTable3AddEPKcsRKSt9type_infoPFvvEi
   fun:_ZN4ROOT17TGenericClassInfoC2EPKcS2_iRKSt9type_infoPKNS_13TInitBehaviorEPFvPvR16TMemberInspectorEPFvvEP16TVirtualIsAProxyii
   fun:_ZN4ROOTL25GenerateInitInstanceLocalEPK11TRootIOCtor
   fun:__cxx_global_var_init3
   fun:_GLOBAL__I_a
   fun:_ZN16ImageLoaderMachO18doModInitFunctionsERKN11ImageLoader11LinkContextE
   fun:_ZN16ImageLoaderMachO16doInitializationERKN11ImageLoader11LinkContextE
   fun:_ZN11ImageLoader23recursiveInitializationERKNS_11LinkContextEjRNS_21InitializerTimingListE
   fun:_ZN11ImageLoader23recursiveInitializationERKNS_11LinkContextEjRNS_21InitializerTimingListE
   fun:_ZN11ImageLoader15runInitializersERKNS_11LinkContextERNS_21InitializerTimingListE
   fun:_ZN4dyld24initializeMainExecutableEv
}
{
   <insert_a_suppression_name_here>
   Memcheck:Cond
   fun:_ZN10TClassEdit8GetSplitEPKcRSt6vectorISsSaISsEERiNS_8EModTypeE
   fun:_ZN10TClassEdit10TSplitTypeC1EPKcNS_8EModTypeE
   fun:_ZN6TClass8GetClassEPKcbb
   fun:_ZN5TCint19UpdateClassInfoWorkEPKcl
   fun:_ZN5TCint15UpdateClassInfoEPcl
   fun:G__search_tagname
   fun:G__get_linked_tagnum_fwd
   fun:G__cpp_setup_tagtableG__Base1
   fun:G__cpp_setupG__Base1
   fun:G__call_setup_funcs
   fun:_ZN25G__cpp_setup_initG__Base1C2Ev
   fun:_ZN25G__cpp_setup_initG__Base1C1Ev
}
{
   <insert_a_suppression_name_here>
   Memcheck:Cond
   fun:malloc
   fun:_Znwm
   fun:_ZN10TClassEdit8GetSplitEPKcRSt6vectorISsSaISsEERiNS_8EModTypeE
   fun:_ZN10TClassEdit9ShortTypeEPKci
   fun:_ZN10TClassEdit10TSplitType9ShortTypeERSsi
   fun:_ZN6TClass8GetClassEPKcbb
   fun:_ZN5TCint19UpdateClassInfoWorkEPKcl
   fun:_ZN5TCint15UpdateClassInfoEPcl
   fun:G__search_tagname
   fun:G__get_linked_tagnum_fwd
   fun:G__cpp_setup_tagtableG__Base1
   fun:G__cpp_setupG__Base1
}
{
   <insert_a_suppression_name_here>
   Memcheck:Cond
   fun:malloc
   fun:_Znwm
   fun:_ZNSs4_Rep8_M_cloneERKSaIcEm
   fun:_ZNSs7reserveEm
   fun:_ZNSs6appendERKSs
   fun:_ZN10TClassEdit10TSplitType9ShortTypeERSsi
   fun:_ZN10TClassEdit9ShortTypeEPKci
   fun:_ZN10TClassEdit10TSplitType9ShortTypeERSsi
   fun:_ZN6TClass8GetClassEPKcbb
   fun:_ZN5TCint19UpdateClassInfoWorkEPKcl
   fun:_ZN5TCint15UpdateClassInfoEPcl
   fun:G__search_tagname
}
{
   <insert_a_suppression_name_here>
   Memcheck:Cond
   fun:_ZNSs4_Rep9_S_createEmmRKSaIcE
   fun:_ZNSs4_Rep8_M_cloneERKSaIcEm
   fun:_ZNSs7reserveEm
   fun:_ZNSs6appendEPKcm
   fun:_ZN10TClassEdit10TSplitType9ShortTypeERSsi
   fun:_ZN10TClassEdit9ShortTypeEPKci
   fun:_ZN10TClassEdit10TSplitType9ShortTypeERSsi
   fun:_ZN6TClass8GetClassEPKcbb
   fun:_ZN5TCint19UpdateClassInfoWorkEPKcl
   fun:_ZN5TCint15UpdateClassInfoEPcl
   fun:G__search_tagname
   fun:G__get_linked_tagnum_fwd
}
{
   <insert_a_suppression_name_here>
   Memcheck:Cond
   fun:_ZNSs6appendERKSs
   fun:_ZN10TClassEdit10TSplitType9ShortTypeERSsi
   fun:_ZN6TClass8GetClassEPKcbb
   fun:_ZN5TCint19UpdateClassInfoWorkEPKcl
   fun:_ZN5TCint15UpdateClassInfoEPcl
   fun:G__search_tagname
   fun:G__get_linked_tagnum_fwd
   fun:G__cpp_setup_tagtableG__Base1
   fun:G__cpp_setupG__Base1
   fun:G__call_setup_funcs
   fun:_ZN25G__cpp_setup_initG__Base1C2Ev
   fun:_ZN25G__cpp_setup_initG__Base1C1Ev
}
{
   <insert_a_suppression_name_here>
   Memcheck:Cond
   fun:_ZNSs7reserveEm
   fun:_ZNSs6appendERKSs
   fun:_ZN10TClassEdit10TSplitType9ShortTypeERSsi
   fun:_ZN6TClass8GetClassEPKcbb
   fun:_ZN5TCint19UpdateClassInfoWorkEPKcl
   fun:_ZN5TCint15UpdateClassInfoEPcl
   fun:G__search_tagname
   fun:G__get_linked_tagnum_fwd
   fun:G__cpp_setup_tagtableG__Base1
   fun:G__cpp_setupG__Base1
   fun:G__call_setup_funcs
   fun:_ZN25G__cpp_setup_initG__Base1C2Ev
}
{
   <insert_a_suppression_name_here>
   Memcheck:Value8
   fun:_ZNSs6appendERKSs
   fun:_ZN10TClassEdit10TSplitType9ShortTypeERSsi
   fun:_ZN6TClass8GetClassEPKcbb
   fun:_ZN5TCint19UpdateClassInfoWorkEPKcl
   fun:_ZN5TCint15UpdateClassInfoEPcl
   fun:G__search_tagname
   fun:G__get_linked_tagnum_fwd
   fun:G__cpp_setup_tagtableG__Base1
   fun:G__cpp_setupG__Base1
   fun:G__call_setup_funcs
   fun:_ZN25G__cpp_setup_initG__Base1C2Ev
   fun:_ZN25G__cpp_setup_initG__Base1C1Ev
}
{
   <insert_a_suppression_name_here>
   Memcheck:Addr1
   fun:_platform_memcmp
   fun:_ZNKSs7compareEPKc
   fun:_ZL15R__FindSTLClassPKcbbS0_
   fun:_ZN6TClass8GetClassEPKcbb
   fun:_ZN5TCint19UpdateClassInfoWorkEPKcl
   fun:_ZN5TCint15UpdateClassInfoEPcl
   fun:G__search_tagname
   fun:G__get_linked_tagnum_fwd
   fun:G__cpp_setup_tagtableG__Base1
   fun:G__cpp_setupG__Base1
   fun:G__call_setup_funcs
   fun:_ZN25G__cpp_setup_initG__Base1C2Ev
}
{
   <insert_a_suppression_name_here>
   Memcheck:Cond
   fun:G__defined_tagname
   fun:G__search_typename
   fun:G__search_typename2
   fun:G__cpp_setup_typetableG__Base1
   fun:G__cpp_setupG__Base1
   fun:G__call_setup_funcs
   fun:_ZN25G__cpp_setup_initG__Base1C2Ev
   fun:_ZN25G__cpp_setup_initG__Base1C1Ev
   fun:__cxx_global_var_init709
   fun:_GLOBAL__I_a
   fun:_ZN16ImageLoaderMachO18doModInitFunctionsERKN11ImageLoader11LinkContextE
   fun:_ZN16ImageLoaderMachO16doInitializationERKN11ImageLoader11LinkContextE
}
{
   <insert_a_suppression_name_here>
   Memcheck:Cond
   fun:_ZN10TClassEdit10TSplitType9ShortTypeERSsi
   fun:_ZN11TClassTable3AddEPKcsRKSt9type_infoPFvvEi
   fun:_ZN4ROOT17TGenericClassInfoC2EPKcS2_iRKSt9type_infoPKNS_13TInitBehaviorEPFvPvR16TMemberInspectorEPFvvEP16TVirtualIsAProxyii
   fun:_ZN4ROOTL25GenerateInitInstanceLocalEPKN9__gnu_cxx17__normal_iteratorIPcSsEE
   fun:_GLOBAL__I_a
   fun:_ZN16ImageLoaderMachO18doModInitFunctionsERKN11ImageLoader11LinkContextE
   fun:_ZN16ImageLoaderMachO16doInitializationERKN11ImageLoader11LinkContextE
   fun:_ZN11ImageLoader23recursiveInitializationERKNS_11LinkContextEjRNS_21InitializerTimingListE
   fun:_ZN11ImageLoader23recursiveInitializationERKNS_11LinkContextEjRNS_21InitializerTimingListE
   fun:_ZN11ImageLoader15runInitializersERKNS_11LinkContextERNS_21InitializerTimingListE
   fun:_ZN4dyld24initializeMainExecutableEv
   fun:_ZN4dyld5_mainEPK12macho_headermiPPKcS5_S5_Pm
}
{
   <insert_a_suppression_name_here>
   Memcheck:Cond
   fun:_ZN10TClassEdit10TSplitType9ShortTypeERSsi
   fun:_ZN11TClassTable3AddEPKcsRKSt9type_infoPFvvEi
   fun:_ZN4ROOT17TGenericClassInfoC2EPKcS2_iRKSt9type_infoPKNS_13TInitBehaviorEPFvPvR16TMemberInspectorEPFvvEP16TVirtualIsAProxyii
   fun:_ZN4ROOTL25GenerateInitInstanceLocalEPK10TSubString
   fun:_GLOBAL__I_a
   fun:_ZN16ImageLoaderMachO18doModInitFunctionsERKN11ImageLoader11LinkContextE
   fun:_ZN16ImageLoaderMachO16doInitializationERKN11ImageLoader11LinkContextE
   fun:_ZN11ImageLoader23recursiveInitializationERKNS_11LinkContextEjRNS_21InitializerTimingListE
   fun:_ZN11ImageLoader23recursiveInitializationERKNS_11LinkContextEjRNS_21InitializerTimingListE
   fun:_ZN11ImageLoader15runInitializersERKNS_11LinkContextERNS_21InitializerTimingListE
   fun:_ZN4dyld24initializeMainExecutableEv
   fun:_ZN4dyld5_mainEPK12macho_headermiPPKcS5_S5_Pm
}
{
   <insert_a_suppression_name_here>
   Memcheck:Cond
   fun:_ZN10TClassEdit10TSplitType9ShortTypeERSsi
   fun:_ZN11TClassTable3AddEPKcsRKSt9type_infoPFvvEi
   fun:_ZN4ROOT17TGenericClassInfoC2EPKcS2_iRKSt9type_infoPKNS_13TInitBehaviorEPFvPvR16TMemberInspectorEPFvvEP16TVirtualIsAProxyii
   fun:_ZN4ROOTL25GenerateInitInstanceLocalEPK10FileStat_t
   fun:_GLOBAL__I_a
   fun:_ZN16ImageLoaderMachO18doModInitFunctionsERKN11ImageLoader11LinkContextE
   fun:_ZN16ImageLoaderMachO16doInitializationERKN11ImageLoader11LinkContextE
   fun:_ZN11ImageLoader23recursiveInitializationERKNS_11LinkContextEjRNS_21InitializerTimingListE
   fun:_ZN11ImageLoader23recursiveInitializationERKNS_11LinkContextEjRNS_21InitializerTimingListE
   fun:_ZN11ImageLoader15runInitializersERKNS_11LinkContextERNS_21InitializerTimingListE
   fun:_ZN4dyld24initializeMainExecutableEv
   fun:_ZN4dyld5_mainEPK12macho_headermiPPKcS5_S5_Pm
}
{
   <insert_a_suppression_name_here>
   Memcheck:Cond
   fun:_ZN10TClassEdit10TSplitType9ShortTypeERSsi
   fun:_ZN11TClassTable3AddEPKcsRKSt9type_infoPFvvEi
   fun:_ZN4ROOT17TGenericClassInfoC2EPKcS2_iRKSt9type_infoPKNS_13TInitBehaviorEPFvPvR16TMemberInspectorEPFvvEP16TVirtualIsAProxyii
   fun:_ZN4ROOTL25GenerateInitInstanceLocalEPK11UserGroup_t
   fun:_GLOBAL__I_a
   fun:_ZN16ImageLoaderMachO18doModInitFunctionsERKN11ImageLoader11LinkContextE
   fun:_ZN16ImageLoaderMachO16doInitializationERKN11ImageLoader11LinkContextE
   fun:_ZN11ImageLoader23recursiveInitializationERKNS_11LinkContextEjRNS_21InitializerTimingListE
   fun:_ZN11ImageLoader23recursiveInitializationERKNS_11LinkContextEjRNS_21InitializerTimingListE
   fun:_ZN11ImageLoader15runInitializersERKNS_11LinkContextERNS_21InitializerTimingListE
   fun:_ZN4dyld24initializeMainExecutableEv
   fun:_ZN4dyld5_mainEPK12macho_headermiPPKcS5_S5_Pm
}
{
   <insert_a_suppression_name_here>
   Memcheck:Cond
   fun:_ZN10TClassEdit10TSplitType9ShortTypeERSsi
   fun:_ZN11TClassTable3AddEPKcsRKSt9type_infoPFvvEi
   fun:_ZN4ROOT17TGenericClassInfoC2EPKciS2_iRKSt9type_infoPKNS_13TInitBehaviorEPFvvEP16TVirtualIsAProxyii
   fun:_ZN4ROOTL25GenerateInitInstanceLocalEPK9MemInfo_t
   fun:_GLOBAL__I_a
   fun:_ZN16ImageLoaderMachO18doModInitFunctionsERKN11ImageLoader11LinkContextE
   fun:_ZN16ImageLoaderMachO16doInitializationERKN11ImageLoader11LinkContextE
   fun:_ZN11ImageLoader23recursiveInitializationERKNS_11LinkContextEjRNS_21InitializerTimingListE
   fun:_ZN11ImageLoader23recursiveInitializationERKNS_11LinkContextEjRNS_21InitializerTimingListE
   fun:_ZN11ImageLoader15runInitializersERKNS_11LinkContextERNS_21InitializerTimingListE
   fun:_ZN4dyld24initializeMainExecutableEv
   fun:_ZN4dyld5_mainEPK12macho_headermiPPKcS5_S5_Pm
}
{
   <insert_a_suppression_name_here>
   Memcheck:Cond
   fun:_ZN10TClassEdit10TSplitType9ShortTypeERSsi
   fun:_ZN11TClassTable3AddEPKcsRKSt9type_infoPFvvEi
   fun:_ZN4ROOT17TGenericClassInfoC2EPKciS2_iRKSt9type_infoPKNS_13TInitBehaviorEPFvvEP16TVirtualIsAProxyii
   fun:_ZN4ROOTL25GenerateInitInstanceLocalEPK10ProcInfo_t
   fun:_GLOBAL__I_a
   fun:_ZN16ImageLoaderMachO18doModInitFunctionsERKN11ImageLoader11LinkContextE
   fun:_ZN16ImageLoaderMachO16doInitializationERKN11ImageLoader11LinkContextE
   fun:_ZN11ImageLoader23recursiveInitializationERKNS_11LinkContextEjRNS_21InitializerTimingListE
   fun:_ZN11ImageLoader23recursiveInitializationERKNS_11LinkContextEjRNS_21InitializerTimingListE
   fun:_ZN11ImageLoader15runInitializersERKNS_11LinkContextERNS_21InitializerTimingListE
   fun:_ZN4dyld24initializeMainExecutableEv
   fun:_ZN4dyld5_mainEPK12macho_headermiPPKcS5_S5_Pm
}
{
   <insert_a_suppression_name_here>
   Memcheck:Cond
   fun:_ZN10TClassEdit10TSplitType9ShortTypeERSsi
   fun:_ZN11TClassTable3AddEPKcsRKSt9type_infoPFvvEi
   fun:_ZN4ROOT17TGenericClassInfoC2EPKciS2_iRKSt9type_infoPKNS_13TInitBehaviorEPFvvEP16TVirtualIsAProxyii
   fun:_ZN4ROOTL25GenerateInitInstanceLocalEPK10ProcInfo_t
   fun:_GLOBAL__I_a
   fun:_ZN16ImageLoaderMachO18doModInitFunctionsERKN11ImageLoader11LinkContextE
   fun:_ZN16ImageLoaderMachO16doInitializationERKN11ImageLoader11LinkContextE
   fun:_ZN11ImageLoader23recursiveInitializationERKNS_11LinkContextEjRNS_21InitializerTimingListE
   fun:_ZN11ImageLoader23recursiveInitializationERKNS_11LinkContextEjRNS_21InitializerTimingListE
   fun:_ZN11ImageLoader15runInitializersERKNS_11LinkContextERNS_21InitializerTimingListE
   fun:_ZN4dyld24initializeMainExecutableEv
   fun:_ZN4dyld5_mainEPK12macho_headermiPPKcS5_S5_Pm
}
{
   <insert_a_suppression_name_here>
   Memcheck:Cond
   fun:_ZN10TClassEdit10TSplitType9ShortTypeERSsi
   fun:_ZN11TClassTable3AddEPKcsRKSt9type_infoPFvvEi
   fun:_ZN4ROOT17TGenericClassInfoC2EPKciS2_iRKSt9type_infoPKNS_13TInitBehaviorEPFvvEP16TVirtualIsAProxyii
   fun:_ZN4ROOTL25GenerateInitInstanceLocalEPK9SysInfo_t
   fun:_GLOBAL__I_a
   fun:_ZN16ImageLoaderMachO18doModInitFunctionsERKN11ImageLoader11LinkContextE
   fun:_ZN16ImageLoaderMachO16doInitializationERKN11ImageLoader11LinkContextE
   fun:_ZN11ImageLoader23recursiveInitializationERKNS_11LinkContextEjRNS_21InitializerTimingListE
   fun:_ZN11ImageLoader23recursiveInitializationERKNS_11LinkContextEjRNS_21InitializerTimingListE
   fun:_ZN11ImageLoader15runInitializersERKNS_11LinkContextERNS_21InitializerTimingListE
   fun:_ZN4dyld24initializeMainExecutableEv
   fun:_ZN4dyld5_mainEPK12macho_headermiPPKcS5_S5_Pm
}
{
   <insert_a_suppression_name_here>
   Memcheck:Cond
   fun:_ZN10TClassEdit10TSplitType9ShortTypeERSsi
   fun:_ZN11TClassTable3AddEPKcsRKSt9type_infoPFvvEi
   fun:_ZN4ROOT17TGenericClassInfoC2EPKciS2_iRKSt9type_infoPKNS_13TInitBehaviorEPFvvEP16TVirtualIsAProxyii
   fun:_ZN4ROOTL25GenerateInitInstanceLocalEPK9CpuInfo_t
   fun:_GLOBAL__I_a
   fun:_ZN16ImageLoaderMachO18doModInitFunctionsERKN11ImageLoader11LinkContextE
   fun:_ZN16ImageLoaderMachO16doInitializationERKN11ImageLoader11LinkContextE
   fun:_ZN11ImageLoader23recursiveInitializationERKNS_11LinkContextEjRNS_21InitializerTimingListE
   fun:_ZN11ImageLoader23recursiveInitializationERKNS_11LinkContextEjRNS_21InitializerTimingListE
   fun:_ZN11ImageLoader15runInitializersERKNS_11LinkContextERNS_21InitializerTimingListE
   fun:_ZN4dyld24initializeMainExecutableEv
   fun:_ZN4dyld5_mainEPK12macho_headermiPPKcS5_S5_Pm
}
{
   <insert_a_suppression_name_here>
   Memcheck:Cond
   fun:_ZN10TClassEdit10TSplitType9ShortTypeERSsi
   fun:_ZN11TClassTable3AddEPKcsRKSt9type_infoPFvvEi
   fun:_ZN4ROOT17TGenericClassInfoC2EPKcS2_iRKSt9type_infoPKNS_13TInitBehaviorEPFvPvR16TMemberInspectorEPFvvEP16TVirtualIsAProxyii
   fun:_ZN4ROOTL25GenerateInitInstanceLocalEPK16RedirectHandle_t
   fun:_GLOBAL__I_a
   fun:_ZN16ImageLoaderMachO18doModInitFunctionsERKN11ImageLoader11LinkContextE
   fun:_ZN16ImageLoaderMachO16doInitializationERKN11ImageLoader11LinkContextE
   fun:_ZN11ImageLoader23recursiveInitializationERKNS_11LinkContextEjRNS_21InitializerTimingListE
   fun:_ZN11ImageLoader23recursiveInitializationERKNS_11LinkContextEjRNS_21InitializerTimingListE
   fun:_ZN11ImageLoader15runInitializersERKNS_11LinkContextERNS_21InitializerTimingListE
   fun:_ZN4dyld24initializeMainExecutableEv
   fun:_ZN4dyld5_mainEPK12macho_headermiPPKcS5_S5_Pm
}
{
   <insert_a_suppression_name_here>
   Memcheck:Cond
   fun:_ZN10TClassEdit10TSplitType9ShortTypeERSsi
   fun:_ZN11TClassTable3AddEPKcsRKSt9type_infoPFvvEi
   fun:_ZN4ROOT17TGenericClassInfoC2EPKcS2_iRKSt9type_infoPKNS_13TInitBehaviorEPFvPvR16TMemberInspectorEPFvvEP16TVirtualIsAProxyii
   fun:_ZN4ROOTL25GenerateInitInstanceLocalEPK21SetWindowAttributes_t
   fun:_GLOBAL__I_a
   fun:_ZN16ImageLoaderMachO18doModInitFunctionsERKN11ImageLoader11LinkContextE
   fun:_ZN16ImageLoaderMachO16doInitializationERKN11ImageLoader11LinkContextE
   fun:_ZN11ImageLoader23recursiveInitializationERKNS_11LinkContextEjRNS_21InitializerTimingListE
   fun:_ZN11ImageLoader23recursiveInitializationERKNS_11LinkContextEjRNS_21InitializerTimingListE
   fun:_ZN11ImageLoader15runInitializersERKNS_11LinkContextERNS_21InitializerTimingListE
   fun:_ZN4dyld24initializeMainExecutableEv
   fun:_ZN4dyld5_mainEPK12macho_headermiPPKcS5_S5_Pm
}
{
   <insert_a_suppression_name_here>
   Memcheck:Cond
   fun:_ZN10TClassEdit10TSplitType9ShortTypeERSsi
   fun:_ZN11TClassTable3AddEPKcsRKSt9type_infoPFvvEi
   fun:_ZN4ROOT17TGenericClassInfoC2EPKcS2_iRKSt9type_infoPKNS_13TInitBehaviorEPFvPvR16TMemberInspectorEPFvvEP16TVirtualIsAProxyii
   fun:_ZN4ROOTL25GenerateInitInstanceLocalEPK18WindowAttributes_t
   fun:_GLOBAL__I_a
   fun:_ZN16ImageLoaderMachO18doModInitFunctionsERKN11ImageLoader11LinkContextE
   fun:_ZN16ImageLoaderMachO16doInitializationERKN11ImageLoader11LinkContextE
   fun:_ZN11ImageLoader23recursiveInitializationERKNS_11LinkContextEjRNS_21InitializerTimingListE
   fun:_ZN11ImageLoader23recursiveInitializationERKNS_11LinkContextEjRNS_21InitializerTimingListE
   fun:_ZN11ImageLoader15runInitializersERKNS_11LinkContextERNS_21InitializerTimingListE
   fun:_ZN4dyld24initializeMainExecutableEv
   fun:_ZN4dyld5_mainEPK12macho_headermiPPKcS5_S5_Pm
}
{
   <insert_a_suppression_name_here>
   Memcheck:Cond
   fun:_ZN10TClassEdit10TSplitType9ShortTypeERSsi
   fun:_ZN11TClassTable3AddEPKcsRKSt9type_infoPFvvEi
   fun:_ZN4ROOT17TGenericClassInfoC2EPKcS2_iRKSt9type_infoPKNS_13TInitBehaviorEPFvPvR16TMemberInspectorEPFvvEP16TVirtualIsAProxyii
   fun:_ZN4ROOTL25GenerateInitInstanceLocalEPK10GCValues_t
   fun:_GLOBAL__I_a
   fun:_ZN16ImageLoaderMachO18doModInitFunctionsERKN11ImageLoader11LinkContextE
   fun:_ZN16ImageLoaderMachO16doInitializationERKN11ImageLoader11LinkContextE
   fun:_ZN11ImageLoader23recursiveInitializationERKNS_11LinkContextEjRNS_21InitializerTimingListE
   fun:_ZN11ImageLoader23recursiveInitializationERKNS_11LinkContextEjRNS_21InitializerTimingListE
   fun:_ZN11ImageLoader15runInitializersERKNS_11LinkContextERNS_21InitializerTimingListE
   fun:_ZN4dyld24initializeMainExecutableEv
   fun:_ZN4dyld5_mainEPK12macho_headermiPPKcS5_S5_Pm
}
{
   <insert_a_suppression_name_here>
   Memcheck:Cond
   fun:_ZN10TClassEdit10TSplitType9ShortTypeERSsi
   fun:_ZN11TClassTable3AddEPKcsRKSt9type_infoPFvvEi
   fun:_ZN4ROOT17TGenericClassInfoC2EPKcS2_iRKSt9type_infoPKNS_13TInitBehaviorEPFvPvR16TMemberInspectorEPFvvEP16TVirtualIsAProxyii
   fun:_ZN4ROOTL25GenerateInitInstanceLocalEPK13ColorStruct_t
   fun:_GLOBAL__I_a
   fun:_ZN16ImageLoaderMachO18doModInitFunctionsERKN11ImageLoader11LinkContextE
   fun:_ZN16ImageLoaderMachO16doInitializationERKN11ImageLoader11LinkContextE
   fun:_ZN11ImageLoader23recursiveInitializationERKNS_11LinkContextEjRNS_21InitializerTimingListE
   fun:_ZN11ImageLoader23recursiveInitializationERKNS_11LinkContextEjRNS_21InitializerTimingListE
   fun:_ZN11ImageLoader15runInitializersERKNS_11LinkContextERNS_21InitializerTimingListE
   fun:_ZN4dyld24initializeMainExecutableEv
   fun:_ZN4dyld5_mainEPK12macho_headermiPPKcS5_S5_Pm
}
{
   <insert_a_suppression_name_here>
   Memcheck:Cond
   fun:_ZN10TClassEdit10TSplitType9ShortTypeERSsi
   fun:_ZN11TClassTable3AddEPKcsRKSt9type_infoPFvvEi
   fun:_ZN4ROOT17TGenericClassInfoC2EPKcS2_iRKSt9type_infoPKNS_13TInitBehaviorEPFvPvR16TMemberInspectorEPFvvEP16TVirtualIsAProxyii
   fun:_ZN4ROOTL25GenerateInitInstanceLocalEPK19PictureAttributes_t
   fun:_GLOBAL__I_a
   fun:_ZN16ImageLoaderMachO18doModInitFunctionsERKN11ImageLoader11LinkContextE
   fun:_ZN16ImageLoaderMachO16doInitializationERKN11ImageLoader11LinkContextE
   fun:_ZN11ImageLoader23recursiveInitializationERKNS_11LinkContextEjRNS_21InitializerTimingListE
   fun:_ZN11ImageLoader23recursiveInitializationERKNS_11LinkContextEjRNS_21InitializerTimingListE
   fun:_ZN11ImageLoader15runInitializersERKNS_11LinkContextERNS_21InitializerTimingListE
   fun:_ZN4dyld24initializeMainExecutableEv
   fun:_ZN4dyld5_mainEPK12macho_headermiPPKcS5_S5_Pm
}
{
   <insert_a_suppression_name_here>
   Memcheck:Cond
   fun:_ZN10TClassEdit10TSplitType9ShortTypeERSsi
   fun:_ZN11TClassTable3AddEPKcsRKSt9type_infoPFvvEi
   fun:_ZN4ROOT17TGenericClassInfoC2EPKcS2_iRKSt9type_infoPKNS_13TInitBehaviorEPFvPvR16TMemberInspectorEPFvvEP16TVirtualIsAProxyii
   fun:_ZN4ROOTL25GenerateInitInstanceLocalEPK9Segment_t
   fun:_GLOBAL__I_a
   fun:_ZN16ImageLoaderMachO18doModInitFunctionsERKN11ImageLoader11LinkContextE
   fun:_ZN16ImageLoaderMachO16doInitializationERKN11ImageLoader11LinkContextE
   fun:_ZN11ImageLoader23recursiveInitializationERKNS_11LinkContextEjRNS_21InitializerTimingListE
   fun:_ZN11ImageLoader23recursiveInitializationERKNS_11LinkContextEjRNS_21InitializerTimingListE
   fun:_ZN11ImageLoader15runInitializersERKNS_11LinkContextERNS_21InitializerTimingListE
   fun:_ZN4dyld24initializeMainExecutableEv
   fun:_ZN4dyld5_mainEPK12macho_headermiPPKcS5_S5_Pm
}
{
   <insert_a_suppression_name_here>
   Memcheck:Cond
   fun:_ZN10TClassEdit10TSplitType9ShortTypeERSsi
   fun:_ZN11TClassTable3AddEPKcsRKSt9type_infoPFvvEi
   fun:_ZN4ROOT17TGenericClassInfoC2EPKcS2_iRKSt9type_infoPKNS_13TInitBehaviorEPFvPvR16TMemberInspectorEPFvvEP16TVirtualIsAProxyii
   fun:_ZN4ROOTL25GenerateInitInstanceLocalEPK11Rectangle_t
   fun:_GLOBAL__I_a
   fun:_ZN16ImageLoaderMachO18doModInitFunctionsERKN11ImageLoader11LinkContextE
   fun:_ZN16ImageLoaderMachO16doInitializationERKN11ImageLoader11LinkContextE
   fun:_ZN11ImageLoader23recursiveInitializationERKNS_11LinkContextEjRNS_21InitializerTimingListE
   fun:_ZN11ImageLoader23recursiveInitializationERKNS_11LinkContextEjRNS_21InitializerTimingListE
   fun:_ZN11ImageLoader15runInitializersERKNS_11LinkContextERNS_21InitializerTimingListE
   fun:_ZN4dyld24initializeMainExecutableEv
   fun:_ZN4dyld5_mainEPK12macho_headermiPPKcS5_S5_Pm
}
{
   <insert_a_suppression_name_here>
   Memcheck:Cond
   fun:_ZN10TClassEdit10TSplitType9ShortTypeERSsi
   fun:_ZN11TClassTable3AddEPKcsRKSt9type_infoPFvvEi
   fun:_ZN4ROOT17TGenericClassInfoC2EPKcS2_iRKSt9type_infoPKNS_13TInitBehaviorEPFvPvR16TMemberInspectorEPFvvEP16TVirtualIsAProxyii
   fun:_ZN4ROOTL25GenerateInitInstanceLocalEPK8timespec
   fun:_GLOBAL__I_a
   fun:_ZN16ImageLoaderMachO18doModInitFunctionsERKN11ImageLoader11LinkContextE
   fun:_ZN16ImageLoaderMachO16doInitializationERKN11ImageLoader11LinkContextE
   fun:_ZN11ImageLoader23recursiveInitializationERKNS_11LinkContextEjRNS_21InitializerTimingListE
   fun:_ZN11ImageLoader23recursiveInitializationERKNS_11LinkContextEjRNS_21InitializerTimingListE
   fun:_ZN11ImageLoader15runInitializersERKNS_11LinkContextERNS_21InitializerTimingListE
   fun:_ZN4dyld24initializeMainExecutableEv
   fun:_ZN4dyld5_mainEPK12macho_headermiPPKcS5_S5_Pm
}
{
   <insert_a_suppression_name_here>
   Memcheck:Cond
   fun:_ZNSs12_S_constructIPcEES0_T_S1_RKSaIcESt20forward_iterator_tag
   fun:_ZNSsC2ERKSsmm
   fun:_ZN10TClassEdit8GetSplitEPKcRSt6vectorISsSaISsEERiNS_8EModTypeE
   fun:_ZN10TClassEdit10TSplitTypeC1EPKcNS_8EModTypeE
   fun:_ZN11TClassTable3AddEPKcsRKSt9type_infoPFvvEi
   fun:_ZN4ROOT17TGenericClassInfoC2EPKciS2_iRKSt9type_infoPKNS_13TInitBehaviorEPFvvEP16TVirtualIsAProxyii
   fun:_ZN4ROOTL25GenerateInitInstanceLocalEPK10TParameterIbE
   fun:_GLOBAL__I_a
   fun:_ZN16ImageLoaderMachO18doModInitFunctionsERKN11ImageLoader11LinkContextE
   fun:_ZN16ImageLoaderMachO16doInitializationERKN11ImageLoader11LinkContextE
   fun:_ZN11ImageLoader23recursiveInitializationERKNS_11LinkContextEjRNS_21InitializerTimingListE
   fun:_ZN11ImageLoader23recursiveInitializationERKNS_11LinkContextEjRNS_21InitializerTimingListE
}
{
   <insert_a_suppression_name_here>
   Memcheck:Value8
   fun:_ZNSs12_S_constructIPcEES0_T_S1_RKSaIcESt20forward_iterator_tag
   fun:_ZNSsC2ERKSsmm
   fun:_ZN10TClassEdit8GetSplitEPKcRSt6vectorISsSaISsEERiNS_8EModTypeE
   fun:_ZN10TClassEdit10TSplitTypeC1EPKcNS_8EModTypeE
   fun:_ZN11TClassTable3AddEPKcsRKSt9type_infoPFvvEi
   fun:_ZN4ROOT17TGenericClassInfoC2EPKciS2_iRKSt9type_infoPKNS_13TInitBehaviorEPFvvEP16TVirtualIsAProxyii
   fun:_ZN4ROOTL25GenerateInitInstanceLocalEPK10TParameterIbE
   fun:_GLOBAL__I_a
   fun:_ZN16ImageLoaderMachO18doModInitFunctionsERKN11ImageLoader11LinkContextE
   fun:_ZN16ImageLoaderMachO16doInitializationERKN11ImageLoader11LinkContextE
   fun:_ZN11ImageLoader23recursiveInitializationERKNS_11LinkContextEjRNS_21InitializerTimingListE
   fun:_ZN11ImageLoader23recursiveInitializationERKNS_11LinkContextEjRNS_21InitializerTimingListE
}
{
   <insert_a_suppression_name_here>
   Memcheck:Cond
   fun:_ZNSs4_Rep9_S_createEmmRKSaIcE
   fun:_ZN10TClassEdit8GetSplitEPKcRSt6vectorISsSaISsEERiNS_8EModTypeE
   fun:_ZN10TClassEdit10TSplitTypeC1EPKcNS_8EModTypeE
   fun:_ZN11TClassTable3AddEPKcsRKSt9type_infoPFvvEi
   fun:_ZN4ROOT17TGenericClassInfoC2EPKciS2_iRKSt9type_infoPKNS_13TInitBehaviorEPFvvEP16TVirtualIsAProxyii
   fun:_ZN4ROOTL25GenerateInitInstanceLocalEPK10TParameterIbE
   fun:_GLOBAL__I_a
   fun:_ZN16ImageLoaderMachO18doModInitFunctionsERKN11ImageLoader11LinkContextE
   fun:_ZN16ImageLoaderMachO16doInitializationERKN11ImageLoader11LinkContextE
   fun:_ZN11ImageLoader23recursiveInitializationERKNS_11LinkContextEjRNS_21InitializerTimingListE
   fun:_ZN11ImageLoader23recursiveInitializationERKNS_11LinkContextEjRNS_21InitializerTimingListE
   fun:_ZN11ImageLoader15runInitializersERKNS_11LinkContextERNS_21InitializerTimingListE
}
{
   <insert_a_suppression_name_here>
   Memcheck:Cond
   fun:malloc
   fun:_Znwm
   fun:_ZN10TClassEdit8GetSplitEPKcRSt6vectorISsSaISsEERiNS_8EModTypeE
   fun:_ZN10TClassEdit10TSplitTypeC1EPKcNS_8EModTypeE
   fun:_ZN11TClassTable3AddEPKcsRKSt9type_infoPFvvEi
   fun:_ZN4ROOT17TGenericClassInfoC2EPKciS2_iRKSt9type_infoPKNS_13TInitBehaviorEPFvvEP16TVirtualIsAProxyii
   fun:_ZN4ROOTL25GenerateInitInstanceLocalEPK10TParameterIbE
   fun:_GLOBAL__I_a
   fun:_ZN16ImageLoaderMachO18doModInitFunctionsERKN11ImageLoader11LinkContextE
   fun:_ZN16ImageLoaderMachO16doInitializationERKN11ImageLoader11LinkContextE
   fun:_ZN11ImageLoader23recursiveInitializationERKNS_11LinkContextEjRNS_21InitializerTimingListE
   fun:_ZN11ImageLoader23recursiveInitializationERKNS_11LinkContextEjRNS_21InitializerTimingListE
}
{
   <insert_a_suppression_name_here>
   Memcheck:Value8
   fun:_platform_memmove$VARIANT$Nehalem
   fun:_ZN10TClassEdit8GetSplitEPKcRSt6vectorISsSaISsEERiNS_8EModTypeE
   fun:_ZN10TClassEdit10TSplitTypeC1EPKcNS_8EModTypeE
   fun:_ZN11TClassTable3AddEPKcsRKSt9type_infoPFvvEi
   fun:_ZN4ROOT17TGenericClassInfoC2EPKciS2_iRKSt9type_infoPKNS_13TInitBehaviorEPFvvEP16TVirtualIsAProxyii
   fun:_ZN4ROOTL25GenerateInitInstanceLocalEPK10TParameterIbE
   fun:_GLOBAL__I_a
   fun:_ZN16ImageLoaderMachO18doModInitFunctionsERKN11ImageLoader11LinkContextE
   fun:_ZN16ImageLoaderMachO16doInitializationERKN11ImageLoader11LinkContextE
   fun:_ZN11ImageLoader23recursiveInitializationERKNS_11LinkContextEjRNS_21InitializerTimingListE
   fun:_ZN11ImageLoader23recursiveInitializationERKNS_11LinkContextEjRNS_21InitializerTimingListE
   fun:_ZN11ImageLoader15runInitializersERKNS_11LinkContextERNS_21InitializerTimingListE
}
{
   <insert_a_suppression_name_here>
   Memcheck:Cond
   fun:_ZNSs6appendERKSs
   fun:_ZN10TClassEdit10TSplitType9ShortTypeERSsi
   fun:_ZN11TClassTable3AddEPKcsRKSt9type_infoPFvvEi
   fun:_ZN4ROOT17TGenericClassInfoC2EPKciS2_iRKSt9type_infoPKNS_13TInitBehaviorEPFvvEP16TVirtualIsAProxyii
   fun:_ZN4ROOTL25GenerateInitInstanceLocalEPK10TParameterIbE
   fun:_GLOBAL__I_a
   fun:_ZN16ImageLoaderMachO18doModInitFunctionsERKN11ImageLoader11LinkContextE
   fun:_ZN16ImageLoaderMachO16doInitializationERKN11ImageLoader11LinkContextE
   fun:_ZN11ImageLoader23recursiveInitializationERKNS_11LinkContextEjRNS_21InitializerTimingListE
   fun:_ZN11ImageLoader23recursiveInitializationERKNS_11LinkContextEjRNS_21InitializerTimingListE
   fun:_ZN11ImageLoader15runInitializersERKNS_11LinkContextERNS_21InitializerTimingListE
   fun:_ZN4dyld24initializeMainExecutableEv
}
{
   <insert_a_suppression_name_here>
   Memcheck:Cond
   fun:_ZNSs7reserveEm
   fun:_ZNSs6appendERKSs
   fun:_ZN10TClassEdit10TSplitType9ShortTypeERSsi
   fun:_ZN11TClassTable3AddEPKcsRKSt9type_infoPFvvEi
   fun:_ZN4ROOT17TGenericClassInfoC2EPKciS2_iRKSt9type_infoPKNS_13TInitBehaviorEPFvvEP16TVirtualIsAProxyii
   fun:_ZN4ROOTL25GenerateInitInstanceLocalEPK10TParameterIbE
   fun:_GLOBAL__I_a
   fun:_ZN16ImageLoaderMachO18doModInitFunctionsERKN11ImageLoader11LinkContextE
   fun:_ZN16ImageLoaderMachO16doInitializationERKN11ImageLoader11LinkContextE
   fun:_ZN11ImageLoader23recursiveInitializationERKNS_11LinkContextEjRNS_21InitializerTimingListE
   fun:_ZN11ImageLoader23recursiveInitializationERKNS_11LinkContextEjRNS_21InitializerTimingListE
   fun:_ZN11ImageLoader15runInitializersERKNS_11LinkContextERNS_21InitializerTimingListE
}
{
   <insert_a_suppression_name_here>
   Memcheck:Value8
   fun:_ZNSs6appendERKSs
   fun:_ZN10TClassEdit10TSplitType9ShortTypeERSsi
   fun:_ZN11TClassTable3AddEPKcsRKSt9type_infoPFvvEi
   fun:_ZN4ROOT17TGenericClassInfoC2EPKciS2_iRKSt9type_infoPKNS_13TInitBehaviorEPFvvEP16TVirtualIsAProxyii
   fun:_ZN4ROOTL25GenerateInitInstanceLocalEPK10TParameterIbE
   fun:_GLOBAL__I_a
   fun:_ZN16ImageLoaderMachO18doModInitFunctionsERKN11ImageLoader11LinkContextE
   fun:_ZN16ImageLoaderMachO16doInitializationERKN11ImageLoader11LinkContextE
   fun:_ZN11ImageLoader23recursiveInitializationERKNS_11LinkContextEjRNS_21InitializerTimingListE
   fun:_ZN11ImageLoader23recursiveInitializationERKNS_11LinkContextEjRNS_21InitializerTimingListE
   fun:_ZN11ImageLoader15runInitializersERKNS_11LinkContextERNS_21InitializerTimingListE
   fun:_ZN4dyld24initializeMainExecutableEv
}
{
   <insert_a_suppression_name_here>
   Memcheck:Cond
   fun:_ZNSs6appendEPKcm
   fun:_ZN10TClassEdit10TSplitType9ShortTypeERSsi
   fun:_ZN11TClassTable3AddEPKcsRKSt9type_infoPFvvEi
   fun:_ZN4ROOT17TGenericClassInfoC2EPKciS2_iRKSt9type_infoPKNS_13TInitBehaviorEPFvvEP16TVirtualIsAProxyii
   fun:_ZN4ROOTL25GenerateInitInstanceLocalEPK10TParameterIbE
   fun:_GLOBAL__I_a
   fun:_ZN16ImageLoaderMachO18doModInitFunctionsERKN11ImageLoader11LinkContextE
   fun:_ZN16ImageLoaderMachO16doInitializationERKN11ImageLoader11LinkContextE
   fun:_ZN11ImageLoader23recursiveInitializationERKNS_11LinkContextEjRNS_21InitializerTimingListE
   fun:_ZN11ImageLoader23recursiveInitializationERKNS_11LinkContextEjRNS_21InitializerTimingListE
   fun:_ZN11ImageLoader15runInitializersERKNS_11LinkContextERNS_21InitializerTimingListE
   fun:_ZN4dyld24initializeMainExecutableEv
}
{
   <insert_a_suppression_name_here>
   Memcheck:Cond
   fun:_ZNSs7reserveEm
   fun:_ZNSs6appendEPKcm
   fun:_ZN10TClassEdit10TSplitType9ShortTypeERSsi
   fun:_ZN11TClassTable3AddEPKcsRKSt9type_infoPFvvEi
   fun:_ZN4ROOT17TGenericClassInfoC2EPKciS2_iRKSt9type_infoPKNS_13TInitBehaviorEPFvvEP16TVirtualIsAProxyii
   fun:_ZN4ROOTL25GenerateInitInstanceLocalEPK10TParameterIbE
   fun:_GLOBAL__I_a
   fun:_ZN16ImageLoaderMachO18doModInitFunctionsERKN11ImageLoader11LinkContextE
   fun:_ZN16ImageLoaderMachO16doInitializationERKN11ImageLoader11LinkContextE
   fun:_ZN11ImageLoader23recursiveInitializationERKNS_11LinkContextEjRNS_21InitializerTimingListE
   fun:_ZN11ImageLoader23recursiveInitializationERKNS_11LinkContextEjRNS_21InitializerTimingListE
   fun:_ZN11ImageLoader15runInitializersERKNS_11LinkContextERNS_21InitializerTimingListE
}
{
   <insert_a_suppression_name_here>
   Memcheck:Value8
   fun:_ZNSs6appendEPKcm
   fun:_ZN10TClassEdit10TSplitType9ShortTypeERSsi
   fun:_ZN11TClassTable3AddEPKcsRKSt9type_infoPFvvEi
   fun:_ZN4ROOT17TGenericClassInfoC2EPKciS2_iRKSt9type_infoPKNS_13TInitBehaviorEPFvvEP16TVirtualIsAProxyii
   fun:_ZN4ROOTL25GenerateInitInstanceLocalEPK10TParameterIbE
   fun:_GLOBAL__I_a
   fun:_ZN16ImageLoaderMachO18doModInitFunctionsERKN11ImageLoader11LinkContextE
   fun:_ZN16ImageLoaderMachO16doInitializationERKN11ImageLoader11LinkContextE
   fun:_ZN11ImageLoader23recursiveInitializationERKNS_11LinkContextEjRNS_21InitializerTimingListE
   fun:_ZN11ImageLoader23recursiveInitializationERKNS_11LinkContextEjRNS_21InitializerTimingListE
   fun:_ZN11ImageLoader15runInitializersERKNS_11LinkContextERNS_21InitializerTimingListE
   fun:_ZN4dyld24initializeMainExecutableEv
}
{
   <insert_a_suppression_name_here>
   Memcheck:Value8
   fun:_platform_memmove$VARIANT$Nehalem
   fun:_ZNSs6appendERKSs
   fun:_ZN10TClassEdit10TSplitType9ShortTypeERSsi
   fun:_ZN11TClassTable3AddEPKcsRKSt9type_infoPFvvEi
   fun:_ZN4ROOT17TGenericClassInfoC2EPKciS2_iRKSt9type_infoPKNS_13TInitBehaviorEPFvvEP16TVirtualIsAProxyii
   fun:_ZN4ROOTL25GenerateInitInstanceLocalEPK10TParameterIbE
   fun:_GLOBAL__I_a
   fun:_ZN16ImageLoaderMachO18doModInitFunctionsERKN11ImageLoader11LinkContextE
   fun:_ZN16ImageLoaderMachO16doInitializationERKN11ImageLoader11LinkContextE
   fun:_ZN11ImageLoader23recursiveInitializationERKNS_11LinkContextEjRNS_21InitializerTimingListE
   fun:_ZN11ImageLoader23recursiveInitializationERKNS_11LinkContextEjRNS_21InitializerTimingListE
   fun:_ZN11ImageLoader15runInitializersERKNS_11LinkContextERNS_21InitializerTimingListE
}
{
   <insert_a_suppression_name_here>
   Memcheck:Cond
   fun:_ZN10TClassEdit10TSplitType9ShortTypeERSsi
   fun:_ZN11TClassTable3AddEPKcsRKSt9type_infoPFvvEi
   fun:_ZN4ROOT17TGenericClassInfoC2EPKciS2_iRKSt9type_infoPKNS_13TInitBehaviorEPFvvEP16TVirtualIsAProxyii
   fun:_ZN4ROOTL25GenerateInitInstanceLocalEPK12TVirtualAuth
   fun:_GLOBAL__I_a
   fun:_ZN16ImageLoaderMachO18doModInitFunctionsERKN11ImageLoader11LinkContextE
   fun:_ZN16ImageLoaderMachO16doInitializationERKN11ImageLoader11LinkContextE
   fun:_ZN11ImageLoader23recursiveInitializationERKNS_11LinkContextEjRNS_21InitializerTimingListE
   fun:_ZN11ImageLoader23recursiveInitializationERKNS_11LinkContextEjRNS_21InitializerTimingListE
   fun:_ZN11ImageLoader15runInitializersERKNS_11LinkContextERNS_21InitializerTimingListE
   fun:_ZN4dyld24initializeMainExecutableEv
   fun:_ZN4dyld5_mainEPK12macho_headermiPPKcS5_S5_Pm
}
{
   <insert_a_suppression_name_here>
   Memcheck:Cond
   fun:_ZN10TClassEdit10TSplitType9ShortTypeERSsi
   fun:_ZN11TClassTable3AddEPKcsRKSt9type_infoPFvvEi
   fun:_ZN4ROOT17TGenericClassInfoC2EPKciS2_iRKSt9type_infoPKNS_13TInitBehaviorEPFvvEP16TVirtualIsAProxyii
   fun:_ZN4ROOTL25GenerateInitInstanceLocalEPK20TRedirectOutputGuard
   fun:_GLOBAL__I_a
   fun:_ZN16ImageLoaderMachO18doModInitFunctionsERKN11ImageLoader11LinkContextE
   fun:_ZN16ImageLoaderMachO16doInitializationERKN11ImageLoader11LinkContextE
   fun:_ZN11ImageLoader23recursiveInitializationERKNS_11LinkContextEjRNS_21InitializerTimingListE
   fun:_ZN11ImageLoader23recursiveInitializationERKNS_11LinkContextEjRNS_21InitializerTimingListE
   fun:_ZN11ImageLoader15runInitializersERKNS_11LinkContextERNS_21InitializerTimingListE
   fun:_ZN4dyld24initializeMainExecutableEv
   fun:_ZN4dyld5_mainEPK12macho_headermiPPKcS5_S5_Pm
}
{
   <insert_a_suppression_name_here>
   Memcheck:Cond
   fun:_ZN10TClassEdit10TSplitType9ShortTypeERSsi
